
AVRASM ver. 2.1.30  E:\USERS\PAL\DEVICES\fat42_dev\BPS1000.04_m168_pcbfromoleg\SOFT_V10+\Release\List\BPS.asm Thu Jan 18 16:14:38 2024

E:\USERS\PAL\DEVICES\fat42_dev\BPS1000.04_m168_pcbfromoleg\SOFT_V10+\Release\List\BPS.asm(1092): warning: Register r7 already defined by the .DEF directive
E:\USERS\PAL\DEVICES\fat42_dev\BPS1000.04_m168_pcbfromoleg\SOFT_V10+\Release\List\BPS.asm(1093): warning: Register r6 already defined by the .DEF directive
E:\USERS\PAL\DEVICES\fat42_dev\BPS1000.04_m168_pcbfromoleg\SOFT_V10+\Release\List\BPS.asm(1094): warning: Register r9 already defined by the .DEF directive
E:\USERS\PAL\DEVICES\fat42_dev\BPS1000.04_m168_pcbfromoleg\SOFT_V10+\Release\List\BPS.asm(1095): warning: Register r8 already defined by the .DEF directive
E:\USERS\PAL\DEVICES\fat42_dev\BPS1000.04_m168_pcbfromoleg\SOFT_V10+\Release\List\BPS.asm(1096): warning: Register r11 already defined by the .DEF directive
E:\USERS\PAL\DEVICES\fat42_dev\BPS1000.04_m168_pcbfromoleg\SOFT_V10+\Release\List\BPS.asm(1097): warning: Register r10 already defined by the .DEF directive
E:\USERS\PAL\DEVICES\fat42_dev\BPS1000.04_m168_pcbfromoleg\SOFT_V10+\Release\List\BPS.asm(1098): warning: Register r13 already defined by the .DEF directive
E:\USERS\PAL\DEVICES\fat42_dev\BPS1000.04_m168_pcbfromoleg\SOFT_V10+\Release\List\BPS.asm(1099): warning: Register r12 already defined by the .DEF directive
                 
                 
                 ;CodeVisionAVR C Compiler V3.12 Advanced
                 ;(C) Copyright 1998-2014 Pavel Haiduc, HP InfoTech s.r.l.
                 ;http://www.hpinfotech.com
                 
                 ;Build configuration    : Release
                 ;Chip type              : ATmega168
                 ;Program type           : Application
                 ;Clock frequency        : 8,000000 MHz
                 ;Memory model           : Small
                 ;Optimize for           : Size
                 ;(s)printf features     : int, width
                 ;(s)scanf features      : int, width
                 ;External RAM size      : 0
                 ;Data Stack size        : 256 byte(s)
                 ;Heap size              : 0 byte(s)
                 ;Promote 'char' to 'int': No
                 ;'char' is unsigned     : Yes
                 ;8 bit enums            : Yes
                 ;Global 'const' stored in FLASH: No
                 ;Enhanced function parameter passing: Yes
                 ;Enhanced core instructions: On
                 ;Automatic register allocation for global variables: On
                 ;Smart register allocation: On
                 
                 	#define _MODEL_SMALL_
                 
                 	#pragma AVRPART ADMIN PART_NAME ATmega168
                 	#pragma AVRPART MEMORY PROG_FLASH 16384
                 	#pragma AVRPART MEMORY EEPROM 512
                 	#pragma AVRPART MEMORY INT_SRAM SIZE 1024
                 	#pragma AVRPART MEMORY INT_SRAM START_ADDR 0x100
                 
                 	#define CALL_SUPPORTED 1
                 
                 	.LISTMAC
                 	.EQU EERE=0x0
                 	.EQU EEWE=0x1
                 	.EQU EEMWE=0x2
                 	.EQU UDRE=0x5
                 	.EQU RXC=0x7
                 	.EQU EECR=0x1F
                 	.EQU EEDR=0x20
                 	.EQU EEARL=0x21
                 	.EQU EEARH=0x22
                 	.EQU SPSR=0x2D
                 	.EQU SPDR=0x2E
                 	.EQU SMCR=0x33
                 	.EQU MCUSR=0x34
                 	.EQU MCUCR=0x35
                 	.EQU WDTCSR=0x60
                 	.EQU UCSR0A=0xC0
                 	.EQU UDR0=0xC6
                 	.EQU SPL=0x3D
                 	.EQU SPH=0x3E
                 	.EQU SREG=0x3F
                 	.EQU GPIOR0=0x1E
                 	.EQU GPIOR1=0x2A
                 	.EQU GPIOR2=0x2B
                 
                 	.DEF R0X0=R0
                 	.DEF R0X1=R1
                 	.DEF R0X2=R2
                 	.DEF R0X3=R3
                 	.DEF R0X4=R4
                 	.DEF R0X5=R5
                 	.DEF R0X6=R6
                 	.DEF R0X7=R7
                 	.DEF R0X8=R8
                 	.DEF R0X9=R9
                 	.DEF R0XA=R10
                 	.DEF R0XB=R11
                 	.DEF R0XC=R12
                 	.DEF R0XD=R13
                 	.DEF R0XE=R14
                 	.DEF R0XF=R15
                 	.DEF R0X10=R16
                 	.DEF R0X11=R17
                 	.DEF R0X12=R18
                 	.DEF R0X13=R19
                 	.DEF R0X14=R20
                 	.DEF R0X15=R21
                 	.DEF R0X16=R22
                 	.DEF R0X17=R23
                 	.DEF R0X18=R24
                 	.DEF R0X19=R25
                 	.DEF R0X1A=R26
                 	.DEF R0X1B=R27
                 	.DEF R0X1C=R28
                 	.DEF R0X1D=R29
                 	.DEF R0X1E=R30
                 	.DEF R0X1F=R31
                 
                 	.EQU __SRAM_START=0x0100
                 	.EQU __SRAM_END=0x04FF
                 	.EQU __DSTACK_SIZE=0x0100
                 	.EQU __HEAP_SIZE=0x0000
                 	.EQU __CLEAR_SRAM_SIZE=__SRAM_END-__SRAM_START+1
                 
                 	.MACRO __CPD1N
                 	CPI  R30,LOW(@0)
                 	LDI  R26,HIGH(@0)
                 	CPC  R31,R26
                 	LDI  R26,BYTE3(@0)
                 	CPC  R22,R26
                 	LDI  R26,BYTE4(@0)
                 	CPC  R23,R26
                 	.ENDM
                 
                 	.MACRO __CPD2N
                 	CPI  R26,LOW(@0)
                 	LDI  R30,HIGH(@0)
                 	CPC  R27,R30
                 	LDI  R30,BYTE3(@0)
                 	CPC  R24,R30
                 	LDI  R30,BYTE4(@0)
                 	CPC  R25,R30
                 	.ENDM
                 
                 	.MACRO __CPWRR
                 	CP   R@0,R@2
                 	CPC  R@1,R@3
                 	.ENDM
                 
                 	.MACRO __CPWRN
                 	CPI  R@0,LOW(@2)
                 	LDI  R30,HIGH(@2)
                 	CPC  R@1,R30
                 	.ENDM
                 
                 	.MACRO __ADDB1MN
                 	SUBI R30,LOW(-@0-(@1))
                 	.ENDM
                 
                 	.MACRO __ADDB2MN
                 	SUBI R26,LOW(-@0-(@1))
                 	.ENDM
                 
                 	.MACRO __ADDW1MN
                 	SUBI R30,LOW(-@0-(@1))
                 	SBCI R31,HIGH(-@0-(@1))
                 	.ENDM
                 
                 	.MACRO __ADDW2MN
                 	SUBI R26,LOW(-@0-(@1))
                 	SBCI R27,HIGH(-@0-(@1))
                 	.ENDM
                 
                 	.MACRO __ADDW1FN
                 	SUBI R30,LOW(-2*@0-(@1))
                 	SBCI R31,HIGH(-2*@0-(@1))
                 	.ENDM
                 
                 	.MACRO __ADDD1FN
                 	SUBI R30,LOW(-2*@0-(@1))
                 	SBCI R31,HIGH(-2*@0-(@1))
                 	SBCI R22,BYTE3(-2*@0-(@1))
                 	.ENDM
                 
                 	.MACRO __ADDD1N
                 	SUBI R30,LOW(-@0)
                 	SBCI R31,HIGH(-@0)
                 	SBCI R22,BYTE3(-@0)
                 	SBCI R23,BYTE4(-@0)
                 	.ENDM
                 
                 	.MACRO __ADDD2N
                 	SUBI R26,LOW(-@0)
                 	SBCI R27,HIGH(-@0)
                 	SBCI R24,BYTE3(-@0)
                 	SBCI R25,BYTE4(-@0)
                 	.ENDM
                 
                 	.MACRO __SUBD1N
                 	SUBI R30,LOW(@0)
                 	SBCI R31,HIGH(@0)
                 	SBCI R22,BYTE3(@0)
                 	SBCI R23,BYTE4(@0)
                 	.ENDM
                 
                 	.MACRO __SUBD2N
                 	SUBI R26,LOW(@0)
                 	SBCI R27,HIGH(@0)
                 	SBCI R24,BYTE3(@0)
                 	SBCI R25,BYTE4(@0)
                 	.ENDM
                 
                 	.MACRO __ANDBMNN
                 	LDS  R30,@0+(@1)
                 	ANDI R30,LOW(@2)
                 	STS  @0+(@1),R30
                 	.ENDM
                 
                 	.MACRO __ANDWMNN
                 	LDS  R30,@0+(@1)
                 	ANDI R30,LOW(@2)
                 	STS  @0+(@1),R30
                 	LDS  R30,@0+(@1)+1
                 	ANDI R30,HIGH(@2)
                 	STS  @0+(@1)+1,R30
                 	.ENDM
                 
                 	.MACRO __ANDD1N
                 	ANDI R30,LOW(@0)
                 	ANDI R31,HIGH(@0)
                 	ANDI R22,BYTE3(@0)
                 	ANDI R23,BYTE4(@0)
                 	.ENDM
                 
                 	.MACRO __ANDD2N
                 	ANDI R26,LOW(@0)
                 	ANDI R27,HIGH(@0)
                 	ANDI R24,BYTE3(@0)
                 	ANDI R25,BYTE4(@0)
                 	.ENDM
                 
                 	.MACRO __ORBMNN
                 	LDS  R30,@0+(@1)
                 	ORI  R30,LOW(@2)
                 	STS  @0+(@1),R30
                 	.ENDM
                 
                 	.MACRO __ORWMNN
                 	LDS  R30,@0+(@1)
                 	ORI  R30,LOW(@2)
                 	STS  @0+(@1),R30
                 	LDS  R30,@0+(@1)+1
                 	ORI  R30,HIGH(@2)
                 	STS  @0+(@1)+1,R30
                 	.ENDM
                 
                 	.MACRO __ORD1N
                 	ORI  R30,LOW(@0)
                 	ORI  R31,HIGH(@0)
                 	ORI  R22,BYTE3(@0)
                 	ORI  R23,BYTE4(@0)
                 	.ENDM
                 
                 	.MACRO __ORD2N
                 	ORI  R26,LOW(@0)
                 	ORI  R27,HIGH(@0)
                 	ORI  R24,BYTE3(@0)
                 	ORI  R25,BYTE4(@0)
                 	.ENDM
                 
                 	.MACRO __DELAY_USB
                 	LDI  R24,LOW(@0)
                 __DELAY_USB_LOOP:
                 	DEC  R24
                 	BRNE __DELAY_USB_LOOP
                 	.ENDM
                 
                 	.MACRO __DELAY_USW
                 	LDI  R24,LOW(@0)
                 	LDI  R25,HIGH(@0)
                 __DELAY_USW_LOOP:
                 	SBIW R24,1
                 	BRNE __DELAY_USW_LOOP
                 	.ENDM
                 
                 	.MACRO __GETD1S
                 	LDD  R30,Y+@0
                 	LDD  R31,Y+@0+1
                 	LDD  R22,Y+@0+2
                 	LDD  R23,Y+@0+3
                 	.ENDM
                 
                 	.MACRO __GETD2S
                 	LDD  R26,Y+@0
                 	LDD  R27,Y+@0+1
                 	LDD  R24,Y+@0+2
                 	LDD  R25,Y+@0+3
                 	.ENDM
                 
                 	.MACRO __PUTD1S
                 	STD  Y+@0,R30
                 	STD  Y+@0+1,R31
                 	STD  Y+@0+2,R22
                 	STD  Y+@0+3,R23
                 	.ENDM
                 
                 	.MACRO __PUTD2S
                 	STD  Y+@0,R26
                 	STD  Y+@0+1,R27
                 	STD  Y+@0+2,R24
                 	STD  Y+@0+3,R25
                 	.ENDM
                 
                 	.MACRO __PUTDZ2
                 	STD  Z+@0,R26
                 	STD  Z+@0+1,R27
                 	STD  Z+@0+2,R24
                 	STD  Z+@0+3,R25
                 	.ENDM
                 
                 	.MACRO __CLRD1S
                 	STD  Y+@0,R30
                 	STD  Y+@0+1,R30
                 	STD  Y+@0+2,R30
                 	STD  Y+@0+3,R30
                 	.ENDM
                 
                 	.MACRO __POINTB1MN
                 	LDI  R30,LOW(@0+(@1))
                 	.ENDM
                 
                 	.MACRO __POINTW1MN
                 	LDI  R30,LOW(@0+(@1))
                 	LDI  R31,HIGH(@0+(@1))
                 	.ENDM
                 
                 	.MACRO __POINTD1M
                 	LDI  R30,LOW(@0)
                 	LDI  R31,HIGH(@0)
                 	LDI  R22,BYTE3(@0)
                 	LDI  R23,BYTE4(@0)
                 	.ENDM
                 
                 	.MACRO __POINTW1FN
                 	LDI  R30,LOW(2*@0+(@1))
                 	LDI  R31,HIGH(2*@0+(@1))
                 	.ENDM
                 
                 	.MACRO __POINTD1FN
                 	LDI  R30,LOW(2*@0+(@1))
                 	LDI  R31,HIGH(2*@0+(@1))
                 	LDI  R22,BYTE3(2*@0+(@1))
                 	LDI  R23,BYTE4(2*@0+(@1))
                 	.ENDM
                 
                 	.MACRO __POINTB2MN
                 	LDI  R26,LOW(@0+(@1))
                 	.ENDM
                 
                 	.MACRO __POINTW2MN
                 	LDI  R26,LOW(@0+(@1))
                 	LDI  R27,HIGH(@0+(@1))
                 	.ENDM
                 
                 	.MACRO __POINTW2FN
                 	LDI  R26,LOW(2*@0+(@1))
                 	LDI  R27,HIGH(2*@0+(@1))
                 	.ENDM
                 
                 	.MACRO __POINTD2FN
                 	LDI  R26,LOW(2*@0+(@1))
                 	LDI  R27,HIGH(2*@0+(@1))
                 	LDI  R24,BYTE3(2*@0+(@1))
                 	LDI  R25,BYTE4(2*@0+(@1))
                 	.ENDM
                 
                 	.MACRO __POINTBRM
                 	LDI  R@0,LOW(@1)
                 	.ENDM
                 
                 	.MACRO __POINTWRM
                 	LDI  R@0,LOW(@2)
                 	LDI  R@1,HIGH(@2)
                 	.ENDM
                 
                 	.MACRO __POINTBRMN
                 	LDI  R@0,LOW(@1+(@2))
                 	.ENDM
                 
                 	.MACRO __POINTWRMN
                 	LDI  R@0,LOW(@2+(@3))
                 	LDI  R@1,HIGH(@2+(@3))
                 	.ENDM
                 
                 	.MACRO __POINTWRFN
                 	LDI  R@0,LOW(@2*2+(@3))
                 	LDI  R@1,HIGH(@2*2+(@3))
                 	.ENDM
                 
                 	.MACRO __GETD1N
                 	LDI  R30,LOW(@0)
                 	LDI  R31,HIGH(@0)
                 	LDI  R22,BYTE3(@0)
                 	LDI  R23,BYTE4(@0)
                 	.ENDM
                 
                 	.MACRO __GETD2N
                 	LDI  R26,LOW(@0)
                 	LDI  R27,HIGH(@0)
                 	LDI  R24,BYTE3(@0)
                 	LDI  R25,BYTE4(@0)
                 	.ENDM
                 
                 	.MACRO __GETB1MN
                 	LDS  R30,@0+(@1)
                 	.ENDM
                 
                 	.MACRO __GETB1HMN
                 	LDS  R31,@0+(@1)
                 	.ENDM
                 
                 	.MACRO __GETW1MN
                 	LDS  R30,@0+(@1)
                 	LDS  R31,@0+(@1)+1
                 	.ENDM
                 
                 	.MACRO __GETD1MN
                 	LDS  R30,@0+(@1)
                 	LDS  R31,@0+(@1)+1
                 	LDS  R22,@0+(@1)+2
                 	LDS  R23,@0+(@1)+3
                 	.ENDM
                 
                 	.MACRO __GETBRMN
                 	LDS  R@0,@1+(@2)
                 	.ENDM
                 
                 	.MACRO __GETWRMN
                 	LDS  R@0,@2+(@3)
                 	LDS  R@1,@2+(@3)+1
                 	.ENDM
                 
                 	.MACRO __GETWRZ
                 	LDD  R@0,Z+@2
                 	LDD  R@1,Z+@2+1
                 	.ENDM
                 
                 	.MACRO __GETD2Z
                 	LDD  R26,Z+@0
                 	LDD  R27,Z+@0+1
                 	LDD  R24,Z+@0+2
                 	LDD  R25,Z+@0+3
                 	.ENDM
                 
                 	.MACRO __GETB2MN
                 	LDS  R26,@0+(@1)
                 	.ENDM
                 
                 	.MACRO __GETW2MN
                 	LDS  R26,@0+(@1)
                 	LDS  R27,@0+(@1)+1
                 	.ENDM
                 
                 	.MACRO __GETD2MN
                 	LDS  R26,@0+(@1)
                 	LDS  R27,@0+(@1)+1
                 	LDS  R24,@0+(@1)+2
                 	LDS  R25,@0+(@1)+3
                 	.ENDM
                 
                 	.MACRO __PUTB1MN
                 	STS  @0+(@1),R30
                 	.ENDM
                 
                 	.MACRO __PUTW1MN
                 	STS  @0+(@1),R30
                 	STS  @0+(@1)+1,R31
                 	.ENDM
                 
                 	.MACRO __PUTD1MN
                 	STS  @0+(@1),R30
                 	STS  @0+(@1)+1,R31
                 	STS  @0+(@1)+2,R22
                 	STS  @0+(@1)+3,R23
                 	.ENDM
                 
                 	.MACRO __PUTB1EN
                 	LDI  R26,LOW(@0+(@1))
                 	LDI  R27,HIGH(@0+(@1))
                 	CALL __EEPROMWRB
                 	.ENDM
                 
                 	.MACRO __PUTW1EN
                 	LDI  R26,LOW(@0+(@1))
                 	LDI  R27,HIGH(@0+(@1))
                 	CALL __EEPROMWRW
                 	.ENDM
                 
                 	.MACRO __PUTD1EN
                 	LDI  R26,LOW(@0+(@1))
                 	LDI  R27,HIGH(@0+(@1))
                 	CALL __EEPROMWRD
                 	.ENDM
                 
                 	.MACRO __PUTBR0MN
                 	STS  @0+(@1),R0
                 	.ENDM
                 
                 	.MACRO __PUTBMRN
                 	STS  @0+(@1),R@2
                 	.ENDM
                 
                 	.MACRO __PUTWMRN
                 	STS  @0+(@1),R@2
                 	STS  @0+(@1)+1,R@3
                 	.ENDM
                 
                 	.MACRO __PUTBZR
                 	STD  Z+@1,R@0
                 	.ENDM
                 
                 	.MACRO __PUTWZR
                 	STD  Z+@2,R@0
                 	STD  Z+@2+1,R@1
                 	.ENDM
                 
                 	.MACRO __GETW1R
                 	MOV  R30,R@0
                 	MOV  R31,R@1
                 	.ENDM
                 
                 	.MACRO __GETW2R
                 	MOV  R26,R@0
                 	MOV  R27,R@1
                 	.ENDM
                 
                 	.MACRO __GETWRN
                 	LDI  R@0,LOW(@2)
                 	LDI  R@1,HIGH(@2)
                 	.ENDM
                 
                 	.MACRO __PUTW1R
                 	MOV  R@0,R30
                 	MOV  R@1,R31
                 	.ENDM
                 
                 	.MACRO __PUTW2R
                 	MOV  R@0,R26
                 	MOV  R@1,R27
                 	.ENDM
                 
                 	.MACRO __ADDWRN
                 	SUBI R@0,LOW(-@2)
                 	SBCI R@1,HIGH(-@2)
                 	.ENDM
                 
                 	.MACRO __ADDWRR
                 	ADD  R@0,R@2
                 	ADC  R@1,R@3
                 	.ENDM
                 
                 	.MACRO __SUBWRN
                 	SUBI R@0,LOW(@2)
                 	SBCI R@1,HIGH(@2)
                 	.ENDM
                 
                 	.MACRO __SUBWRR
                 	SUB  R@0,R@2
                 	SBC  R@1,R@3
                 	.ENDM
                 
                 	.MACRO __ANDWRN
                 	ANDI R@0,LOW(@2)
                 	ANDI R@1,HIGH(@2)
                 	.ENDM
                 
                 	.MACRO __ANDWRR
                 	AND  R@0,R@2
                 	AND  R@1,R@3
                 	.ENDM
                 
                 	.MACRO __ORWRN
                 	ORI  R@0,LOW(@2)
                 	ORI  R@1,HIGH(@2)
                 	.ENDM
                 
                 	.MACRO __ORWRR
                 	OR   R@0,R@2
                 	OR   R@1,R@3
                 	.ENDM
                 
                 	.MACRO __EORWRR
                 	EOR  R@0,R@2
                 	EOR  R@1,R@3
                 	.ENDM
                 
                 	.MACRO __GETWRS
                 	LDD  R@0,Y+@2
                 	LDD  R@1,Y+@2+1
                 	.ENDM
                 
                 	.MACRO __PUTBSR
                 	STD  Y+@1,R@0
                 	.ENDM
                 
                 	.MACRO __PUTWSR
                 	STD  Y+@2,R@0
                 	STD  Y+@2+1,R@1
                 	.ENDM
                 
                 	.MACRO __MOVEWRR
                 	MOV  R@0,R@2
                 	MOV  R@1,R@3
                 	.ENDM
                 
                 	.MACRO __INWR
                 	IN   R@0,@2
                 	IN   R@1,@2+1
                 	.ENDM
                 
                 	.MACRO __OUTWR
                 	OUT  @2+1,R@1
                 	OUT  @2,R@0
                 	.ENDM
                 
                 	.MACRO __CALL1MN
                 	LDS  R30,@0+(@1)
                 	LDS  R31,@0+(@1)+1
                 	ICALL
                 	.ENDM
                 
                 	.MACRO __CALL1FN
                 	LDI  R30,LOW(2*@0+(@1))
                 	LDI  R31,HIGH(2*@0+(@1))
                 	CALL __GETW1PF
                 	ICALL
                 	.ENDM
                 
                 	.MACRO __CALL2EN
                 	PUSH R26
                 	PUSH R27
                 	LDI  R26,LOW(@0+(@1))
                 	LDI  R27,HIGH(@0+(@1))
                 	CALL __EEPROMRDW
                 	POP  R27
                 	POP  R26
                 	ICALL
                 	.ENDM
                 
                 	.MACRO __CALL2EX
                 	SUBI R26,LOW(-@0)
                 	SBCI R27,HIGH(-@0)
                 	CALL __EEPROMRDD
                 	ICALL
                 	.ENDM
                 
                 	.MACRO __GETW1STACK
                 	IN   R30,SPL
                 	IN   R31,SPH
                 	ADIW R30,@0+1
                 	LD   R0,Z+
                 	LD   R31,Z
                 	MOV  R30,R0
                 	.ENDM
                 
                 	.MACRO __GETD1STACK
                 	IN   R30,SPL
                 	IN   R31,SPH
                 	ADIW R30,@0+1
                 	LD   R0,Z+
                 	LD   R1,Z+
                 	LD   R22,Z
                 	MOVW R30,R0
                 	.ENDM
                 
                 	.MACRO __NBST
                 	BST  R@0,@1
                 	IN   R30,SREG
                 	LDI  R31,0x40
                 	EOR  R30,R31
                 	OUT  SREG,R30
                 	.ENDM
                 
                 
                 	.MACRO __PUTB1SN
                 	LDD  R26,Y+@0
                 	LDD  R27,Y+@0+1
                 	SUBI R26,LOW(-@1)
                 	SBCI R27,HIGH(-@1)
                 	ST   X,R30
                 	.ENDM
                 
                 	.MACRO __PUTW1SN
                 	LDD  R26,Y+@0
                 	LDD  R27,Y+@0+1
                 	SUBI R26,LOW(-@1)
                 	SBCI R27,HIGH(-@1)
                 	ST   X+,R30
                 	ST   X,R31
                 	.ENDM
                 
                 	.MACRO __PUTD1SN
                 	LDD  R26,Y+@0
                 	LDD  R27,Y+@0+1
                 	SUBI R26,LOW(-@1)
                 	SBCI R27,HIGH(-@1)
                 	CALL __PUTDP1
                 	.ENDM
                 
                 	.MACRO __PUTB1SNS
                 	LDD  R26,Y+@0
                 	LDD  R27,Y+@0+1
                 	ADIW R26,@1
                 	ST   X,R30
                 	.ENDM
                 
                 	.MACRO __PUTW1SNS
                 	LDD  R26,Y+@0
                 	LDD  R27,Y+@0+1
                 	ADIW R26,@1
                 	ST   X+,R30
                 	ST   X,R31
                 	.ENDM
                 
                 	.MACRO __PUTD1SNS
                 	LDD  R26,Y+@0
                 	LDD  R27,Y+@0+1
                 	ADIW R26,@1
                 	CALL __PUTDP1
                 	.ENDM
                 
                 	.MACRO __PUTB1PMN
                 	LDS  R26,@0
                 	LDS  R27,@0+1
                 	SUBI R26,LOW(-@1)
                 	SBCI R27,HIGH(-@1)
                 	ST   X,R30
                 	.ENDM
                 
                 	.MACRO __PUTW1PMN
                 	LDS  R26,@0
                 	LDS  R27,@0+1
                 	SUBI R26,LOW(-@1)
                 	SBCI R27,HIGH(-@1)
                 	ST   X+,R30
                 	ST   X,R31
                 	.ENDM
                 
                 	.MACRO __PUTD1PMN
                 	LDS  R26,@0
                 	LDS  R27,@0+1
                 	SUBI R26,LOW(-@1)
                 	SBCI R27,HIGH(-@1)
                 	CALL __PUTDP1
                 	.ENDM
                 
                 	.MACRO __PUTB1PMNS
                 	LDS  R26,@0
                 	LDS  R27,@0+1
                 	ADIW R26,@1
                 	ST   X,R30
                 	.ENDM
                 
                 	.MACRO __PUTW1PMNS
                 	LDS  R26,@0
                 	LDS  R27,@0+1
                 	ADIW R26,@1
                 	ST   X+,R30
                 	ST   X,R31
                 	.ENDM
                 
                 	.MACRO __PUTD1PMNS
                 	LDS  R26,@0
                 	LDS  R27,@0+1
                 	ADIW R26,@1
                 	CALL __PUTDP1
                 	.ENDM
                 
                 	.MACRO __PUTB1RN
                 	MOVW R26,R@0
                 	SUBI R26,LOW(-@1)
                 	SBCI R27,HIGH(-@1)
                 	ST   X,R30
                 	.ENDM
                 
                 	.MACRO __PUTW1RN
                 	MOVW R26,R@0
                 	SUBI R26,LOW(-@1)
                 	SBCI R27,HIGH(-@1)
                 	ST   X+,R30
                 	ST   X,R31
                 	.ENDM
                 
                 	.MACRO __PUTD1RN
                 	MOVW R26,R@0
                 	SUBI R26,LOW(-@1)
                 	SBCI R27,HIGH(-@1)
                 	CALL __PUTDP1
                 	.ENDM
                 
                 	.MACRO __PUTB1RNS
                 	MOVW R26,R@0
                 	ADIW R26,@1
                 	ST   X,R30
                 	.ENDM
                 
                 	.MACRO __PUTW1RNS
                 	MOVW R26,R@0
                 	ADIW R26,@1
                 	ST   X+,R30
                 	ST   X,R31
                 	.ENDM
                 
                 	.MACRO __PUTD1RNS
                 	MOVW R26,R@0
                 	ADIW R26,@1
                 	CALL __PUTDP1
                 	.ENDM
                 
                 	.MACRO __PUTB1RON
                 	MOV  R26,R@0
                 	MOV  R27,R@1
                 	SUBI R26,LOW(-@2)
                 	SBCI R27,HIGH(-@2)
                 	ST   X,R30
                 	.ENDM
                 
                 	.MACRO __PUTW1RON
                 	MOV  R26,R@0
                 	MOV  R27,R@1
                 	SUBI R26,LOW(-@2)
                 	SBCI R27,HIGH(-@2)
                 	ST   X+,R30
                 	ST   X,R31
                 	.ENDM
                 
                 	.MACRO __PUTD1RON
                 	MOV  R26,R@0
                 	MOV  R27,R@1
                 	SUBI R26,LOW(-@2)
                 	SBCI R27,HIGH(-@2)
                 	CALL __PUTDP1
                 	.ENDM
                 
                 	.MACRO __PUTB1RONS
                 	MOV  R26,R@0
                 	MOV  R27,R@1
                 	ADIW R26,@2
                 	ST   X,R30
                 	.ENDM
                 
                 	.MACRO __PUTW1RONS
                 	MOV  R26,R@0
                 	MOV  R27,R@1
                 	ADIW R26,@2
                 	ST   X+,R30
                 	ST   X,R31
                 	.ENDM
                 
                 	.MACRO __PUTD1RONS
                 	MOV  R26,R@0
                 	MOV  R27,R@1
                 	ADIW R26,@2
                 	CALL __PUTDP1
                 	.ENDM
                 
                 
                 	.MACRO __GETB1SX
                 	MOVW R30,R28
                 	SUBI R30,LOW(-@0)
                 	SBCI R31,HIGH(-@0)
                 	LD   R30,Z
                 	.ENDM
                 
                 	.MACRO __GETB1HSX
                 	MOVW R30,R28
                 	SUBI R30,LOW(-@0)
                 	SBCI R31,HIGH(-@0)
                 	LD   R31,Z
                 	.ENDM
                 
                 	.MACRO __GETW1SX
                 	MOVW R30,R28
                 	SUBI R30,LOW(-@0)
                 	SBCI R31,HIGH(-@0)
                 	LD   R0,Z+
                 	LD   R31,Z
                 	MOV  R30,R0
                 	.ENDM
                 
                 	.MACRO __GETD1SX
                 	MOVW R30,R28
                 	SUBI R30,LOW(-@0)
                 	SBCI R31,HIGH(-@0)
                 	LD   R0,Z+
                 	LD   R1,Z+
                 	LD   R22,Z+
                 	LD   R23,Z
                 	MOVW R30,R0
                 	.ENDM
                 
                 	.MACRO __GETB2SX
                 	MOVW R26,R28
                 	SUBI R26,LOW(-@0)
                 	SBCI R27,HIGH(-@0)
                 	LD   R26,X
                 	.ENDM
                 
                 	.MACRO __GETW2SX
                 	MOVW R26,R28
                 	SUBI R26,LOW(-@0)
                 	SBCI R27,HIGH(-@0)
                 	LD   R0,X+
                 	LD   R27,X
                 	MOV  R26,R0
                 	.ENDM
                 
                 	.MACRO __GETD2SX
                 	MOVW R26,R28
                 	SUBI R26,LOW(-@0)
                 	SBCI R27,HIGH(-@0)
                 	LD   R0,X+
                 	LD   R1,X+
                 	LD   R24,X+
                 	LD   R25,X
                 	MOVW R26,R0
                 	.ENDM
                 
                 	.MACRO __GETBRSX
                 	MOVW R30,R28
                 	SUBI R30,LOW(-@1)
                 	SBCI R31,HIGH(-@1)
                 	LD   R@0,Z
                 	.ENDM
                 
                 	.MACRO __GETWRSX
                 	MOVW R30,R28
                 	SUBI R30,LOW(-@2)
                 	SBCI R31,HIGH(-@2)
                 	LD   R@0,Z+
                 	LD   R@1,Z
                 	.ENDM
                 
                 	.MACRO __GETBRSX2
                 	MOVW R26,R28
                 	SUBI R26,LOW(-@1)
                 	SBCI R27,HIGH(-@1)
                 	LD   R@0,X
                 	.ENDM
                 
                 	.MACRO __GETWRSX2
                 	MOVW R26,R28
                 	SUBI R26,LOW(-@2)
                 	SBCI R27,HIGH(-@2)
                 	LD   R@0,X+
                 	LD   R@1,X
                 	.ENDM
                 
                 	.MACRO __LSLW8SX
                 	MOVW R30,R28
                 	SUBI R30,LOW(-@0)
                 	SBCI R31,HIGH(-@0)
                 	LD   R31,Z
                 	CLR  R30
                 	.ENDM
                 
                 	.MACRO __PUTB1SX
                 	MOVW R26,R28
                 	SUBI R26,LOW(-@0)
                 	SBCI R27,HIGH(-@0)
                 	ST   X,R30
                 	.ENDM
                 
                 	.MACRO __PUTW1SX
                 	MOVW R26,R28
                 	SUBI R26,LOW(-@0)
                 	SBCI R27,HIGH(-@0)
                 	ST   X+,R30
                 	ST   X,R31
                 	.ENDM
                 
                 	.MACRO __PUTD1SX
                 	MOVW R26,R28
                 	SUBI R26,LOW(-@0)
                 	SBCI R27,HIGH(-@0)
                 	ST   X+,R30
                 	ST   X+,R31
                 	ST   X+,R22
                 	ST   X,R23
                 	.ENDM
                 
                 	.MACRO __CLRW1SX
                 	MOVW R26,R28
                 	SUBI R26,LOW(-@0)
                 	SBCI R27,HIGH(-@0)
                 	ST   X+,R30
                 	ST   X,R30
                 	.ENDM
                 
                 	.MACRO __CLRD1SX
                 	MOVW R26,R28
                 	SUBI R26,LOW(-@0)
                 	SBCI R27,HIGH(-@0)
                 	ST   X+,R30
                 	ST   X+,R30
                 	ST   X+,R30
                 	ST   X,R30
                 	.ENDM
                 
                 	.MACRO __PUTB2SX
                 	MOVW R30,R28
                 	SUBI R30,LOW(-@0)
                 	SBCI R31,HIGH(-@0)
                 	ST   Z,R26
                 	.ENDM
                 
                 	.MACRO __PUTW2SX
                 	MOVW R30,R28
                 	SUBI R30,LOW(-@0)
                 	SBCI R31,HIGH(-@0)
                 	ST   Z+,R26
                 	ST   Z,R27
                 	.ENDM
                 
                 	.MACRO __PUTD2SX
                 	MOVW R30,R28
                 	SUBI R30,LOW(-@0)
                 	SBCI R31,HIGH(-@0)
                 	ST   Z+,R26
                 	ST   Z+,R27
                 	ST   Z+,R24
                 	ST   Z,R25
                 	.ENDM
                 
                 	.MACRO __PUTBSRX
                 	MOVW R30,R28
                 	SUBI R30,LOW(-@1)
                 	SBCI R31,HIGH(-@1)
                 	ST   Z,R@0
                 	.ENDM
                 
                 	.MACRO __PUTWSRX
                 	MOVW R30,R28
                 	SUBI R30,LOW(-@2)
                 	SBCI R31,HIGH(-@2)
                 	ST   Z+,R@0
                 	ST   Z,R@1
                 	.ENDM
                 
                 	.MACRO __PUTB1SNX
                 	MOVW R26,R28
                 	SUBI R26,LOW(-@0)
                 	SBCI R27,HIGH(-@0)
                 	LD   R0,X+
                 	LD   R27,X
                 	MOV  R26,R0
                 	SUBI R26,LOW(-@1)
                 	SBCI R27,HIGH(-@1)
                 	ST   X,R30
                 	.ENDM
                 
                 	.MACRO __PUTW1SNX
                 	MOVW R26,R28
                 	SUBI R26,LOW(-@0)
                 	SBCI R27,HIGH(-@0)
                 	LD   R0,X+
                 	LD   R27,X
                 	MOV  R26,R0
                 	SUBI R26,LOW(-@1)
                 	SBCI R27,HIGH(-@1)
                 	ST   X+,R30
                 	ST   X,R31
                 	.ENDM
                 
                 	.MACRO __PUTD1SNX
                 	MOVW R26,R28
                 	SUBI R26,LOW(-@0)
                 	SBCI R27,HIGH(-@0)
                 	LD   R0,X+
                 	LD   R27,X
                 	MOV  R26,R0
                 	SUBI R26,LOW(-@1)
                 	SBCI R27,HIGH(-@1)
                 	ST   X+,R30
                 	ST   X+,R31
                 	ST   X+,R22
                 	ST   X,R23
                 	.ENDM
                 
                 	.MACRO __MULBRR
                 	MULS R@0,R@1
                 	MOVW R30,R0
                 	.ENDM
                 
                 	.MACRO __MULBRRU
                 	MUL  R@0,R@1
                 	MOVW R30,R0
                 	.ENDM
                 
                 	.MACRO __MULBRR0
                 	MULS R@0,R@1
                 	.ENDM
                 
                 	.MACRO __MULBRRU0
                 	MUL  R@0,R@1
                 	.ENDM
                 
                 	.MACRO __MULBNWRU
                 	LDI  R26,@2
                 	MUL  R26,R@0
                 	MOVW R30,R0
                 	MUL  R26,R@1
                 	ADD  R31,R0
                 	.ENDM
                 
                 ;NAME DEFINITIONS FOR GLOBAL VARIABLES ALLOCATED TO REGISTERS
                 	.DEF _t0_cnt0=R7
                 	.DEF _t0_cnt1=R6
                 	.DEF _t0_cnt2=R9
                 	.DEF _t0_cnt3=R8
                 	.DEF _t0_cnt4=R11
                 	.DEF _cnt_ind=R10
                 	.DEF _adc_cnt0=R13
                 	.DEF _adc_cnt1=R12
                 
                 ;GPIOR0-GPIOR2 INITIALIZATION VALUES
                 	.EQU __GPIOR0_INIT=0x00
                 	.EQU __GPIOR1_INIT=0x00
                 	.EQU __GPIOR2_INIT=0x00
                 
                 	.CSEG
                 	.ORG 0x00
                 
                 ;START OF CODE MARKER
                 __START_OF_CODE:
                 
                 ;INTERRUPT VECTORS
000000 940c 0088 	JMP  __RESET
000002 940c 0000 	JMP  0x00
000004 940c 0000 	JMP  0x00
000006 940c 0000 	JMP  0x00
000008 940c 0000 	JMP  0x00
00000a 940c 0000 	JMP  0x00
00000c 940c 0000 	JMP  0x00
00000e 940c 0000 	JMP  0x00
000010 940c 0000 	JMP  0x00
000012 940c 0000 	JMP  0x00
000014 940c 0000 	JMP  0x00
000016 940c 0000 	JMP  0x00
000018 940c 0000 	JMP  0x00
00001a 940c 0000 	JMP  0x00
00001c 940c 0000 	JMP  0x00
00001e 940c 0000 	JMP  0x00
000020 940c 1279 	JMP  _timer0_ovf_isr
000022 940c 0000 	JMP  0x00
000024 940c 0000 	JMP  0x00
000026 940c 0000 	JMP  0x00
000028 940c 0000 	JMP  0x00
00002a 940c 0000 	JMP  0x00
00002c 940c 0000 	JMP  0x00
00002e 940c 0000 	JMP  0x00
000030 940c 0000 	JMP  0x00
000032 940c 0000 	JMP  0x00
                 
                 _tbl10_G100:
000034 2710
000035 03e8
000036 0064
000037 000a      	.DB  0x10,0x27,0xE8,0x3,0x64,0x0,0xA,0x0
000038 0001      	.DB  0x1,0x0
                 _tbl16_G100:
000039 1000
00003a 0100
00003b 0010
00003c 0001      	.DB  0x0,0x10,0x0,0x1,0x10,0x0,0x1,0x0
                 
                 _0x3:
00003d 0000
00003e 0048
00003f 007d
000040 00b1      	.DB  0x0,0x0,0x48,0x0,0x7D,0x0,0xB1,0x0
000041 00d9
000042 00fe
000043 011e
000044 013e      	.DB  0xD9,0x0,0xFE,0x0,0x1E,0x1,0x3E,0x1
000045 015a
000046 0174
000047 0190
000048 01ab      	.DB  0x5A,0x1,0x74,0x1,0x90,0x1,0xAB,0x1
000049 01c5
00004a 01de
00004b 01f6
00004c 020d      	.DB  0xC5,0x1,0xDE,0x1,0xF6,0x1,0xD,0x2
                 _0x4:
00004d 0303
00004e 0303      	.DB  0x3,0x3,0x3,0x3
                 _0x5:
E:\USERS\PAL\DEVICES\fat42_dev\BPS1000.04_m168_pcbfromoleg\SOFT_V10+\Release\List\BPS.asm(1154): warning: .cseg .db misalignment - padding zero byte
00004f 001e      	.DB  0x1E
                 _0x6:
E:\USERS\PAL\DEVICES\fat42_dev\BPS1000.04_m168_pcbfromoleg\SOFT_V10+\Release\List\BPS.asm(1156): warning: .cseg .db misalignment - padding zero byte
000050 0032      	.DB  0x32
                 _0x7:
E:\USERS\PAL\DEVICES\fat42_dev\BPS1000.04_m168_pcbfromoleg\SOFT_V10+\Release\List\BPS.asm(1158): warning: .cseg .db misalignment - padding zero byte
000051 0032      	.DB  0x32
                 _0x8:
000052 02bc      	.DB  0xBC,0x2
                 _0x46:
E:\USERS\PAL\DEVICES\fat42_dev\BPS1000.04_m168_pcbfromoleg\SOFT_V10+\Release\List\BPS.asm(1162): warning: .cseg .db misalignment - padding zero byte
000053 007b      	.DB  0x7B
                 _0x20003:
E:\USERS\PAL\DEVICES\fat42_dev\BPS1000.04_m168_pcbfromoleg\SOFT_V10+\Release\List\BPS.asm(1164): warning: .cseg .db misalignment - padding zero byte
000054 0019      	.DB  0x19
                 _0x20004:
E:\USERS\PAL\DEVICES\fat42_dev\BPS1000.04_m168_pcbfromoleg\SOFT_V10+\Release\List\BPS.asm(1166): warning: .cseg .db misalignment - padding zero byte
000055 000a      	.DB  0xA
                 _0x20005:
E:\USERS\PAL\DEVICES\fat42_dev\BPS1000.04_m168_pcbfromoleg\SOFT_V10+\Release\List\BPS.asm(1168): warning: .cseg .db misalignment - padding zero byte
000056 0007      	.DB  0x7
                 _0x20006:
000057 07e8      	.DB  0xE8,0x7
                 _0x20007:
E:\USERS\PAL\DEVICES\fat42_dev\BPS1000.04_m168_pcbfromoleg\SOFT_V10+\Release\List\BPS.asm(1172): warning: .cseg .db misalignment - padding zero byte
000058 0001      	.DB  0x1
                 _0x20008:
E:\USERS\PAL\DEVICES\fat42_dev\BPS1000.04_m168_pcbfromoleg\SOFT_V10+\Release\List\BPS.asm(1174): warning: .cseg .db misalignment - padding zero byte
000059 0012      	.DB  0x12
                 _0x20A0060:
E:\USERS\PAL\DEVICES\fat42_dev\BPS1000.04_m168_pcbfromoleg\SOFT_V10+\Release\List\BPS.asm(1176): warning: .cseg .db misalignment - padding zero byte
00005a 0001      	.DB  0x1
                 _0x20A0000:
00005b 4e2d
00005c 4e41
00005d 4900
00005e 464e      	.DB  0x2D,0x4E,0x41,0x4E,0x0,0x49,0x4E,0x46
E:\USERS\PAL\DEVICES\fat42_dev\BPS1000.04_m168_pcbfromoleg\SOFT_V10+\Release\List\BPS.asm(1179): warning: .cseg .db misalignment - padding zero byte
00005f 0000      	.DB  0x0
                 
                 __GLOBAL_INI_TBL:
000060 0004      	.DW  0x04
000061 02cd      	.DW  _led_green
000062 009a      	.DW  _0x4*2
                 
000063 0001      	.DW  0x01
000064 02d1      	.DW  _led_drv_cnt
000065 009e      	.DW  _0x5*2
                 
000066 0001      	.DW  0x01
000067 02e1      	.DW  _pwm_u
000068 00a0      	.DW  _0x6*2
                 
000069 0001      	.DW  0x01
00006a 02e3      	.DW  _pwm_i
00006b 00a2      	.DW  _0x7*2
                 
00006c 0002      	.DW  0x02
00006d 0320      	.DW  _volum_u_main_
00006e 00a4      	.DW  _0x8*2
                 
00006f 0001      	.DW  0x01
000070 039a      	.DW  _rotor_int
000071 00a6      	.DW  _0x46*2
                 
000072 0001      	.DW  0x01
000073 0200      	.DW  _HARDVARE_VERSION
000074 00a8      	.DW  _0x20003*2
                 
000075 0001      	.DW  0x01
000076 0202      	.DW  _SOFT_VERSION
000077 00aa      	.DW  _0x20004*2
                 
000078 0001      	.DW  0x01
000079 0204      	.DW  _BUILD
00007a 00ac      	.DW  _0x20005*2
                 
00007b 0002      	.DW  0x02
00007c 0206      	.DW  _BUILD_YEAR
00007d 00ae      	.DW  _0x20006*2
                 
00007e 0001      	.DW  0x01
00007f 0208      	.DW  _BUILD_MONTH
000080 00b0      	.DW  _0x20007*2
                 
000081 0001      	.DW  0x01
000082 020a      	.DW  _BUILD_DAY
000083 00b2      	.DW  _0x20008*2
                 
000084 0001      	.DW  0x01
000085 039d      	.DW  __seed_G105
000086 00b4      	.DW  _0x20A0060*2
                 
                 _0xFFFFFFFF:
000087 0000      	.DW  0
                 
                 #define __GLOBAL_INI_TBL_PRESENT 1
                 
                 __RESET:
000088 94f8      	CLI
000089 27ee      	CLR  R30
00008a bbef      	OUT  EECR,R30
                 
                 ;INTERRUPT VECTORS ARE PLACED
                 ;AT THE START OF FLASH
00008b e0f1      	LDI  R31,1
00008c bff5      	OUT  MCUCR,R31
00008d bfe5      	OUT  MCUCR,R30
                 
                 ;DISABLE WATCHDOG
00008e e1f8      	LDI  R31,0x18
00008f 95a8      	WDR
000090 b7a4      	IN   R26,MCUSR
000091 7fa7      	CBR  R26,8
000092 bfa4      	OUT  MCUSR,R26
000093 93f0 0060 	STS  WDTCSR,R31
000095 93e0 0060 	STS  WDTCSR,R30
                 
                 ;CLEAR R2-R14
000097 e08d      	LDI  R24,(14-2)+1
000098 e0a2      	LDI  R26,2
000099 27bb      	CLR  R27
                 __CLEAR_REG:
00009a 93ed      	ST   X+,R30
00009b 958a      	DEC  R24
00009c f7e9      	BRNE __CLEAR_REG
                 
                 ;CLEAR SRAM
00009d e080      	LDI  R24,LOW(__CLEAR_SRAM_SIZE)
00009e e094      	LDI  R25,HIGH(__CLEAR_SRAM_SIZE)
00009f e0a0      	LDI  R26,LOW(__SRAM_START)
0000a0 e0b1      	LDI  R27,HIGH(__SRAM_START)
                 __CLEAR_SRAM:
0000a1 93ed      	ST   X+,R30
0000a2 9701      	SBIW R24,1
0000a3 f7e9      	BRNE __CLEAR_SRAM
                 
                 ;GLOBAL VARIABLES INITIALIZATION
0000a4 ece0      	LDI  R30,LOW(__GLOBAL_INI_TBL*2)
0000a5 e0f0      	LDI  R31,HIGH(__GLOBAL_INI_TBL*2)
                 __GLOBAL_INI_NEXT:
0000a6 9185      	LPM  R24,Z+
0000a7 9195      	LPM  R25,Z+
0000a8 9700      	SBIW R24,0
0000a9 f061      	BREQ __GLOBAL_INI_END
0000aa 91a5      	LPM  R26,Z+
0000ab 91b5      	LPM  R27,Z+
0000ac 9005      	LPM  R0,Z+
0000ad 9015      	LPM  R1,Z+
0000ae 01bf      	MOVW R22,R30
0000af 01f0      	MOVW R30,R0
                 __GLOBAL_INI_LOOP:
0000b0 9005      	LPM  R0,Z+
0000b1 920d      	ST   X+,R0
0000b2 9701      	SBIW R24,1
0000b3 f7e1      	BRNE __GLOBAL_INI_LOOP
0000b4 01fb      	MOVW R30,R22
0000b5 cff0      	RJMP __GLOBAL_INI_NEXT
                 __GLOBAL_INI_END:
                 
                 ;GPIOR0-GPIOR2 INITIALIZATION
0000b6 e0e0      	LDI  R30,__GPIOR0_INIT
0000b7 bbee      	OUT  GPIOR0,R30
                 	;__GPIOR1_INIT = __GPIOR0_INIT
0000b8 bdea      	OUT  GPIOR1,R30
                 	;__GPIOR2_INIT = __GPIOR0_INIT
0000b9 bdeb      	OUT  GPIOR2,R30
                 
                 ;HARDWARE STACK POINTER INITIALIZATION
0000ba efef      	LDI  R30,LOW(__SRAM_END-__HEAP_SIZE)
0000bb bfed      	OUT  SPL,R30
0000bc e0e4      	LDI  R30,HIGH(__SRAM_END-__HEAP_SIZE)
0000bd bfee      	OUT  SPH,R30
                 
                 ;DATA STACK POINTER INITIALIZATION
0000be e0c0      	LDI  R28,LOW(__SRAM_START+__DSTACK_SIZE)
0000bf e0d2      	LDI  R29,HIGH(__SRAM_START+__DSTACK_SIZE)
                 
0000c0 940c 12b9 	JMP  _main
                 
                 	.ESEG
                 	.ORG 0
                 
                 	.DSEG
                 	.ORG 0x200
                 
                 	.CSEG
                 ;#define F_REF 8000000L
                 ;#define F_COMP 10000L
                 ;#include <mega168.h>
                 	#ifndef __SLEEP_DEFINED__
                 	#define __SLEEP_DEFINED__
                 	.EQU __se_bit=0x01
                 	.EQU __sm_mask=0x0E
                 	.EQU __sm_adc_noise_red=0x02
                 	.EQU __sm_powerdown=0x04
                 	.EQU __sm_powersave=0x06
                 	.EQU __sm_standby=0x0C
                 	.SET power_ctrl_reg=smcr
                 	#endif
                 ;#include "mega168_bits.h"
                 ;#include <delay.h>
                 ;#include "curr_version.h"
                 ;
                 ;//#define KAN_XTAL	8
                 ;#define KAN_XTAL	10
                 ;//#define KAN_XTAL	20
                 ;#include "cmd.c"
                 ;//-----------------------------------------------
                 ;// Символы передач
                 ;#define REGU 0xf5
                 ;#define REGI 0xf6
                 ;#define GetTemp 0xfc
                 ;#define TVOL0 0x75
                 ;#define TVOL1 0x76
                 ;#define TVOL2 0x77
                 ;#define TTEMPER	0x7c
                 ;#define CSTART  0x1a
                 ;#define CMND	0x16
                 ;#define Blok_flip	0x57
                 ;#define END 	0x0A
                 ;#define QWEST	0x25
                 ;#define IM	0x52
                 ;#define Add_kf 0x60
                 ;#define Sub_kf 0x61
                 ;#define ALRM_RES 0x63
                 ;#define VENT_RES 0x64
                 ;//#define Zero_kf2 0x64
                 ;#define MEM_KF 0x62
                 ;#define MEM_KF1 0x26
                 ;#define MEM_KF4 0x29
                 ;#define MEM_KF2 0x27
                 ;#define BLKON 0x80
                 ;#define BLKOFF 0x81
                 ;//#define Put_reg 0x90
                 ;#define GETID 0x90
                 ;#define PUTID 0x91
                 ;#define PUTTM1 0xDA
                 ;#define PUTTM2 0xDB
                 ;#define PUTTM3 0xDC
                 ;#define PUTTM 0xDE
                 ;#define PUTTM31 	0xDD
                 ;#define PUTTM32 	0xD5
                 ;#define GETTM 0xED
                 ;#define GETTM1 	0xEb
                 ;#define GETTM2	0xEc
                 ;#define KLBR 0xEE
                 ;#define XMAX 25
                 ;
                 ;#include <stdio.h>
                 ;#include <math.h>
                 ;
                 ;#define ON 0x55
                 ;#define OFF 0xaa
                 ;
                 ;#define BLOCK_INIT  DDRD.4=1;
                 ;#define BLOCK_ON 	{PORTD.4=1;bVENT_BLOCK=1;}
                 ;#define BLOCK_OFF 	{PORTD.4=0;bVENT_BLOCK=0;}
                 ;#define BLOCK_IS_ON (PIND.4==1)
                 ;
                 ;#define _220_
                 ;//#define _24_
                 ;
                 ;bit bJP; //джампер одет
                 ;bit b100Hz;
                 ;bit b33Hz;
                 ;bit b10Hz;
                 ;bit b5Hz;
                 ;bit b1Hz;
                 ;bit bFl_;
                 ;bit bBL;
                 ;bit bBL_IPS=0;
                 ;
                 ;char t0_cnt0,t0_cnt1,t0_cnt2,t0_cnt3,t0_cnt4,cnt_ind,adc_cnt0,adc_cnt1;
                 ;/*bit l_but;	//идет длинное нажатие на кнопку
                 ;bit n_but=0;     //произошло нажатие
                 ;bit speed;	//разрешение ускорения перебора
                 ;bit bFl_;
                 ;
                 ;bit zero_on;
                 ;bit bFr_ch=0;
                 ;bit bR;
                 ;bit bT1;
                 ;
                 ;enum char {iH,iT,iPrl,iK,iSet}ind;
                 ;signed char sub_ind;
                 ;unsigned int adc_bank[4][16],adc_bank_[4];
                 ;bit bCh;*/
                 ;
                 ;signed int tabl[]={0/*0*/,72/*40*/,125/*80*/,177/*120*/,217/*160*/,254/*200*/,286/*240*/,318/*280*/,346/*320*/,372/*360* ...
                 
                 	.DSEG
                 ;
                 ;eeprom int freq;
                 ;eeprom char stereo,p_out;
                 ;
                 ;char lcd_flash0=0;
                 ;char lcd_flashx0=0;
                 ;char lcd_flashy0=0;
                 ;//char lcd_flash1=0;
                 ;//char lcd_flashx1=0;
                 ;//char lcd_flashy1=0;
                 ;unsigned char volum;
                 ;eeprom unsigned char volum_ee;
                 ;
                 ;
                 ;int vol_u,vol_i;
                 ;
                 ;unsigned int adc_buff[5][16],adc_buff_[5];
                 ;char adc_cnt,adc_ch;
                 ;
                 ;eeprom signed int K[4][2];
                 ;
                 ;unsigned int I,Un,Ui,Udb;
                 ;signed T;
                 ;signed char Ttr;
                 ;char flags=0; // состояние источника
                 ;// 0 -  если одет джампер то 0, если нет то 1
                 ;// 1 -  авария по Tmax (1-активн.);
                 ;// 2 -  авария по Tsign (1-активн.);
                 ;// 3 -  авария по Umax (1-активн.);
                 ;// 4 -  авария по Umin (1-активн.);
                 ;// 5 -  блокировка извне (1-активн.);
                 ;// 6 -  блокировка извне защит(1-активн.);
                 ;
                 ;char flags_tu; // управляющее слово от хоста
                 ;// 0 -  блокировка, если 1 то заблокировать
                 ;// 1 -  блокировка извне защит(1-активн.);
                 ;
                 ;unsigned int  vol_u_temp,vol_i_temp;
                 ;//Управление светодиодами
                 ;long led_red=0x00000000L;
                 ;long led_green=0x03030303L;
                 ;char led_drv_cnt=30;
                 ;long led_red_buff;
                 ;long led_green_buff;
                 ;char link;
                 ;short link_cnt;
                 ;eeprom signed int Umax_,dU_,tmax_,tsign_;
                 ;signed tsign_cnt,tmax_cnt;
                 ;unsigned int pwm_u=50,pwm_i=50;
                 ;signed umax_cnt,umin_cnt;
                 ;char flags_tu_cnt_on,flags_tu_cnt_off;
                 ;char adr_new,adr_old,adr_temp,adr_cnt;
                 ;//eeprom char adr;
                 ;char cnt_JP0,cnt_JP1;
                 ;enum {jp0,jp1,jp2,jp3} jp_mode;
                 ;int main_cnt1;
                 ;signed _x_,_x__;
                 ;int _x_cnt;
                 ;eeprom signed _x_ee_;
                 ;eeprom int U_AVT_;
                 ;eeprom char U_AVT_ON_;
                 ;
                 ;int main_cnt;
                 ;eeprom char TZAS;
                 ;char plazma;
                 ;int plazma_int[3];
                 ;int adc_ch_2_max,adc_ch_2_min;
                 ;char adc_ch_2_delta;
                 ;char cnt_adc_ch_2_delta;
                 ;char apv_cnt[3];
                 ;int apv_cnt_;
                 ;char bAPV;
                 ;char cnt_apv_off;
                 ;
                 ;eeprom char res_fl,res_fl_;
                 ;char bRES=0;
                 ;char bRES_=0;
                 ;char res_fl_cnt;
                 ;char off_bp_cnt;
                 ;//eeprom char adr_ee;
                 ;
                 ;flash char CONST_ADR[]={0b00000111,0b00000111,0b00000111,0b00000010,0b00000011,0b00000001,0b00000000,0b00000111};
                 ;
                 ;char can_error_cnt;
                 ;
                 ;
                 ;char adr_drv_stat=0;
                 ;char adr[3],adress;
                 ;char adress_error;
                 ;
                 ;enum {bpsIBEP,bpsIPS,bpsIBEP_AVT} bps_class;
                 ;
                 ;eeprom signed short ee_TZAS;
                 ;eeprom signed short ee_Umax;
                 ;eeprom signed short ee_dU;
                 ;eeprom signed short ee_tmax;
                 ;eeprom signed short ee_tsign;
                 ;eeprom signed short ee_U_AVT;
                 ;eeprom int ee_AVT_MODE;			//какой-то переключатель, переключается последним байтом в посылке с MEM_KF
                 ;eeprom signed short ee_DEVICE;	//переключатель, переключается MEM_KF4 или MEM_KF1, MEM_KF4 устанавливает его в 1
                 ;							// и означает что это БПС неибэпный, включается и выключается только по команде,
                 ;							//никакие TZAS, U_AVT не работают
                 ;eeprom short ee_IMAXVENT;
                 ;
                 ;bit bMAIN;
                 ;
                 ;short vent_pwm;
                 ;char bVENT_BLOCK=0;
                 ;signed short plazmaSS;
                 ;char cnt_net_drv;
                 ;
                 ;//Наработка вентилятора
                 ;eeprom unsigned short vent_resurs;
                 ;unsigned short vent_resurs_sec_cnt;
                 ;//#define VENT_RESURS_SEC_IN_HOUR	3600
                 ;#define VENT_RESURS_SEC_IN_HOUR	3600
                 ;unsigned char vent_resurs_buff[4];
                 ;unsigned char vent_resurs_tx_cnt;
                 ;
                 ;eeprom int UU_AVT;
                 ;signed short volum_u_main_=700;
                 ;signed short x[6];
                 ;signed short i_main[6];
                 ;char i_main_flag[6];
                 ;signed short i_main_avg;
                 ;char i_main_num_of_bps;
                 ;signed short i_main_sigma;
                 ;char i_main_bps_cnt[6];
                 ;unsigned short vol_i_temp_avar=0;
                 ;
                 ;//eeprom short AVT_MODE;
                 ;
                 ;#include "can_slave.c"
                 ;#define CS_DDR	DDRB.0
                 ;#define CS	PORTB.0
                 ;#define SPI_PORT_INIT  DDRB|=0b00101100;DDRB.4=0;
                 ;//#define _220_
                 ;//#define _24_
                 ;#include "mcp2510.h"
                 
                 	.CSEG
                 _mcp_reset:
                 ; .FSTART _mcp_reset
0000c2 94f8      	cli
0000c3 940e 138e 	CALL SUBOPT_0x0
0000c5 9a28      	SBI  0x5,0
0000c6 9478      	sei
0000c7 9508      	RET
                 ; .FEND
                 _spi_read:
                 ; .FSTART _spi_read
0000c8 93aa      	ST   -Y,R26
0000c9 931a      	ST   -Y,R17
                 ;	addr -> Y+1
                 ;	temp -> R17
0000ca 94f8      	cli
0000cb 940e 138e 	CALL SUBOPT_0x0
                +
0000cd e18b     +LDI R24 , LOW ( 27 )
                +__DELAY_USB_LOOP :
0000ce 958a     +DEC R24
0000cf f7f1     +BRNE __DELAY_USB_LOOP
                 	__DELAY_USB 27
0000d0 e0a3      	LDI  R26,LOW(3)
0000d1 940e 1395 	CALL SUBOPT_0x1
0000d3 e5a5      	LDI  R26,LOW(85)
0000d4 940e 1385 	CALL _spi
0000d6 2f1e      	MOV  R17,R30
0000d7 9a28      	SBI  0x5,0
0000d8 9478      	sei
0000d9 2fe1      	MOV  R30,R17
0000da 8118      	LDD  R17,Y+0
0000db 9622      	ADIW R28,2
0000dc 9508      	RET
                 ; .FEND
                 _spi_bit_modify:
                 ; .FSTART _spi_bit_modify
0000dd 93aa      	ST   -Y,R26
                 ;	addr -> Y+2
                 ;	mask -> Y+1
                 ;	data -> Y+0
0000de 94f8      	cli
0000df 940e 138e 	CALL SUBOPT_0x0
0000e1 e0a5      	LDI  R26,LOW(5)
0000e2 940e 1385 	CALL _spi
0000e4 81aa      	LDD  R26,Y+2
0000e5 940e 1395 	CALL SUBOPT_0x1
0000e7 81a8      	LD   R26,Y
0000e8 940e 1385 	CALL _spi
0000ea 9a28      	SBI  0x5,0
0000eb 9478      	sei
0000ec c00f      	RJMP _0x20C0005
                 ; .FEND
                 _spi_write:
                 ; .FSTART _spi_write
0000ed 93aa      	ST   -Y,R26
0000ee 931a      	ST   -Y,R17
                 ;	addr -> Y+2
                 ;	in -> Y+1
                 ;	temp -> R17
0000ef 94f8      	cli
0000f0 940e 138e 	CALL SUBOPT_0x0
0000f2 e0a2      	LDI  R26,LOW(2)
0000f3 940e 1385 	CALL _spi
0000f5 81aa      	LDD  R26,Y+2
0000f6 940e 1395 	CALL SUBOPT_0x1
0000f8 9a28      	SBI  0x5,0
0000f9 9478      	sei
0000fa 2fe1      	MOV  R30,R17
0000fb 8118      	LDD  R17,Y+0
                 _0x20C0005:
0000fc 9623      	ADIW R28,3
0000fd 9508      	RET
                 ; .FEND
                 _spi_read_status:
                 ; .FSTART _spi_read_status
0000fe 931a      	ST   -Y,R17
                 ;	temp -> R17
0000ff 94f8      	cli
000100 940e 138e 	CALL SUBOPT_0x0
000102 0000      	nop
000103 0000      	nop
000104 0000      	nop
000105 0000      	nop
000106 0000      	nop
000107 0000      	nop
000108 0000      	nop
000109 0000      	nop
00010a eaa0      	LDI  R26,LOW(160)
00010b 940e 1385 	CALL _spi
00010d e5a5      	LDI  R26,LOW(85)
00010e 940e 1385 	CALL _spi
000110 2f1e      	MOV  R17,R30
000111 9a28      	SBI  0x5,0
000112 9478      	sei
000113 2fe1      	MOV  R30,R17
000114 c0e2      	RJMP _0x20C0004
                 ; .FEND
                 ;	in -> Y+0
                 _spi_rts:
                 ; .FSTART _spi_rts
000115 93aa      	ST   -Y,R26
                 ;	in -> Y+0
000116 94f8      	cli
000117 940e 138e 	CALL SUBOPT_0x0
000119 81e8      	LD   R30,Y
00011a 30e0      	CPI  R30,0
00011b f411      	BRNE _0x3F
00011c e8e1      	LDI  R30,LOW(129)
00011d c009      	RJMP _0x3D3
                 _0x3F:
00011e 81a8      	LD   R26,Y
00011f 30a1      	CPI  R26,LOW(0x1)
000120 f411      	BRNE _0x41
000121 e8e2      	LDI  R30,LOW(130)
000122 c004      	RJMP _0x3D3
                 _0x41:
000123 81a8      	LD   R26,Y
000124 30a2      	CPI  R26,LOW(0x2)
000125 f411      	BRNE _0x43
000126 e8e4      	LDI  R30,LOW(132)
                 _0x3D3:
000127 83e8      	ST   Y,R30
                 _0x43:
000128 81a8      	LD   R26,Y
000129 940e 1385 	CALL _spi
00012b 9a28      	SBI  0x5,0
00012c 9478      	sei
00012d 9621      	ADIW R28,1
00012e 9508      	RET
                 ; .FEND
                 ;	in -> Y+1
                 ;	temp -> R17
                 ;	in -> Y+1
                 ;	temp -> R17
                 ;	in -> Y+1
                 ;	temp -> R17
                 ;	in -> Y+1
                 ;	temp -> R17
                 ;	sidh -> Y+7
                 ;	sidl -> Y+6
                 ;	eid8 -> Y+5
                 ;	eid0 -> Y+4
                 ;	temp -> Y+0
                 ;#include "curr_version.h"
                 ;
                 ;extern flash char Table87[];
                 ;extern flash char Table95[];
                 ;extern void gran(signed int *adr, signed int min, signed int max);
                 ;/*
                 ;
                 ;
                 ;char cob1[10],cib1[20];
                 ;
                 ;char ch_cnt1;
                 ;bit bch_1Hz1;
                 ;bit bADRISON1,bADRISRQWST1;
                 ;char random1[4];
                 ;char tr_buff1[8];
                 ;
                 ;
                 ;
                 ;
                 ;
                 ;char bd1[25];
                 ;*/
                 ;//#define CNF1_init	0b00000100  //tq=500ns   //20MHz
                 ;/*
                 ;#define CNF1_init	0b11000000  //tq=500ns   //8MHz
                 ;#define CNF2_init	0b11110001  //Ps1=7tq,Pr=2tq
                 ;#define CNF3_init	0b00000010  //Ps2=6tq */
                 ;
                 ;#if(KAN_XTAL==8)
                 ;#define CNF1_init	0b11000011  //tq=500ns   //8MHz
                 ;#define CNF2_init	0b11111011  //Ps1=7tq,Pr=2tq
                 ;#define CNF3_init	0b00000010  //Ps2=6tq
                 ;#elif(KAN_XTAL==10)
                 ;#define CNF1_init	0b11000011  //tq=500ns   //10MHz
                 ;#define CNF2_init	0b11111110  //Ps1=7tq,Pr=2tq
                 ;#define CNF3_init	0b00000011  //Ps2=6tq
                 ;#elif(KAN_XTAL==20)
                 ;#define CNF1_init	0b11000111  //tq=500ns   //20MHz
                 ;#define CNF2_init	0b11111110  //Ps1=7tq,Pr=2tq
                 ;#define CNF3_init	0b00000011  //Ps2=6tq
                 ;#endif
                 ;
                 ;char can_st1,can_st_old1;
                 ;char RXBUFF1[40],RXBUFF_1[40],TXBUFF1[40];
                 ;char bR1,bIN1,bOUT11;
                 ;char bR_cnt1,TX_len1;
                 ;char cnt_rcpt1,cnt_trsmt1;
                 ;char bOUT_free1;
                 ;bit bOUT1;
                 ;
                 ;
                 ;char can_out_buff[8][4];
                 ;char can_buff_wr_ptr;
                 ;char can_buff_rd_ptr;
                 ;
                 ;extern void granee(eeprom signed int *adr, signed int min, signed int max);
                 ;signed rotor_int=123;
                 
                 	.DSEG
                 ;//-----------------------------------------------
                 ;void can_transmit1(char data0,char data1,char data2,char data3,char data4,char data5,char data6,char data7)
                 ; 0000 00BB {
                 
                 	.CSEG
                 _can_transmit1:
                 ; .FSTART _can_transmit1
                 ;if((can_buff_wr_ptr<0)||(can_buff_wr_ptr>3))can_buff_wr_ptr=0;
00012f 93aa      	ST   -Y,R26
                 ;	data0 -> Y+7
                 ;	data1 -> Y+6
                 ;	data2 -> Y+5
                 ;	data3 -> Y+4
                 ;	data4 -> Y+3
                 ;	data5 -> Y+2
                 ;	data6 -> Y+1
                 ;	data7 -> Y+0
000130 91a0 0398 	LDS  R26,_can_buff_wr_ptr
000132 30a0      	CPI  R26,0
000133 f010      	BRLO _0x48
000134 30a4      	CPI  R26,LOW(0x4)
000135 f018      	BRLO _0x47
                 _0x48:
000136 e0e0      	LDI  R30,LOW(0)
000137 93e0 0398 	STS  _can_buff_wr_ptr,R30
                 ;
                 ;can_out_buff[0][can_buff_wr_ptr]=data0;
                 _0x47:
000139 91e0 0398 	LDS  R30,_can_buff_wr_ptr
00013b e0f0      	LDI  R31,0
00013c 58e8      	SUBI R30,LOW(-_can_out_buff)
00013d 4ffc      	SBCI R31,HIGH(-_can_out_buff)
00013e 81af      	LDD  R26,Y+7
00013f 83a0      	STD  Z+0,R26
                 ;can_out_buff[1][can_buff_wr_ptr]=data1;
                +
000140 e7ac     +LDI R26 , LOW ( _can_out_buff + ( 4 ) )
000141 e0b3     +LDI R27 , HIGH ( _can_out_buff + ( 4 ) )
                 	__POINTW2MN _can_out_buff,4
000142 940e 139a 	CALL SUBOPT_0x2
000144 81ae      	LDD  R26,Y+6
000145 83a0      	STD  Z+0,R26
                 ;can_out_buff[2][can_buff_wr_ptr]=data2;
                +
000146 e8a0     +LDI R26 , LOW ( _can_out_buff + ( 8 ) )
000147 e0b3     +LDI R27 , HIGH ( _can_out_buff + ( 8 ) )
                 	__POINTW2MN _can_out_buff,8
000148 940e 139a 	CALL SUBOPT_0x2
00014a 81ad      	LDD  R26,Y+5
00014b 83a0      	STD  Z+0,R26
                 ;can_out_buff[3][can_buff_wr_ptr]=data3;
                +
00014c e8a4     +LDI R26 , LOW ( _can_out_buff + ( 12 ) )
00014d e0b3     +LDI R27 , HIGH ( _can_out_buff + ( 12 ) )
                 	__POINTW2MN _can_out_buff,12
00014e 940e 139a 	CALL SUBOPT_0x2
000150 81ac      	LDD  R26,Y+4
000151 83a0      	STD  Z+0,R26
                 ;can_out_buff[4][can_buff_wr_ptr]=data4;
                +
000152 e8a8     +LDI R26 , LOW ( _can_out_buff + ( 16 ) )
000153 e0b3     +LDI R27 , HIGH ( _can_out_buff + ( 16 ) )
                 	__POINTW2MN _can_out_buff,16
000154 940e 139a 	CALL SUBOPT_0x2
000156 81ab      	LDD  R26,Y+3
000157 83a0      	STD  Z+0,R26
                 ;can_out_buff[5][can_buff_wr_ptr]=data5;
                +
000158 e8ac     +LDI R26 , LOW ( _can_out_buff + ( 20 ) )
000159 e0b3     +LDI R27 , HIGH ( _can_out_buff + ( 20 ) )
                 	__POINTW2MN _can_out_buff,20
00015a 940e 139a 	CALL SUBOPT_0x2
00015c 81aa      	LDD  R26,Y+2
00015d 83a0      	STD  Z+0,R26
                 ;can_out_buff[6][can_buff_wr_ptr]=data6;
                +
00015e e9a0     +LDI R26 , LOW ( _can_out_buff + ( 24 ) )
00015f e0b3     +LDI R27 , HIGH ( _can_out_buff + ( 24 ) )
                 	__POINTW2MN _can_out_buff,24
000160 940e 139a 	CALL SUBOPT_0x2
000162 81a9      	LDD  R26,Y+1
000163 83a0      	STD  Z+0,R26
                 ;can_out_buff[7][can_buff_wr_ptr]=data7;
                +
000164 e9a4     +LDI R26 , LOW ( _can_out_buff + ( 28 ) )
000165 e0b3     +LDI R27 , HIGH ( _can_out_buff + ( 28 ) )
                 	__POINTW2MN _can_out_buff,28
000166 940e 139a 	CALL SUBOPT_0x2
000168 81a8      	LD   R26,Y
000169 83a0      	STD  Z+0,R26
                 ;
                 ;can_buff_wr_ptr++;
00016a 91e0 0398 	LDS  R30,_can_buff_wr_ptr
00016c 5fef      	SUBI R30,-LOW(1)
00016d 93e0 0398 	STS  _can_buff_wr_ptr,R30
                 ;if(can_buff_wr_ptr>3)can_buff_wr_ptr=0;
00016f 91a0 0398 	LDS  R26,_can_buff_wr_ptr
000171 30a4      	CPI  R26,LOW(0x4)
000172 f018      	BRLO _0x4A
000173 e0e0      	LDI  R30,LOW(0)
000174 93e0 0398 	STS  _can_buff_wr_ptr,R30
                 ;}
                 _0x4A:
000176 9628      	ADIW R28,8
000177 9508      	RET
                 ; .FEND
                 ;//-----------------------------------------------
                 ;void can_init1(void)
                 ;{
                 _can_init1:
                 ; .FSTART _can_init1
                 ;char spi_temp;
                 ;
                 ;mcp_reset();
000178 931a      	ST   -Y,R17
                 ;	spi_temp -> R17
000179 940e 00c2 	CALL _mcp_reset
                 ;spi_temp=spi_read(CANSTAT);
00017b e0ae      	LDI  R26,LOW(14)
00017c 940e 00c8 	CALL _spi_read
00017e 2f1e      	MOV  R17,R30
                 ;if((spi_temp&0xe0)!=0x80)
00017f 7ee0      	ANDI R30,LOW(0xE0)
000180 38e0      	CPI  R30,LOW(0x80)
000181 f031      	BREQ _0x4B
                 ;	{
                 ;	spi_bit_modify(CANCTRL,0xe0,0x80);
000182 e0ef      	LDI  R30,LOW(15)
000183 93ea      	ST   -Y,R30
000184 eee0      	LDI  R30,LOW(224)
000185 93ea      	ST   -Y,R30
000186 e8a0      	LDI  R26,LOW(128)
000187 df55      	RCALL _spi_bit_modify
                 ;	}
                 ;delay_us(10);
                 _0x4B:
                +
000188 e18b     +LDI R24 , LOW ( 27 )
                +__DELAY_USB_LOOP :
000189 958a     +DEC R24
00018a f7f1     +BRNE __DELAY_USB_LOOP
                 	__DELAY_USB 27
                 ;spi_write(CNF1,CNF1_init);
00018b e2ea      	LDI  R30,LOW(42)
00018c 93ea      	ST   -Y,R30
00018d eca3      	LDI  R26,LOW(195)
00018e df5e      	RCALL _spi_write
                 ;spi_write(CNF2,CNF2_init);
00018f e2e9      	LDI  R30,LOW(41)
000190 93ea      	ST   -Y,R30
000191 efae      	LDI  R26,LOW(254)
000192 df5a      	RCALL _spi_write
                 ;spi_write(CNF3,CNF3_init);
000193 e2e8      	LDI  R30,LOW(40)
000194 93ea      	ST   -Y,R30
000195 e0a3      	LDI  R26,LOW(3)
000196 df56      	RCALL _spi_write
                 ;
                 ;spi_write(RXB0CTRL,0b00100000);
000197 e6e0      	LDI  R30,LOW(96)
000198 93ea      	ST   -Y,R30
000199 e2a0      	LDI  R26,LOW(32)
00019a df52      	RCALL _spi_write
                 ;spi_write(RXB1CTRL,0b00100000);
00019b e7e0      	LDI  R30,LOW(112)
00019c 93ea      	ST   -Y,R30
00019d e2a0      	LDI  R26,LOW(32)
00019e df4e      	RCALL _spi_write
                 ;
                 ;delay_ms(10);
00019f 940e 13a0 	CALL SUBOPT_0x3
                 ;
                 ;spi_write(RXM0SIDH, 0xFF);
0001a1 e2e0      	LDI  R30,LOW(32)
0001a2 940e 13a4 	CALL SUBOPT_0x4
                 ;spi_write(RXM0SIDL, 0xFF);
0001a4 e2e1      	LDI  R30,LOW(33)
0001a5 940e 13a4 	CALL SUBOPT_0x4
                 ;spi_write(RXF0SIDH, 0xFF);
0001a7 e0e0      	LDI  R30,LOW(0)
0001a8 940e 13a4 	CALL SUBOPT_0x4
                 ;spi_write(RXF0SIDL, 0xFF);
0001aa e0e1      	LDI  R30,LOW(1)
0001ab 940e 13a4 	CALL SUBOPT_0x4
                 ;spi_write(RXF1SIDH, 0xFF);
0001ad e0e4      	LDI  R30,LOW(4)
0001ae 940e 13a4 	CALL SUBOPT_0x4
                 ;spi_write(RXF1SIDL, 0xFF);
0001b0 e0e5      	LDI  R30,LOW(5)
0001b1 940e 13a4 	CALL SUBOPT_0x4
                 ;
                 ;spi_write(RXM1SIDH, 0xff);
0001b3 e2e4      	LDI  R30,LOW(36)
0001b4 940e 13a4 	CALL SUBOPT_0x4
                 ;spi_write(RXM1SIDL, 0xe0);
0001b6 e2e5      	LDI  R30,LOW(37)
0001b7 93ea      	ST   -Y,R30
0001b8 eea0      	LDI  R26,LOW(224)
0001b9 df33      	RCALL _spi_write
                 ;
                 ;spi_write(RXF2SIDH, 0x13);
0001ba e0e8      	LDI  R30,LOW(8)
0001bb 93ea      	ST   -Y,R30
0001bc e1a3      	LDI  R26,LOW(19)
0001bd df2f      	RCALL _spi_write
                 ;spi_write(RXF2SIDL, 0xc0);
0001be e0e9      	LDI  R30,LOW(9)
0001bf 940e 13a8 	CALL SUBOPT_0x5
                 ;
                 ;spi_write(RXF3SIDH, 0x00);
0001c1 e1e0      	LDI  R30,LOW(16)
0001c2 940e 13ac 	CALL SUBOPT_0x6
                 ;spi_write(RXF3SIDL, 0x00);
0001c4 e1e1      	LDI  R30,LOW(17)
0001c5 940e 13ac 	CALL SUBOPT_0x6
                 ;
                 ;spi_write(RXF4SIDH, 0x00);
0001c7 e1e4      	LDI  R30,LOW(20)
0001c8 940e 13ac 	CALL SUBOPT_0x6
                 ;spi_write(RXF4SIDL, 0x00);
0001ca e1e5      	LDI  R30,LOW(21)
0001cb 940e 13ac 	CALL SUBOPT_0x6
                 ;
                 ;spi_write(RXF5SIDH, 0x00);
0001cd e1e8      	LDI  R30,LOW(24)
0001ce 940e 13ac 	CALL SUBOPT_0x6
                 ;spi_write(RXF5SIDL, 0x00);
0001d0 e1e9      	LDI  R30,LOW(25)
0001d1 940e 13ac 	CALL SUBOPT_0x6
                 ;
                 ;spi_write(TXB2SIDH, 0x31);
0001d3 e5e1      	LDI  R30,LOW(81)
0001d4 940e 13b0 	CALL SUBOPT_0x7
                 ;spi_write(TXB2SIDL, 0xc0);
0001d6 e5e2      	LDI  R30,LOW(82)
0001d7 940e 13a8 	CALL SUBOPT_0x5
                 ;
                 ;spi_write(TXB1SIDH, 0x31);
0001d9 e4e1      	LDI  R30,LOW(65)
0001da 940e 13b0 	CALL SUBOPT_0x7
                 ;spi_write(TXB1SIDL, 0xc0);
0001dc e4e2      	LDI  R30,LOW(66)
0001dd 940e 13a8 	CALL SUBOPT_0x5
                 ;
                 ;spi_write(TXB0SIDH, 0x31);
0001df e3e1      	LDI  R30,LOW(49)
0001e0 940e 13b0 	CALL SUBOPT_0x7
                 ;spi_write(TXB0SIDL, 0xc0);
0001e2 e3e2      	LDI  R30,LOW(50)
0001e3 940e 13a8 	CALL SUBOPT_0x5
                 ;
                 ;
                 ;
                 ;spi_bit_modify(CANCTRL,0xe7,0b00000101);
0001e5 e0ef      	LDI  R30,LOW(15)
0001e6 93ea      	ST   -Y,R30
0001e7 eee7      	LDI  R30,LOW(231)
0001e8 93ea      	ST   -Y,R30
0001e9 e0a5      	LDI  R26,LOW(5)
0001ea 940e 00dd 	CALL _spi_bit_modify
                 ;
                 ;spi_write(CANINTE,0b00000110);
0001ec e2eb      	LDI  R30,LOW(43)
0001ed 93ea      	ST   -Y,R30
0001ee e0a6      	LDI  R26,LOW(6)
0001ef defd      	RCALL _spi_write
                 ;delay_ms(100);
0001f0 e6a4      	LDI  R26,LOW(100)
0001f1 e0b0      	LDI  R27,0
0001f2 940e 169a 	CALL _delay_ms
                 ;spi_write(BFPCTRL,0b00000000);
0001f4 e0ec      	LDI  R30,LOW(12)
0001f5 940e 13ac 	CALL SUBOPT_0x6
                 ;
                 ;}
                 _0x20C0004:
0001f7 9119      	LD   R17,Y+
0001f8 9508      	RET
                 ; .FEND
                 ;
                 ;
                 ;
                 ;//-----------------------------------------------
                 ;void can_hndl1(void)
                 ;{
                 _can_hndl1:
                 ; .FSTART _can_hndl1
                 ;unsigned char temp,j,temp_index,c_temp;
                 ;static char ch_cnt;
                 ;#asm("cli")
0001f9 940e 17be 	CALL __SAVELOCR4
                 ;	temp -> R17
                 ;	j -> R16
                 ;	temp_index -> R19
                 ;	c_temp -> R18
0001fb 94f8      	cli
                 ;
                 ;can_st1=spi_read_status();
0001fc df01      	RCALL _spi_read_status
0001fd 93e0 034d 	STS  _can_st1,R30
                 ;can_st_old1|=can_st1;
0001ff 91a0 034e 	LDS  R26,_can_st_old1
000201 2bea      	OR   R30,R26
000202 93e0 034e 	STS  _can_st_old1,R30
                 ;
                 ;if(can_st1&0b00000010)
000204 91e0 034d 	LDS  R30,_can_st1
000206 70e2      	ANDI R30,LOW(0x2)
000207 f0e9      	BREQ _0x4C
                 ;	{
                 ;
                 ;	for(j=0;j<8;j++)
000208 e000      	LDI  R16,LOW(0)
                 _0x4E:
000209 3008      	CPI  R16,8
00020a f478      	BRSH _0x4F
                 ;		{
                 ;		RXBUFF1[j]=spi_read(RXB1D0+j);
00020b 2fe0      	MOV  R30,R16
00020c e0f0      	LDI  R31,0
00020d 5be1      	SUBI R30,LOW(-_RXBUFF1)
00020e 4ffc      	SBCI R31,HIGH(-_RXBUFF1)
00020f 93ff      	PUSH R31
000210 93ef      	PUSH R30
000211 2fa0      	MOV  R26,R16
000212 58aa      	SUBI R26,-LOW(118)
000213 940e 00c8 	CALL _spi_read
000215 91af      	POP  R26
000216 91bf      	POP  R27
000217 93ec      	ST   X,R30
                 ;		}
000218 5f0f      	SUBI R16,-1
000219 cfef      	RJMP _0x4E
                 _0x4F:
                 ;
                 ;	spi_bit_modify(CANINTF,0b00000010,0x00);
00021a e2ec      	LDI  R30,LOW(44)
00021b 93ea      	ST   -Y,R30
00021c e0e2      	LDI  R30,LOW(2)
00021d 93ea      	ST   -Y,R30
00021e e0a0      	LDI  R26,LOW(0)
00021f 940e 00dd 	CALL _spi_bit_modify
                 ;     bIN1=1;
000221 e0e1      	LDI  R30,LOW(1)
000222 93e0 0377 	STS  _bIN1,R30
                 ;	}
                 ;
                 ;
                 ;else if(/*(can_st1&0b10101000)&&*/(!(can_st1&0b01010100)))
000224 c041      	RJMP _0x50
                 _0x4C:
000225 91e0 034d 	LDS  R30,_can_st1
000227 75e4      	ANDI R30,LOW(0x54)
000228 f5e9      	BRNE _0x51
                 ;	{
                 ;	char n;
                 ;     spi_bit_modify(CANINTF,0b00011100,0x00);
000229 9721      	SBIW R28,1
                 ;	n -> Y+0
00022a e2ec      	LDI  R30,LOW(44)
00022b 93ea      	ST   -Y,R30
00022c e1ec      	LDI  R30,LOW(28)
00022d 93ea      	ST   -Y,R30
00022e e0a0      	LDI  R26,LOW(0)
00022f 940e 00dd 	CALL _spi_bit_modify
                 ;
                 ;     if(can_buff_rd_ptr!=can_buff_wr_ptr)
000231 91e0 0398 	LDS  R30,_can_buff_wr_ptr
000233 91a0 0399 	LDS  R26,_can_buff_rd_ptr
000235 17ea      	CP   R30,R26
000236 f171      	BREQ _0x52
                 ;     	{
                 ;         	for(n=0;n<8;n++)
000237 e0e0      	LDI  R30,LOW(0)
000238 83e8      	ST   Y,R30
                 _0x54:
000239 81a8      	LD   R26,Y
00023a 30a8      	CPI  R26,LOW(0x8)
00023b f4b0      	BRSH _0x55
                 ;			{
                 ;			spi_write(TXB0D0+n,can_out_buff[n][can_buff_rd_ptr]);
00023c 81e8      	LD   R30,Y
00023d 5cea      	SUBI R30,-LOW(54)
00023e 93ea      	ST   -Y,R30
00023f 81e9      	LDD  R30,Y+1
000240 e7a8      	LDI  R26,LOW(_can_out_buff)
000241 e0b3      	LDI  R27,HIGH(_can_out_buff)
000242 e0f0      	LDI  R31,0
000243 940e 16b9 	CALL __LSLW2
000245 0fae      	ADD  R26,R30
000246 1fbf      	ADC  R27,R31
000247 91e0 0399 	LDS  R30,_can_buff_rd_ptr
000249 e0f0      	LDI  R31,0
00024a 0fae      	ADD  R26,R30
00024b 1fbf      	ADC  R27,R31
00024c 91ac      	LD   R26,X
00024d de9f      	RCALL _spi_write
                 ;			}
00024e 81e8      	LD   R30,Y
00024f 5fef      	SUBI R30,-LOW(1)
000250 83e8      	ST   Y,R30
000251 cfe7      	RJMP _0x54
                 _0x55:
                 ;    		spi_write(TXB0DLC,8);
000252 e3e5      	LDI  R30,LOW(53)
000253 93ea      	ST   -Y,R30
000254 e0a8      	LDI  R26,LOW(8)
000255 940e 00ed 	CALL _spi_write
                 ;    		spi_rts(0);
000257 e0a0      	LDI  R26,LOW(0)
000258 debc      	RCALL _spi_rts
                 ;
                 ;    		can_buff_rd_ptr++;
000259 91e0 0399 	LDS  R30,_can_buff_rd_ptr
00025b 5fef      	SUBI R30,-LOW(1)
00025c 93e0 0399 	STS  _can_buff_rd_ptr,R30
                 ;    		if(can_buff_rd_ptr>3)can_buff_rd_ptr=0;
00025e 91a0 0399 	LDS  R26,_can_buff_rd_ptr
000260 30a4      	CPI  R26,LOW(0x4)
000261 f018      	BRLO _0x56
000262 e0e0      	LDI  R30,LOW(0)
000263 93e0 0399 	STS  _can_buff_rd_ptr,R30
                 ;    		}
                 _0x56:
                 ; 	}
                 _0x52:
000265 9621      	ADIW R28,1
                 ;
                 ;#asm("sei")
                 _0x51:
                 _0x50:
000266 9478      	sei
                 ;}
000267 940e 17c5 	CALL __LOADLOCR4
000269 9624      	ADIW R28,4
00026a 9508      	RET
                 ; .FEND
                 ;
                 ;
                 ;
                 ;
                 ;//-----------------------------------------------
                 ;void can_in_an1(void)
                 ;{
                 _can_in_an1:
                 ; .FSTART _can_in_an1
                 ;char temp,i;
                 ;signed temp_S;
                 ;int tempI;
                 ;
                 ;
                 ;
                 ;if((RXBUFF1[0]==1)&&(RXBUFF1[1]==2)&&(RXBUFF1[2]==3)&&(RXBUFF1[3]==4)&&(RXBUFF1[4]==5)&&(RXBUFF1[5]==6)&&(RXBUFF1[6]==7) ...
00026b 940e 17bc 	CALL __SAVELOCR6
                 ;	temp -> R17
                 ;	i -> R16
                 ;	temp_S -> R18,R19
                 ;	tempI -> R20,R21
00026d 91a0 034f 	LDS  R26,_RXBUFF1
00026f 30a1      	CPI  R26,LOW(0x1)
000270 f4e1      	BRNE _0x58
                +
000271 91a0 0350+LDS R26 , _RXBUFF1 + ( 1 )
                 	__GETB2MN _RXBUFF1,1
000273 30a2      	CPI  R26,LOW(0x2)
000274 f4c1      	BRNE _0x58
                +
000275 91a0 0351+LDS R26 , _RXBUFF1 + ( 2 )
                 	__GETB2MN _RXBUFF1,2
000277 30a3      	CPI  R26,LOW(0x3)
000278 f4a1      	BRNE _0x58
                +
000279 91a0 0352+LDS R26 , _RXBUFF1 + ( 3 )
                 	__GETB2MN _RXBUFF1,3
00027b 30a4      	CPI  R26,LOW(0x4)
00027c f481      	BRNE _0x58
                +
00027d 91a0 0353+LDS R26 , _RXBUFF1 + ( 4 )
                 	__GETB2MN _RXBUFF1,4
00027f 30a5      	CPI  R26,LOW(0x5)
000280 f461      	BRNE _0x58
                +
000281 91a0 0354+LDS R26 , _RXBUFF1 + ( 5 )
                 	__GETB2MN _RXBUFF1,5
000283 30a6      	CPI  R26,LOW(0x6)
000284 f441      	BRNE _0x58
                +
000285 91a0 0355+LDS R26 , _RXBUFF1 + ( 6 )
                 	__GETB2MN _RXBUFF1,6
000287 30a7      	CPI  R26,LOW(0x7)
000288 f421      	BRNE _0x58
                +
000289 91a0 0356+LDS R26 , _RXBUFF1 + ( 7 )
                 	__GETB2MN _RXBUFF1,7
00028b 30a8      	CPI  R26,LOW(0x8)
00028c f009      	BREQ _0x59
                 _0x58:
00028d c010      	RJMP _0x57
                 _0x59:
00028e e0e1      	LDI  R30,LOW(1)
00028f 93ea      	ST   -Y,R30
000290 e0e2      	LDI  R30,LOW(2)
000291 93ea      	ST   -Y,R30
000292 e0e3      	LDI  R30,LOW(3)
000293 93ea      	ST   -Y,R30
000294 e0e4      	LDI  R30,LOW(4)
000295 93ea      	ST   -Y,R30
000296 e0e5      	LDI  R30,LOW(5)
000297 93ea      	ST   -Y,R30
000298 e0e6      	LDI  R30,LOW(6)
000299 93ea      	ST   -Y,R30
00029a e0e7      	LDI  R30,LOW(7)
00029b 93ea      	ST   -Y,R30
00029c e0a8      	LDI  R26,LOW(8)
00029d de91      	RCALL _can_transmit1
                 ;
                 ;
                 ;if((RXBUFF1[0]==adress)&&(RXBUFF1[1]==adress)&&((RXBUFF1[2]==GETTM) || (RXBUFF1[2]==GETTM1) || (RXBUFF1[2]==GETTM2)))
                 _0x57:
00029e 940e 13b4 	CALL SUBOPT_0x8
0002a0 f481      	BRNE _0x5B
0002a1 940e 13ba 	CALL SUBOPT_0x9
0002a3 f469      	BRNE _0x5B
                +
0002a4 91a0 0351+LDS R26 , _RXBUFF1 + ( 2 )
                 	__GETB2MN _RXBUFF1,2
0002a6 3ead      	CPI  R26,LOW(0xED)
0002a7 f041      	BREQ _0x5C
                +
0002a8 91a0 0351+LDS R26 , _RXBUFF1 + ( 2 )
                 	__GETB2MN _RXBUFF1,2
0002aa 3eab      	CPI  R26,LOW(0xEB)
0002ab f021      	BREQ _0x5C
                +
0002ac 91a0 0351+LDS R26 , _RXBUFF1 + ( 2 )
                 	__GETB2MN _RXBUFF1,2
0002ae 3eac      	CPI  R26,LOW(0xEC)
0002af f409      	BRNE _0x5B
                 _0x5C:
0002b0 c001      	RJMP _0x5E
                 _0x5B:
0002b1 c10f      	RJMP _0x5A
                 _0x5E:
                 ;	{
                 ;
                 ;	can_error_cnt=0;
0002b2 e0e0      	LDI  R30,LOW(0)
0002b3 93e0 030e 	STS  _can_error_cnt,R30
                 ;
                 ;
                 ; 	flags_tu=RXBUFF1[3];
                +
0002b5 91e0 0352+LDS R30 , _RXBUFF1 + ( 3 )
                 	__GETB1MN _RXBUFF1,3
0002b7 93e0 02c4 	STS  _flags_tu,R30
                 ; 	if(flags_tu&0b00000001)
0002b9 70e1      	ANDI R30,LOW(0x1)
0002ba f0b9      	BREQ _0x5F
                 ; 		{
                 ; 		if(flags_tu_cnt_off<4)
0002bb 91a0 02e9 	LDS  R26,_flags_tu_cnt_off
0002bd 30a4      	CPI  R26,LOW(0x4)
0002be f478      	BRSH _0x60
                 ; 			{
                 ; 			flags_tu_cnt_off++;
0002bf 91e0 02e9 	LDS  R30,_flags_tu_cnt_off
0002c1 5fef      	SUBI R30,-LOW(1)
0002c2 93e0 02e9 	STS  _flags_tu_cnt_off,R30
                 ; 			if(flags_tu_cnt_off>=4)flags|=0b00100000;
0002c4 91a0 02e9 	LDS  R26,_flags_tu_cnt_off
0002c6 30a4      	CPI  R26,LOW(0x4)
0002c7 f028      	BRLO _0x61
0002c8 91e0 02c3 	LDS  R30,_flags
0002ca 62e0      	ORI  R30,0x20
0002cb 93e0 02c3 	STS  _flags,R30
                 ; 			}
                 _0x61:
                 ; 		else flags_tu_cnt_off=4;
0002cd c003      	RJMP _0x62
                 _0x60:
0002ce e0e4      	LDI  R30,LOW(4)
0002cf 93e0 02e9 	STS  _flags_tu_cnt_off,R30
                 ; 		}
                 _0x62:
                 ; 	else
0002d1 c01d      	RJMP _0x63
                 _0x5F:
                 ; 		{
                 ; 		if(flags_tu_cnt_off)
0002d2 91e0 02e9 	LDS  R30,_flags_tu_cnt_off
0002d4 30e0      	CPI  R30,0
0002d5 f0b1      	BREQ _0x64
                 ; 			{
                 ; 			flags_tu_cnt_off--;
0002d6 50e1      	SUBI R30,LOW(1)
0002d7 93e0 02e9 	STS  _flags_tu_cnt_off,R30
                 ; 			if(flags_tu_cnt_off<=0)
0002d9 91a0 02e9 	LDS  R26,_flags_tu_cnt_off
0002db 30a0      	CPI  R26,0
0002dc f471      	BRNE _0x65
                 ; 				{
                 ; 				flags&=0b11011111;
0002dd 91e0 02c3 	LDS  R30,_flags
0002df 7def      	ANDI R30,0xDF
0002e0 93e0 02c3 	STS  _flags,R30
                 ; 				off_bp_cnt=5*TZAS;
0002e2 e1a2      	LDI  R26,LOW(_TZAS)
0002e3 e0b0      	LDI  R27,HIGH(_TZAS)
0002e4 940e 1789 	CALL __EEPROMRDB
0002e6 e0a5      	LDI  R26,LOW(5)
0002e7 9fea      	MUL  R30,R26
0002e8 01f0      	MOVW R30,R0
0002e9 93e0 030d 	STS  _off_bp_cnt,R30
                 ; 				}
                 ; 			}
                 _0x65:
                 ; 		else flags_tu_cnt_off=0;
0002eb c003      	RJMP _0x66
                 _0x64:
0002ec e0e0      	LDI  R30,LOW(0)
0002ed 93e0 02e9 	STS  _flags_tu_cnt_off,R30
                 ; 		}
                 _0x66:
                 _0x63:
                 ;
                 ; 	if(flags_tu&0b00000010) flags|=0b01000000;
0002ef 91e0 02c4 	LDS  R30,_flags_tu
0002f1 70e2      	ANDI R30,LOW(0x2)
0002f2 f021      	BREQ _0x67
0002f3 91e0 02c3 	LDS  R30,_flags
0002f5 64e0      	ORI  R30,0x40
0002f6 c003      	RJMP _0x3D4
                 ; 	else flags&=0b10111111;
                 _0x67:
0002f7 91e0 02c3 	LDS  R30,_flags
0002f9 7bef      	ANDI R30,0xBF
                 _0x3D4:
0002fa 93e0 02c3 	STS  _flags,R30
                 ;
                 ; 	vol_u_temp=RXBUFF1[4]+RXBUFF1[5]*256;
0002fc 940e 13c0 	CALL SUBOPT_0xA
                +
0002fe 91a0 0353+LDS R26 , _RXBUFF1 + ( 4 )
                 	__GETB2MN _RXBUFF1,4
000300 e0b0      	LDI  R27,0
000301 0fea      	ADD  R30,R26
000302 1ffb      	ADC  R31,R27
000303 93e0 02c5 	STS  _vol_u_temp,R30
000305 93f0 02c6 	STS  _vol_u_temp+1,R31
                 ; 	vol_i_temp=RXBUFF1[6]+RXBUFF1[7]*256;
                +
000307 91a0 0356+LDS R26 , _RXBUFF1 + ( 7 )
                 	__GETB2MN _RXBUFF1,7
000309 940e 13c8 	CALL SUBOPT_0xB
                +
00030b 91a0 0355+LDS R26 , _RXBUFF1 + ( 6 )
                 	__GETB2MN _RXBUFF1,6
00030d e0b0      	LDI  R27,0
00030e 0fea      	ADD  R30,R26
00030f 1ffb      	ADC  R31,R27
000310 93e0 02c7 	STS  _vol_i_temp,R30
000312 93f0 02c8 	STS  _vol_i_temp+1,R31
                 ;
                 ; 	//I=1234;
                 ;    //	Un=6543;
                 ; 	//Ui=6789;
                 ; 	//T=246;
                 ; 	//flags=0x55;
                 ; 	//_x_=33;
                 ; 	//rotor_int=1000;
                 ; 	rotor_int=flags_tu+(((int)flags)<<8);
000314 91f0 02c3 	LDS  R31,_flags
000316 e0e0      	LDI  R30,LOW(0)
000317 91a0 02c4 	LDS  R26,_flags_tu
000319 e0b0      	LDI  R27,0
00031a 0fea      	ADD  R30,R26
00031b 1ffb      	ADC  R31,R27
00031c 93e0 039a 	STS  _rotor_int,R30
00031e 93f0 039b 	STS  _rotor_int+1,R31
                 ;    //flags = 0x55;
                 ;    plazma_int[1]=((short)flags)*10;
000320 91a0 02c3 	LDS  R26,_flags
000322 e0ea      	LDI  R30,LOW(10)
000323 9fea      	MUL  R30,R26
000324 01f0      	MOVW R30,R0
                +
000325 93e0 02f9+STS _plazma_int + ( 2 ) , R30
000327 93f0 02fa+STS _plazma_int + ( 2 ) + 1 , R31
                 	__PUTW1MN _plazma_int,2
                 ;	can_transmit1(adress,PUTTM1,*((char*)&I),*(((char*)&I)+1),*((char*)&Un),*(((char*)&Un)+1),*((char*)&/*plazma_int[1]*/Ui ...
000329 91e0 0312 	LDS  R30,_adress
00032b 93ea      	ST   -Y,R30
00032c edea      	LDI  R30,LOW(218)
00032d 93ea      	ST   -Y,R30
00032e 91e0 02b8 	LDS  R30,_I
000330 93ea      	ST   -Y,R30
                +
000331 91e0 02b9+LDS R30 , _I + ( 1 )
                 	__GETB1MN _I,1
000333 93ea      	ST   -Y,R30
000334 91e0 02ba 	LDS  R30,_Un
000336 93ea      	ST   -Y,R30
                +
000337 91e0 02bb+LDS R30 , _Un + ( 1 )
                 	__GETB1MN _Un,1
000339 93ea      	ST   -Y,R30
00033a 91e0 02bc 	LDS  R30,_Ui
00033c 93ea      	ST   -Y,R30
                +
00033d 91a0 02bd+LDS R26 , _Ui + ( 1 )
                 	__GETB2MN _Ui,1
00033f 940e 13ce 	CALL SUBOPT_0xC
                 ;	can_transmit1(adress,PUTTM2,Ttr,vent_resurs_buff[vent_resurs_tx_cnt],flags,_x_,*((char*)&plazma_int[2]/*rotor_int*/),*( ...
000341 91e0 02c2 	LDS  R30,_Ttr
000343 940e 13d6 	CALL SUBOPT_0xD
                +
000345 91e0 02fb+LDS R30 , _plazma_int + ( 4 )
                 	__GETB1MN _plazma_int,4
000347 93ea      	ST   -Y,R30
                +
000348 91a0 02fc+LDS R26 , _plazma_int + ( 5 )
                 	__GETB2MN _plazma_int,5
00034a dde4      	RCALL _can_transmit1
                 ;	if(RXBUFF1[2]==GETTM)	can_transmit1(adress,PUTTM3,/**(((char*)&debug_info_to_uku[0])+1)*/0,/**((char*)&debug_info_to_uk ...
                +
00034b 91a0 0351+LDS R26 , _RXBUFF1 + ( 2 )
                 	__GETB2MN _RXBUFF1,2
00034d 3ead      	CPI  R26,LOW(0xED)
00034e f459      	BRNE _0x69
00034f 91e0 0312 	LDS  R30,_adress
000351 93ea      	ST   -Y,R30
000352 edec      	LDI  R30,LOW(220)
000353 940e 13e5 	CALL SUBOPT_0xE
000355 e0e0      	LDI  R30,LOW(0)
000356 940e 13e5 	CALL SUBOPT_0xE
000358 e0a0      	LDI  R26,LOW(0)
000359 ddd5      	RCALL _can_transmit1
                 ;	if(RXBUFF1[2]==GETTM1)	can_transmit1(adress,PUTTM31,*(((char*)&HARDVARE_VERSION)+1),*((char*)&HARDVARE_VERSION),*(((cha ...
                 _0x69:
                +
00035a 91a0 0351+LDS R26 , _RXBUFF1 + ( 2 )
                 	__GETB2MN _RXBUFF1,2
00035c 3eab      	CPI  R26,LOW(0xEB)
00035d f4b9      	BRNE _0x6A
00035e 91e0 0312 	LDS  R30,_adress
000360 93ea      	ST   -Y,R30
000361 eded      	LDI  R30,LOW(221)
000362 93ea      	ST   -Y,R30
                +
000363 91e0 0201+LDS R30 , _HARDVARE_VERSION + ( 1 )
                 	__GETB1MN _HARDVARE_VERSION,1
000365 93ea      	ST   -Y,R30
000366 91e0 0200 	LDS  R30,_HARDVARE_VERSION
000368 93ea      	ST   -Y,R30
                +
000369 91e0 0203+LDS R30 , _SOFT_VERSION + ( 1 )
                 	__GETB1MN _SOFT_VERSION,1
00036b 93ea      	ST   -Y,R30
00036c 91e0 0202 	LDS  R30,_SOFT_VERSION
00036e 93ea      	ST   -Y,R30
                +
00036f 91e0 0205+LDS R30 , _BUILD + ( 1 )
                 	__GETB1MN _BUILD,1
000371 93ea      	ST   -Y,R30
000372 91a0 0204 	LDS  R26,_BUILD
000374 ddba      	RCALL _can_transmit1
                 ;	if(RXBUFF1[2]==GETTM2)	can_transmit1(adress,PUTTM32,*(((char*)&BUILD_YEAR)+1),*((char*)&BUILD_YEAR),*(((char*)&BUILD_MO ...
                 _0x6A:
                +
000375 91a0 0351+LDS R26 , _RXBUFF1 + ( 2 )
                 	__GETB2MN _RXBUFF1,2
000377 3eac      	CPI  R26,LOW(0xEC)
000378 f4b9      	BRNE _0x6B
000379 91e0 0312 	LDS  R30,_adress
00037b 93ea      	ST   -Y,R30
00037c ede5      	LDI  R30,LOW(213)
00037d 93ea      	ST   -Y,R30
                +
00037e 91e0 0207+LDS R30 , _BUILD_YEAR + ( 1 )
                 	__GETB1MN _BUILD_YEAR,1
000380 93ea      	ST   -Y,R30
000381 91e0 0206 	LDS  R30,_BUILD_YEAR
000383 93ea      	ST   -Y,R30
                +
000384 91e0 0209+LDS R30 , _BUILD_MONTH + ( 1 )
                 	__GETB1MN _BUILD_MONTH,1
000386 93ea      	ST   -Y,R30
000387 91e0 0208 	LDS  R30,_BUILD_MONTH
000389 93ea      	ST   -Y,R30
                +
00038a 91e0 020b+LDS R30 , _BUILD_DAY + ( 1 )
                 	__GETB1MN _BUILD_DAY,1
00038c 93ea      	ST   -Y,R30
00038d 91a0 020a 	LDS  R26,_BUILD_DAY
00038f dd9f      	RCALL _can_transmit1
                 ;
                 ;     link_cnt=0;
                 _0x6B:
000390 940e 13ea 	CALL SUBOPT_0xF
                 ;     link=ON;
                 ;
                 ;     if(flags_tu&0b10000000)
000392 91e0 02c4 	LDS  R30,_flags_tu
000394 78e0      	ANDI R30,LOW(0x80)
000395 f089      	BREQ _0x6C
                 ;     	{
                 ;     	if(!res_fl)
000396 e1a3      	LDI  R26,LOW(_res_fl)
000397 e0b0      	LDI  R27,HIGH(_res_fl)
000398 940e 1789 	CALL __EEPROMRDB
00039a 30e0      	CPI  R30,0
00039b f451      	BRNE _0x6D
                 ;     		{
                 ;     		res_fl=1;
00039c e1a3      	LDI  R26,LOW(_res_fl)
00039d e0b0      	LDI  R27,HIGH(_res_fl)
00039e e0e1      	LDI  R30,LOW(1)
00039f 940e 179d 	CALL __EEPROMWRB
                 ;     		bRES=1;
0003a1 93e0 030a 	STS  _bRES,R30
                 ;     		res_fl_cnt=0;
0003a3 e0e0      	LDI  R30,LOW(0)
0003a4 93e0 030c 	STS  _res_fl_cnt,R30
                 ;     		}
                 ;     	}
                 _0x6D:
                 ;     else
0003a6 c011      	RJMP _0x6E
                 _0x6C:
                 ;     	{
                 ;     	if(main_cnt>20)
0003a7 91a0 02f5 	LDS  R26,_main_cnt
0003a9 91b0 02f6 	LDS  R27,_main_cnt+1
0003ab 9755      	SBIW R26,21
0003ac f05c      	BRLT _0x6F
                 ;     		{
                 ;    			if(res_fl)
0003ad e1a3      	LDI  R26,LOW(_res_fl)
0003ae e0b0      	LDI  R27,HIGH(_res_fl)
0003af 940e 1789 	CALL __EEPROMRDB
0003b1 30e0      	CPI  R30,0
0003b2 f029      	BREQ _0x70
                 ;     			{
                 ;     			res_fl=0;
0003b3 e1a3      	LDI  R26,LOW(_res_fl)
0003b4 e0b0      	LDI  R27,HIGH(_res_fl)
0003b5 e0e0      	LDI  R30,LOW(0)
0003b6 940e 179d 	CALL __EEPROMWRB
                 ;     			}
                 ;     		}
                 _0x70:
                 ;     	}
                 _0x6F:
                 _0x6E:
                 ;
                 ;      if(res_fl_)
0003b8 940e 13f3 	CALL SUBOPT_0x10
0003ba f029      	BREQ _0x71
                 ;      	{
                 ;      	res_fl_=0;
0003bb e1a4      	LDI  R26,LOW(_res_fl_)
0003bc e0b0      	LDI  R27,HIGH(_res_fl_)
0003bd e0e0      	LDI  R30,LOW(0)
0003be 940e 179d 	CALL __EEPROMWRB
                 ;      	}
                 ;	}
                 _0x71:
                 ;else if((RXBUFF1[0]==adress)&&(RXBUFF1[1]==adress)&&(RXBUFF1[2]==KLBR)&&(RXBUFF1[3]==RXBUFF1[4]))
0003c0 c25d      	RJMP _0x72
                 _0x5A:
0003c1 940e 13b4 	CALL SUBOPT_0x8
0003c3 f469      	BRNE _0x74
0003c4 940e 13ba 	CALL SUBOPT_0x9
0003c6 f451      	BRNE _0x74
                +
0003c7 91a0 0351+LDS R26 , _RXBUFF1 + ( 2 )
                 	__GETB2MN _RXBUFF1,2
0003c9 3eae      	CPI  R26,LOW(0xEE)
0003ca f431      	BRNE _0x74
                +
0003cb 91a0 0352+LDS R26 , _RXBUFF1 + ( 3 )
                 	__GETB2MN _RXBUFF1,3
                +
0003cd 91e0 0353+LDS R30 , _RXBUFF1 + ( 4 )
                 	__GETB1MN _RXBUFF1,4
0003cf 17ea      	CP   R30,R26
0003d0 f009      	BREQ _0x75
                 _0x74:
0003d1 c0da      	RJMP _0x73
                 _0x75:
                 ;	{
                 ;	rotor_int++;
0003d2 940e 13f9 	CALL SUBOPT_0x11
                 ;	if((RXBUFF1[3]&0xf0)==0x20)
                +
0003d4 91e0 0352+LDS R30 , _RXBUFF1 + ( 3 )
                 	__GETB1MN _RXBUFF1,3
0003d6 7fe0      	ANDI R30,LOW(0xF0)
0003d7 32e0      	CPI  R30,LOW(0x20)
0003d8 f5d1      	BRNE _0x76
                 ;		{
                 ;		if((RXBUFF1[3]&0x0f)==0x01)
                +
0003d9 91e0 0352+LDS R30 , _RXBUFF1 + ( 3 )
                 	__GETB1MN _RXBUFF1,3
0003db 70ef      	ANDI R30,LOW(0xF)
0003dc 30e1      	CPI  R30,LOW(0x1)
0003dd f439      	BRNE _0x77
                 ;			{
                 ;			K[0][0]=adc_buff_[0];
0003de 940e 1401 	CALL SUBOPT_0x12
0003e0 e0a0      	LDI  R26,LOW(_K)
0003e1 e0b0      	LDI  R27,HIGH(_K)
0003e2 940e 1795 	CALL __EEPROMWRW
                 ;			}
                 ;		else if((RXBUFF1[3]&0x0f)==0x02)
0003e4 c023      	RJMP _0x78
                 _0x77:
0003e5 940e 1406 	CALL SUBOPT_0x13
0003e7 f431      	BRNE _0x79
                 ;			{
                 ;			K[0][1]++;
0003e8 940e 140b 	CALL SUBOPT_0x14
0003ea 9631      	ADIW R30,1
0003eb 940e 1795 	CALL __EEPROMWRW
                 ;			}
                 ;		else if((RXBUFF1[3]&0x0f)==0x03)
0003ed c01a      	RJMP _0x7A
                 _0x79:
0003ee 940e 1410 	CALL SUBOPT_0x15
0003f0 f421      	BRNE _0x7B
                 ;			{
                 ;			K[0][1]+=10;
0003f1 940e 140b 	CALL SUBOPT_0x14
0003f3 963a      	ADIW R30,10
0003f4 c00f      	RJMP _0x3D5
                 ;			}
                 ;		else if((RXBUFF1[3]&0x0f)==0x04)
                 _0x7B:
0003f5 940e 1415 	CALL SUBOPT_0x16
0003f7 f431      	BRNE _0x7D
                 ;			{
                 ;			K[0][1]--;
0003f8 940e 140b 	CALL SUBOPT_0x14
0003fa 9731      	SBIW R30,1
0003fb 940e 1795 	CALL __EEPROMWRW
                 ;			}
                 ;		else if((RXBUFF1[3]&0x0f)==0x05)
0003fd c00a      	RJMP _0x7E
                 _0x7D:
0003fe 940e 141a 	CALL SUBOPT_0x17
000400 f439      	BRNE _0x7F
                 ;			{
                 ;			K[0][1]-=10;
000401 940e 140b 	CALL SUBOPT_0x14
000403 973a      	SBIW R30,10
                 _0x3D5:
                +
000404 e0a2     +LDI R26 , LOW ( _K + ( 2 ) )
000405 e0b0     +LDI R27 , HIGH ( _K + ( 2 ) )
000406 940e 1795+CALL __EEPROMWRW
                 	__PUTW1EN _K,2
                 ;			}
                 ;		granee(&K[0][1],300,5000);
                 _0x7F:
                 _0x7E:
                 _0x7A:
                 _0x78:
                +
000408 e0e2     +LDI R30 , LOW ( _K + ( 2 ) )
000409 e0f0     +LDI R31 , HIGH ( _K + ( 2 ) )
                 	__POINTW1MN _K,2
00040a 93fa      	ST   -Y,R31
00040b 93ea      	ST   -Y,R30
00040c e2ec      	LDI  R30,LOW(300)
00040d e0f1      	LDI  R31,HIGH(300)
00040e 93fa      	ST   -Y,R31
00040f 93ea      	ST   -Y,R30
000410 e8a8      	LDI  R26,LOW(5000)
000411 e1b3      	LDI  R27,HIGH(5000)
000412 c08d      	RJMP _0x3D6
                 ;		}
                 ;	else if((RXBUFF1[3]&0xf0)==0x10)
                 _0x76:
                +
000413 91e0 0352+LDS R30 , _RXBUFF1 + ( 3 )
                 	__GETB1MN _RXBUFF1,3
000415 7fe0      	ANDI R30,LOW(0xF0)
000416 31e0      	CPI  R30,LOW(0x10)
000417 f521      	BRNE _0x81
                 ;		{
                 ;		/*if((RXBUFF1[3]&0x0f)==0x01)
                 ;			{
                 ;			K[1][0]=adc_buff_[1];
                 ;			}
                 ;		else*/ if((RXBUFF1[3]&0x0f)==0x02)
000418 940e 1406 	CALL SUBOPT_0x13
00041a f431      	BRNE _0x82
                 ;			{
                 ;			K[1][1]++;
00041b 940e 141f 	CALL SUBOPT_0x18
00041d 9631      	ADIW R30,1
00041e 940e 1795 	CALL __EEPROMWRW
                 ;			}
                 ;		else if((RXBUFF1[3]&0x0f)==0x03)
000420 c01a      	RJMP _0x83
                 _0x82:
000421 940e 1410 	CALL SUBOPT_0x15
000423 f421      	BRNE _0x84
                 ;			{
                 ;			K[1][1]+=10;
000424 940e 141f 	CALL SUBOPT_0x18
000426 963a      	ADIW R30,10
000427 c00f      	RJMP _0x3D7
                 ;			}
                 ;		else if((RXBUFF1[3]&0x0f)==0x04)
                 _0x84:
000428 940e 1415 	CALL SUBOPT_0x16
00042a f431      	BRNE _0x86
                 ;			{
                 ;			K[1][1]--;
00042b 940e 141f 	CALL SUBOPT_0x18
00042d 9731      	SBIW R30,1
00042e 940e 1795 	CALL __EEPROMWRW
                 ;			}
                 ;		else if((RXBUFF1[3]&0x0f)==0x05)
000430 c00a      	RJMP _0x87
                 _0x86:
000431 940e 141a 	CALL SUBOPT_0x17
000433 f439      	BRNE _0x88
                 ;			{
                 ;			K[1][1]-=10;
000434 940e 141f 	CALL SUBOPT_0x18
000436 973a      	SBIW R30,10
                 _0x3D7:
                +
000437 e0a6     +LDI R26 , LOW ( _K + ( 6 ) )
000438 e0b0     +LDI R27 , HIGH ( _K + ( 6 ) )
000439 940e 1795+CALL __EEPROMWRW
                 	__PUTW1EN _K,6
                 ;			}
                 ;		/*#ifdef _220_
                 ;		granee(&K[1][1],4500,5500);
                 ;		#else
                 ;		granee(&K[1][1],1360,1700);
                 ;		#endif*/
                 ;		}
                 _0x88:
                 _0x87:
                 _0x83:
                 ;
                 ;	else if((RXBUFF1[3]&0xf0)==0x00)
00043b c065      	RJMP _0x89
                 _0x81:
                +
00043c 91e0 0352+LDS R30 , _RXBUFF1 + ( 3 )
                 	__GETB1MN _RXBUFF1,3
00043e 7fe0      	ANDI R30,LOW(0xF0)
00043f f581      	BRNE _0x8A
                 ;		{
                 ;		if((RXBUFF1[3]&0x0f)==0x01)
                +
000440 91e0 0352+LDS R30 , _RXBUFF1 + ( 3 )
                 	__GETB1MN _RXBUFF1,3
000442 70ef      	ANDI R30,LOW(0xF)
000443 30e1      	CPI  R30,LOW(0x1)
000444 f439      	BRNE _0x8B
                 ;			{
                 ;			K[2][0]=adc_buff_[0];
                +
000445 e0a8     +LDI R26 , LOW ( _K + ( 8 ) )
000446 e0b0     +LDI R27 , HIGH ( _K + ( 8 ) )
                 	__POINTW2MN _K,8
000447 940e 1401 	CALL SUBOPT_0x12
000449 940e 1795 	CALL __EEPROMWRW
                 ;			}
                 ;		else if((RXBUFF1[3]&0x0f)==0x02)
00044b c023      	RJMP _0x8C
                 _0x8B:
00044c 940e 1406 	CALL SUBOPT_0x13
00044e f431      	BRNE _0x8D
                 ;			{
                 ;			K[2][1]++;
00044f 940e 1424 	CALL SUBOPT_0x19
000451 9631      	ADIW R30,1
000452 940e 1795 	CALL __EEPROMWRW
                 ;			}
                 ;		else if((RXBUFF1[3]&0x0f)==0x03)
000454 c01a      	RJMP _0x8E
                 _0x8D:
000455 940e 1410 	CALL SUBOPT_0x15
000457 f421      	BRNE _0x8F
                 ;			{
                 ;			K[2][1]+=10;
000458 940e 1424 	CALL SUBOPT_0x19
00045a 963a      	ADIW R30,10
00045b c00f      	RJMP _0x3D8
                 ;			}
                 ;		else if((RXBUFF1[3]&0x0f)==0x04)
                 _0x8F:
00045c 940e 1415 	CALL SUBOPT_0x16
00045e f431      	BRNE _0x91
                 ;			{
                 ;			K[2][1]--;
00045f 940e 1424 	CALL SUBOPT_0x19
000461 9731      	SBIW R30,1
000462 940e 1795 	CALL __EEPROMWRW
                 ;			}
                 ;		else if((RXBUFF1[3]&0x0f)==0x05)
000464 c00a      	RJMP _0x92
                 _0x91:
000465 940e 141a 	CALL SUBOPT_0x17
000467 f439      	BRNE _0x93
                 ;			{
                 ;			K[2][1]-=10;
000468 940e 1424 	CALL SUBOPT_0x19
00046a 973a      	SBIW R30,10
                 _0x3D8:
                +
00046b e0aa     +LDI R26 , LOW ( _K + ( 10 ) )
00046c e0b0     +LDI R27 , HIGH ( _K + ( 10 ) )
00046d 940e 1795+CALL __EEPROMWRW
                 	__PUTW1EN _K,10
                 ;			}
                 ;		/*#ifdef _220_
                 ;		granee(&K[2][1],4500,5500);
                 ;		#else
                 ;		granee(&K[2][1],1360,1700);
                 ;		#endif	*/
                 ;		}
                 _0x93:
                 _0x92:
                 _0x8E:
                 _0x8C:
                 ;
                 ;	else if((RXBUFF1[3]&0xf0)==0x30)
00046f c031      	RJMP _0x94
                 _0x8A:
                +
000470 91e0 0352+LDS R30 , _RXBUFF1 + ( 3 )
                 	__GETB1MN _RXBUFF1,3
000472 7fe0      	ANDI R30,LOW(0xF0)
000473 33e0      	CPI  R30,LOW(0x30)
000474 f561      	BRNE _0x95
                 ;		{
                 ;		if((RXBUFF1[3]&0x0f)==0x02)
000475 940e 1406 	CALL SUBOPT_0x13
000477 f431      	BRNE _0x96
                 ;			{
                 ;			K[3][1]++;
000478 940e 1429 	CALL SUBOPT_0x1A
00047a 9631      	ADIW R30,1
00047b 940e 1795 	CALL __EEPROMWRW
                 ;			}
                 ;		else if((RXBUFF1[3]&0x0f)==0x03)
00047d c01a      	RJMP _0x97
                 _0x96:
00047e 940e 1410 	CALL SUBOPT_0x15
000480 f421      	BRNE _0x98
                 ;			{
                 ;			K[3][1]+=10;
000481 940e 1429 	CALL SUBOPT_0x1A
000483 963a      	ADIW R30,10
000484 c00f      	RJMP _0x3D9
                 ;			}
                 ;		else if((RXBUFF1[3]&0x0f)==0x04)
                 _0x98:
000485 940e 1415 	CALL SUBOPT_0x16
000487 f431      	BRNE _0x9A
                 ;			{
                 ;			K[3][1]--;
000488 940e 1429 	CALL SUBOPT_0x1A
00048a 9731      	SBIW R30,1
00048b 940e 1795 	CALL __EEPROMWRW
                 ;			}
                 ;		else if((RXBUFF1[3]&0x0f)==0x05)
00048d c00a      	RJMP _0x9B
                 _0x9A:
00048e 940e 141a 	CALL SUBOPT_0x17
000490 f439      	BRNE _0x9C
                 ;			{
                 ;			K[3][1]-=10;
000491 940e 1429 	CALL SUBOPT_0x1A
000493 973a      	SBIW R30,10
                 _0x3D9:
                +
000494 e0ae     +LDI R26 , LOW ( _K + ( 14 ) )
000495 e0b0     +LDI R27 , HIGH ( _K + ( 14 ) )
000496 940e 1795+CALL __EEPROMWRW
                 	__PUTW1EN _K,14
                 ;			}
                 ;		granee(&K[3][1],/*480*/200,/*497*/1000);
                 _0x9C:
                 _0x9B:
                 _0x97:
                +
000498 e0ee     +LDI R30 , LOW ( _K + ( 14 ) )
000499 e0f0     +LDI R31 , HIGH ( _K + ( 14 ) )
                 	__POINTW1MN _K,14
00049a 93fa      	ST   -Y,R31
00049b 93ea      	ST   -Y,R30
00049c ece8      	LDI  R30,LOW(200)
00049d e0f0      	LDI  R31,HIGH(200)
00049e 940e 142e 	CALL SUBOPT_0x1B
                 _0x3D6:
0004a0 d23e      	RCALL _granee
                 ;		}
                 ;
                 ;/*	else if((RXBUFF1[3]&0xf0)==0xA0)    //изменение адреса(инкремент и декремент)
                 ;		{
                 ;		//rotor++;
                 ;		if((RXBUFF1[3]&0x0f)==0x02)
                 ;			{
                 ;			adr_ee++;
                 ;			}
                 ;		else if((RXBUFF1[3]&0x0f)==0x03)
                 ;			{
                 ;			adr_ee+=10;
                 ;			}
                 ;		else if((RXBUFF1[3]&0x0f)==0x04)
                 ;			{
                 ;			adr_ee--;
                 ;			}
                 ;		else if((RXBUFF1[3]&0x0f)==0x05)
                 ;			{
                 ;			adr_ee-=10;
                 ;			}
                 ;		} */
                 ;/*	else if((RXBUFF1[3]&0xf0)==0xB0)   //установка адреса(для ворот)
                 ;		{
                 ;		//rotor--;
                 ;		adr_ee=(RXBUFF1[3]&0x0f);
                 ;		}  */
                 ;	link_cnt=0;
                 _0x95:
                 _0x94:
                 _0x89:
0004a1 940e 13ea 	CALL SUBOPT_0xF
                 ;     link=ON;
                 ;     if(res_fl_)
0004a3 940e 13f3 	CALL SUBOPT_0x10
0004a5 f029      	BREQ _0x9D
                 ;      	{
                 ;      	res_fl_=0;
0004a6 e1a4      	LDI  R26,LOW(_res_fl_)
0004a7 e0b0      	LDI  R27,HIGH(_res_fl_)
0004a8 e0e0      	LDI  R30,LOW(0)
0004a9 940e 179d 	CALL __EEPROMWRB
                 ;      	}
                 ;
                 ;
                 ;	}
                 _0x9D:
                 ;
                 ;else if((RXBUFF1[0]==0xff)&&(RXBUFF1[1]==0xff)&&(RXBUFF1[2]==MEM_KF))
0004ab c172      	RJMP _0x9E
                 _0x73:
0004ac 91a0 034f 	LDS  R26,_RXBUFF1
0004ae 3faf      	CPI  R26,LOW(0xFF)
0004af f441      	BRNE _0xA0
                +
0004b0 91a0 0350+LDS R26 , _RXBUFF1 + ( 1 )
                 	__GETB2MN _RXBUFF1,1
0004b2 3faf      	CPI  R26,LOW(0xFF)
0004b3 f421      	BRNE _0xA0
                +
0004b4 91a0 0351+LDS R26 , _RXBUFF1 + ( 2 )
                 	__GETB2MN _RXBUFF1,2
0004b6 36a2      	CPI  R26,LOW(0x62)
0004b7 f009      	BREQ _0xA1
                 _0xA0:
0004b8 c046      	RJMP _0x9F
                 _0xA1:
                 ;	{
                 ;	//rotor_int++;
                 ;	if(ee_Umax!=(RXBUFF1[3]+(RXBUFF1[4]*256))) ee_Umax=(RXBUFF1[3]+(RXBUFF1[4]*256));
0004b9 940e 1433 	CALL SUBOPT_0x1C
0004bb 01bf      	MOVW R22,R30
0004bc 940e 1438 	CALL SUBOPT_0x1D
0004be 940e 143b 	CALL SUBOPT_0x1E
0004c0 17e6      	CP   R30,R22
0004c1 07f7      	CPC  R31,R23
0004c2 f041      	BREQ _0xA2
0004c3 940e 1438 	CALL SUBOPT_0x1D
0004c5 940e 143b 	CALL SUBOPT_0x1E
0004c7 e1a7      	LDI  R26,LOW(_ee_Umax)
0004c8 e0b0      	LDI  R27,HIGH(_ee_Umax)
0004c9 940e 1795 	CALL __EEPROMWRW
                 ;	if(ee_dU!=(RXBUFF1[5]+(RXBUFF1[6]*256))) ee_dU=(RXBUFF1[5]+(RXBUFF1[6]*256));
                 _0xA2:
0004cb e1a9      	LDI  R26,LOW(_ee_dU)
0004cc e0b0      	LDI  R27,HIGH(_ee_dU)
0004cd 940e 1785 	CALL __EEPROMRDW
0004cf 01bf      	MOVW R22,R30
0004d0 940e 1441 	CALL SUBOPT_0x1F
0004d2 940e 1444 	CALL SUBOPT_0x20
0004d4 17e6      	CP   R30,R22
0004d5 07f7      	CPC  R31,R23
0004d6 f041      	BREQ _0xA3
0004d7 940e 1441 	CALL SUBOPT_0x1F
0004d9 940e 1444 	CALL SUBOPT_0x20
0004db e1a9      	LDI  R26,LOW(_ee_dU)
0004dc e0b0      	LDI  R27,HIGH(_ee_dU)
0004dd 940e 1795 	CALL __EEPROMWRW
                 ;
                 ;    if((RXBUFF1[7]&0x0f)==0x05)
                 _0xA3:
                +
0004df 91e0 0356+LDS R30 , _RXBUFF1 + ( 7 )
                 	__GETB1MN _RXBUFF1,7
0004e1 70ef      	ANDI R30,LOW(0xF)
0004e2 30e5      	CPI  R30,LOW(0x5)
0004e3 f469      	BRNE _0xA4
                 ;		{
                 ;		if(ee_AVT_MODE!=0x55)ee_AVT_MODE=0x55;
0004e4 940e 144a 	CALL SUBOPT_0x21
0004e6 35e5      	CPI  R30,LOW(0x55)
0004e7 e0a0      	LDI  R26,HIGH(0x55)
0004e8 07fa      	CPC  R31,R26
0004e9 f031      	BREQ _0xA5
0004ea e2a1      	LDI  R26,LOW(_ee_AVT_MODE)
0004eb e0b0      	LDI  R27,HIGH(_ee_AVT_MODE)
0004ec e5e5      	LDI  R30,LOW(85)
0004ed e0f0      	LDI  R31,HIGH(85)
0004ee 940e 1795 	CALL __EEPROMWRW
                 ;		}
                 _0xA5:
                 ;	else if((RXBUFF1[7]&0x0f)==0x0a)
0004f0 c00d      	RJMP _0xA6
                 _0xA4:
                +
0004f1 91e0 0356+LDS R30 , _RXBUFF1 + ( 7 )
                 	__GETB1MN _RXBUFF1,7
0004f3 70ef      	ANDI R30,LOW(0xF)
0004f4 30ea      	CPI  R30,LOW(0xA)
0004f5 f441      	BRNE _0xA7
                 ;        {
                 ;        if(ee_AVT_MODE!=0)ee_AVT_MODE=0;
0004f6 940e 144a 	CALL SUBOPT_0x21
0004f8 9730      	SBIW R30,0
0004f9 f021      	BREQ _0xA8
0004fa e2a1      	LDI  R26,LOW(_ee_AVT_MODE)
0004fb e0b0      	LDI  R27,HIGH(_ee_AVT_MODE)
0004fc 940e 144f 	CALL SUBOPT_0x22
                 ;        }
                 _0xA8:
                 ;	}
                 _0xA7:
                 _0xA6:
                 ;
                 ;else if((RXBUFF1[0]==0xff)&&(RXBUFF1[1]==0xff)&&((RXBUFF1[2]==MEM_KF1)||(RXBUFF1[2]==MEM_KF4)))
0004fe c11f      	RJMP _0xA9
                 _0x9F:
0004ff 91a0 034f 	LDS  R26,_RXBUFF1
000501 3faf      	CPI  R26,LOW(0xFF)
000502 f469      	BRNE _0xAB
                +
000503 91a0 0350+LDS R26 , _RXBUFF1 + ( 1 )
                 	__GETB2MN _RXBUFF1,1
000505 3faf      	CPI  R26,LOW(0xFF)
000506 f449      	BRNE _0xAB
                +
000507 91a0 0351+LDS R26 , _RXBUFF1 + ( 2 )
                 	__GETB2MN _RXBUFF1,2
000509 32a6      	CPI  R26,LOW(0x26)
00050a f021      	BREQ _0xAC
                +
00050b 91a0 0351+LDS R26 , _RXBUFF1 + ( 2 )
                 	__GETB2MN _RXBUFF1,2
00050d 32a9      	CPI  R26,LOW(0x29)
00050e f409      	BRNE _0xAB
                 _0xAC:
00050f c001      	RJMP _0xAE
                 _0xAB:
000510 c067      	RJMP _0xAA
                 _0xAE:
                 ;	{
                 ;	if(ee_tmax!=(RXBUFF1[3]+(RXBUFF1[4]*256))) ee_tmax=(RXBUFF1[3]+(RXBUFF1[4]*256));
000511 940e 1454 	CALL SUBOPT_0x23
000513 01bf      	MOVW R22,R30
000514 940e 1438 	CALL SUBOPT_0x1D
000516 940e 143b 	CALL SUBOPT_0x1E
000518 17e6      	CP   R30,R22
000519 07f7      	CPC  R31,R23
00051a f041      	BREQ _0xAF
00051b 940e 1438 	CALL SUBOPT_0x1D
00051d 940e 143b 	CALL SUBOPT_0x1E
00051f e1ab      	LDI  R26,LOW(_ee_tmax)
000520 e0b0      	LDI  R27,HIGH(_ee_tmax)
000521 940e 1795 	CALL __EEPROMWRW
                 ;	if(ee_tsign!=(RXBUFF1[5]+(RXBUFF1[5]*256))) ee_tsign=(RXBUFF1[5]+(RXBUFF1[6]*256));
                 _0xAF:
000523 940e 1459 	CALL SUBOPT_0x24
000525 01bf      	MOVW R22,R30
000526 940e 13c0 	CALL SUBOPT_0xA
000528 940e 1444 	CALL SUBOPT_0x20
00052a 17e6      	CP   R30,R22
00052b 07f7      	CPC  R31,R23
00052c f041      	BREQ _0xB0
00052d 940e 1441 	CALL SUBOPT_0x1F
00052f 940e 1444 	CALL SUBOPT_0x20
000531 e1ad      	LDI  R26,LOW(_ee_tsign)
000532 e0b0      	LDI  R27,HIGH(_ee_tsign)
000533 940e 1795 	CALL __EEPROMWRW
                 ;	//if(TZAS!=RXBUFF1[7]) TZAS=RXBUFF1[7];
                 ;
                 ;	if(RXBUFF1[2]==MEM_KF1)
                 _0xB0:
                +
000535 91a0 0351+LDS R26 , _RXBUFF1 + ( 2 )
                 	__GETB2MN _RXBUFF1,2
000537 32a6      	CPI  R26,LOW(0x26)
000538 f4a1      	BRNE _0xB1
                 ;		{
                 ;		if(ee_DEVICE!=0)ee_DEVICE=0;
000539 940e 145e 	CALL SUBOPT_0x25
00053b 9730      	SBIW R30,0
00053c f021      	BREQ _0xB2
00053d e2a3      	LDI  R26,LOW(_ee_DEVICE)
00053e e0b0      	LDI  R27,HIGH(_ee_DEVICE)
00053f 940e 144f 	CALL SUBOPT_0x22
                 ;		if(ee_TZAS!=(signed short)RXBUFF1[7]) ee_TZAS=(signed short)RXBUFF1[7];
                 _0xB2:
000541 940e 1463 	CALL SUBOPT_0x26
000543 940e 1468 	CALL SUBOPT_0x27
000545 f039      	BREQ _0xB3
                +
000546 91e0 0356+LDS R30 , _RXBUFF1 + ( 7 )
                 	__GETB1MN _RXBUFF1,7
000548 e0f0      	LDI  R31,0
000549 e1a5      	LDI  R26,LOW(_ee_TZAS)
00054a e0b0      	LDI  R27,HIGH(_ee_TZAS)
00054b 940e 1795 	CALL __EEPROMWRW
                 ;		}
                 _0xB3:
                 ;	if(RXBUFF1[2]==MEM_KF4)	//MEM_KF4 передают УКУшки там, где нужно полное управление БПСами с УКУ, включить-выключить, ко ...
                 _0xB1:
                +
00054d 91a0 0351+LDS R26 , _RXBUFF1 + ( 2 )
                 	__GETB2MN _RXBUFF1,2
00054f 32a9      	CPI  R26,LOW(0x29)
000550 f531      	BRNE _0xB4
                 ;		{
                 ;		if(ee_DEVICE!=1)ee_DEVICE=1;
000551 940e 145e 	CALL SUBOPT_0x25
000553 30e1      	CPI  R30,LOW(0x1)
000554 e0a0      	LDI  R26,HIGH(0x1)
000555 07fa      	CPC  R31,R26
000556 f031      	BREQ _0xB5
000557 e2a3      	LDI  R26,LOW(_ee_DEVICE)
000558 e0b0      	LDI  R27,HIGH(_ee_DEVICE)
000559 e0e1      	LDI  R30,LOW(1)
00055a e0f0      	LDI  R31,HIGH(1)
00055b 940e 1795 	CALL __EEPROMWRW
                 ;		if(ee_IMAXVENT!=(signed short)RXBUFF1[7]) ee_IMAXVENT=(signed short)RXBUFF1[7];
                 _0xB5:
00055d e2a5      	LDI  R26,LOW(_ee_IMAXVENT)
00055e e0b0      	LDI  R27,HIGH(_ee_IMAXVENT)
00055f 940e 1785 	CALL __EEPROMRDW
000561 940e 1468 	CALL SUBOPT_0x27
000563 f039      	BREQ _0xB6
                +
000564 91e0 0356+LDS R30 , _RXBUFF1 + ( 7 )
                 	__GETB1MN _RXBUFF1,7
000566 e0f0      	LDI  R31,0
000567 e2a5      	LDI  R26,LOW(_ee_IMAXVENT)
000568 e0b0      	LDI  R27,HIGH(_ee_IMAXVENT)
000569 940e 1795 	CALL __EEPROMWRW
                 ;			if(ee_TZAS!=3) ee_TZAS=3;
                 _0xB6:
00056b 940e 1463 	CALL SUBOPT_0x26
00056d 30e3      	CPI  R30,LOW(0x3)
00056e e0a0      	LDI  R26,HIGH(0x3)
00056f 07fa      	CPC  R31,R26
000570 f031      	BREQ _0xB7
000571 e1a5      	LDI  R26,LOW(_ee_TZAS)
000572 e0b0      	LDI  R27,HIGH(_ee_TZAS)
000573 e0e3      	LDI  R30,LOW(3)
000574 e0f0      	LDI  R31,HIGH(3)
000575 940e 1795 	CALL __EEPROMWRW
                 ;		}
                 _0xB7:
                 ;
                 ;	}
                 _0xB4:
                 ;
                 ;else if((RXBUFF1[0]==adress)&&(RXBUFF1[1]==adress)&&(RXBUFF1[2]==CMND)&&(RXBUFF1[3]==ALRM_RES))
000577 c0a6      	RJMP _0xB8
                 _0xAA:
000578 940e 13b4 	CALL SUBOPT_0x8
00057a f459      	BRNE _0xBA
00057b 940e 13ba 	CALL SUBOPT_0x9
00057d f441      	BRNE _0xBA
                +
00057e 91a0 0351+LDS R26 , _RXBUFF1 + ( 2 )
                 	__GETB2MN _RXBUFF1,2
000580 31a6      	CPI  R26,LOW(0x16)
000581 f421      	BRNE _0xBA
                +
000582 91a0 0352+LDS R26 , _RXBUFF1 + ( 3 )
                 	__GETB2MN _RXBUFF1,3
000584 36a3      	CPI  R26,LOW(0x63)
000585 f009      	BREQ _0xBB
                 _0xBA:
000586 c003      	RJMP _0xB9
                 _0xBB:
                 ;	{
                 ;	flags&=0b11100001;
000587 940e 146f 	CALL SUBOPT_0x28
                 ;	tsign_cnt=0;
                 ;	tmax_cnt=0;
                 ;	umax_cnt=0;
                 ;	umin_cnt=0;
                 ;	led_drv_cnt=30;
                 ;	}
                 ;else if((RXBUFF1[0]==adress)&&(RXBUFF1[1]==adress)&&(RXBUFF1[2]==CMND)&&(RXBUFF1[3]==VENT_RES))
000589 c094      	RJMP _0xBC
                 _0xB9:
00058a 940e 13b4 	CALL SUBOPT_0x8
00058c f459      	BRNE _0xBE
00058d 940e 13ba 	CALL SUBOPT_0x9
00058f f441      	BRNE _0xBE
                +
000590 91a0 0351+LDS R26 , _RXBUFF1 + ( 2 )
                 	__GETB2MN _RXBUFF1,2
000592 31a6      	CPI  R26,LOW(0x16)
000593 f421      	BRNE _0xBE
                +
000594 91a0 0352+LDS R26 , _RXBUFF1 + ( 3 )
                 	__GETB2MN _RXBUFF1,3
000596 36a4      	CPI  R26,LOW(0x64)
000597 f009      	BREQ _0xBF
                 _0xBE:
000598 c005      	RJMP _0xBD
                 _0xBF:
                 ;	{
                 ;	vent_resurs=0;
000599 e2a7      	LDI  R26,LOW(_vent_resurs)
00059a e0b0      	LDI  R27,HIGH(_vent_resurs)
00059b 940e 144f 	CALL SUBOPT_0x22
                 ;	}
                 ;else if((RXBUFF1[0]==0xff)&&(RXBUFF1[1]==0xff)&&(RXBUFF1[2]==CMND)&&(RXBUFF1[3]==CMND))
00059d c080      	RJMP _0xC0
                 _0xBD:
00059e 91a0 034f 	LDS  R26,_RXBUFF1
0005a0 3faf      	CPI  R26,LOW(0xFF)
0005a1 f461      	BRNE _0xC2
                +
0005a2 91a0 0350+LDS R26 , _RXBUFF1 + ( 1 )
                 	__GETB2MN _RXBUFF1,1
0005a4 3faf      	CPI  R26,LOW(0xFF)
0005a5 f441      	BRNE _0xC2
                +
0005a6 91a0 0351+LDS R26 , _RXBUFF1 + ( 2 )
                 	__GETB2MN _RXBUFF1,2
0005a8 31a6      	CPI  R26,LOW(0x16)
0005a9 f421      	BRNE _0xC2
                +
0005aa 91a0 0352+LDS R26 , _RXBUFF1 + ( 3 )
                 	__GETB2MN _RXBUFF1,3
0005ac 31a6      	CPI  R26,LOW(0x16)
0005ad f009      	BREQ _0xC3
                 _0xC2:
0005ae c039      	RJMP _0xC1
                 _0xC3:
                 ;	{
                 ;	if((RXBUFF1[4]==0x55)&&(RXBUFF1[5]==0x55)) _x_++;
                +
0005af 91a0 0353+LDS R26 , _RXBUFF1 + ( 4 )
                 	__GETB2MN _RXBUFF1,4
0005b1 35a5      	CPI  R26,LOW(0x55)
0005b2 f421      	BRNE _0xC5
                +
0005b3 91a0 0354+LDS R26 , _RXBUFF1 + ( 5 )
                 	__GETB2MN _RXBUFF1,5
0005b5 35a5      	CPI  R26,LOW(0x55)
0005b6 f009      	BREQ _0xC6
                 _0xC5:
0005b7 c005      	RJMP _0xC4
                 _0xC6:
0005b8 eeaf      	LDI  R26,LOW(__x_)
0005b9 e0b2      	LDI  R27,HIGH(__x_)
0005ba 940e 1489 	CALL SUBOPT_0x29
                 ;	else if((RXBUFF1[4]==0x66)&&(RXBUFF1[5]==0x66)) _x_--;
0005bc c01f      	RJMP _0xC7
                 _0xC4:
                +
0005bd 91a0 0353+LDS R26 , _RXBUFF1 + ( 4 )
                 	__GETB2MN _RXBUFF1,4
0005bf 36a6      	CPI  R26,LOW(0x66)
0005c0 f421      	BRNE _0xC9
                +
0005c1 91a0 0354+LDS R26 , _RXBUFF1 + ( 5 )
                 	__GETB2MN _RXBUFF1,5
0005c3 36a6      	CPI  R26,LOW(0x66)
0005c4 f009      	BREQ _0xCA
                 _0xC9:
0005c5 c008      	RJMP _0xC8
                 _0xCA:
0005c6 eeaf      	LDI  R26,LOW(__x_)
0005c7 e0b2      	LDI  R27,HIGH(__x_)
0005c8 91ed      	LD   R30,X+
0005c9 91fd      	LD   R31,X+
0005ca 9731      	SBIW R30,1
0005cb 93fe      	ST   -X,R31
0005cc 93ee      	ST   -X,R30
                 ;	else if((RXBUFF1[4]==0x77)&&(RXBUFF1[5]==0x77)) _x_=0;
0005cd c00e      	RJMP _0xCB
                 _0xC8:
                +
0005ce 91a0 0353+LDS R26 , _RXBUFF1 + ( 4 )
                 	__GETB2MN _RXBUFF1,4
0005d0 37a7      	CPI  R26,LOW(0x77)
0005d1 f421      	BRNE _0xCD
                +
0005d2 91a0 0354+LDS R26 , _RXBUFF1 + ( 5 )
                 	__GETB2MN _RXBUFF1,5
0005d4 37a7      	CPI  R26,LOW(0x77)
0005d5 f009      	BREQ _0xCE
                 _0xCD:
0005d6 c005      	RJMP _0xCC
                 _0xCE:
0005d7 e0e0      	LDI  R30,LOW(0)
0005d8 93e0 02ef 	STS  __x_,R30
0005da 93e0 02f0 	STS  __x_+1,R30
                 ;     gran(&_x_,-XMAX,XMAX);
                 _0xCC:
                 _0xCB:
                 _0xC7:
0005dc eeef      	LDI  R30,LOW(__x_)
0005dd e0f2      	LDI  R31,HIGH(__x_)
0005de 93fa      	ST   -Y,R31
0005df 93ea      	ST   -Y,R30
0005e0 eee7      	LDI  R30,LOW(65511)
0005e1 efff      	LDI  R31,HIGH(65511)
0005e2 93fa      	ST   -Y,R31
0005e3 93ea      	ST   -Y,R30
0005e4 e1a9      	LDI  R26,LOW(25)
0005e5 e0b0      	LDI  R27,0
0005e6 d0d9      	RCALL _gran
                 ;	}
                 ;else if((RXBUFF1[0]==adress)&&(RXBUFF1[1]==adress)&&(RXBUFF1[2]==CMND)&&(RXBUFF1[3]==RXBUFF1[4])&&(RXBUFF1[3]==0xee))
0005e7 c036      	RJMP _0xCF
                 _0xC1:
0005e8 940e 13b4 	CALL SUBOPT_0x8
0005ea f489      	BRNE _0xD1
0005eb 940e 13ba 	CALL SUBOPT_0x9
0005ed f471      	BRNE _0xD1
                +
0005ee 91a0 0351+LDS R26 , _RXBUFF1 + ( 2 )
                 	__GETB2MN _RXBUFF1,2
0005f0 31a6      	CPI  R26,LOW(0x16)
0005f1 f451      	BRNE _0xD1
                +
0005f2 91a0 0352+LDS R26 , _RXBUFF1 + ( 3 )
                 	__GETB2MN _RXBUFF1,3
                +
0005f4 91e0 0353+LDS R30 , _RXBUFF1 + ( 4 )
                 	__GETB1MN _RXBUFF1,4
0005f6 17ea      	CP   R30,R26
0005f7 f421      	BRNE _0xD1
                +
0005f8 91a0 0352+LDS R26 , _RXBUFF1 + ( 3 )
                 	__GETB2MN _RXBUFF1,3
0005fa 3eae      	CPI  R26,LOW(0xEE)
0005fb f009      	BREQ _0xD2
                 _0xD1:
0005fc c021      	RJMP _0xD0
                 _0xD2:
                 ;	{
                 ;	rotor_int++;
0005fd 940e 13f9 	CALL SUBOPT_0x11
                 ;     tempI=pwm_u;
                +
0005ff 9140 02e1+LDS R20 , 0 + ( _pwm_u )
000601 9150 02e2+LDS R21 , 0 + ( _pwm_u ) + 1
                 	__GETWRMN 20,21,0,_pwm_u
                 ;	ee_U_AVT=tempI;
000603 01fa      	MOVW R30,R20
000604 e1af      	LDI  R26,LOW(_ee_U_AVT)
000605 e0b0      	LDI  R27,HIGH(_ee_U_AVT)
000606 940e 1795 	CALL __EEPROMWRW
                 ;	delay_ms(100);
000608 e6a4      	LDI  R26,LOW(100)
000609 e0b0      	LDI  R27,0
00060a 940e 169a 	CALL _delay_ms
                 ;	if(ee_U_AVT==tempI)can_transmit1(adress,PUTID,0xdd,0xdd,0,0,0,0);
00060c 940e 148f 	CALL SUBOPT_0x2A
00060e 174e      	CP   R20,R30
00060f 075f      	CPC  R21,R31
000610 f469      	BRNE _0xD3
000611 91e0 0312 	LDS  R30,_adress
000613 93ea      	ST   -Y,R30
000614 e9e1      	LDI  R30,LOW(145)
000615 93ea      	ST   -Y,R30
000616 eded      	LDI  R30,LOW(221)
000617 93ea      	ST   -Y,R30
000618 940e 13e5 	CALL SUBOPT_0xE
00061a e0e0      	LDI  R30,LOW(0)
00061b 93ea      	ST   -Y,R30
00061c e0a0      	LDI  R26,LOW(0)
00061d db11      	RCALL _can_transmit1
                 ;
                 ;	}
                 _0xD3:
                 ;
                 ;
                 ;
                 ;
                 ;
                 ;can_in_an1_end:
                 _0xD0:
                 _0xCF:
                 _0xC0:
                 _0xBC:
                 _0xB8:
                 _0xA9:
                 _0x9E:
                 _0x72:
                 ;bIN1=0;
00061e e0e0      	LDI  R30,LOW(0)
00061f 93e0 0377 	STS  _bIN1,R30
                 ;}
000621 940e 17c3 	CALL __LOADLOCR6
000623 c0d9      	RJMP _0x20C0002
                 ; .FEND
                 ;
                 ;//-----------------------------------------------
                 ;void net_drv(void)
                 ;{
                 _net_drv:
                 ; .FSTART _net_drv
                 ;//char temp_;
                 ;if(bMAIN)
000624 b5ea      	IN   R30,0x2A
000625 ffe1      	SBRS R30,1
000626 c074      	RJMP _0xD5
                 ;	{
                 ;	if(++cnt_net_drv>=7) cnt_net_drv=0;
000627 91a0 0318 	LDS  R26,_cnt_net_drv
000629 5faf      	SUBI R26,-LOW(1)
00062a 93a0 0318 	STS  _cnt_net_drv,R26
00062c 30a7      	CPI  R26,LOW(0x7)
00062d f018      	BRLO _0xD6
00062e e0e0      	LDI  R30,LOW(0)
00062f 93e0 0318 	STS  _cnt_net_drv,R30
                 ;
                 ;	if(cnt_net_drv<=5)
                 _0xD6:
000631 91a0 0318 	LDS  R26,_cnt_net_drv
000633 30a6      	CPI  R26,LOW(0x6)
000634 f5c0      	BRSH _0xD7
                 ;		{
                 ;		can_transmit1(cnt_net_drv,cnt_net_drv,GETTM,0,(char)(volum_u_main_+x[cnt_net_drv]),(char)((volum_u_main_+x[cnt_net_drv ...
000635 91e0 0318 	LDS  R30,_cnt_net_drv
000637 93ea      	ST   -Y,R30
000638 93ea      	ST   -Y,R30
000639 eeed      	LDI  R30,LOW(237)
00063a 93ea      	ST   -Y,R30
00063b e0e0      	LDI  R30,LOW(0)
00063c 940e 1494 	CALL SUBOPT_0x2B
00063e 91ec      	LD   R30,X
00063f 91a0 0320 	LDS  R26,_volum_u_main_
000641 0fea      	ADD  R30,R26
000642 940e 1494 	CALL SUBOPT_0x2B
000644 940e 1766 	CALL __GETW1P
000646 91a0 0320 	LDS  R26,_volum_u_main_
000648 91b0 0321 	LDS  R27,_volum_u_main_+1
00064a 0fae      	ADD  R26,R30
00064b 1fbf      	ADC  R27,R31
00064c e0e0      	LDI  R30,LOW(256)
00064d e0f1      	LDI  R31,HIGH(256)
00064e 940e 1716 	CALL __DIVW21
000650 93ea      	ST   -Y,R30
000651 eee8      	LDI  R30,LOW(232)
000652 93ea      	ST   -Y,R30
000653 eea8      	LDI  R26,LOW(232)
000654 dada      	RCALL _can_transmit1
                 ;		i_main_bps_cnt[cnt_net_drv]++;
000655 91a0 0318 	LDS  R26,_cnt_net_drv
000657 e0b0      	LDI  R27,0
000658 5bab      	SUBI R26,LOW(-_i_main_bps_cnt)
000659 4fbc      	SBCI R27,HIGH(-_i_main_bps_cnt)
00065a 91ec      	LD   R30,X
00065b 5fef      	SUBI R30,-LOW(1)
00065c 93ec      	ST   X,R30
                 ;		if(i_main_bps_cnt[cnt_net_drv]>10)i_main_flag[cnt_net_drv]=0;
00065d 91e0 0318 	LDS  R30,_cnt_net_drv
00065f e0f0      	LDI  R31,0
000660 5beb      	SUBI R30,LOW(-_i_main_bps_cnt)
000661 4ffc      	SBCI R31,HIGH(-_i_main_bps_cnt)
000662 81a0      	LD   R26,Z
000663 30ab      	CPI  R26,LOW(0xB)
000664 f038      	BRLO _0xD8
000665 91e0 0318 	LDS  R30,_cnt_net_drv
000667 e0f0      	LDI  R31,0
000668 5ce6      	SUBI R30,LOW(-_i_main_flag)
000669 4ffc      	SBCI R31,HIGH(-_i_main_flag)
00066a e0a0      	LDI  R26,LOW(0)
00066b 83a0      	STD  Z+0,R26
                 ;		}
                 _0xD8:
                 ;	else if(cnt_net_drv==6)
00066c c02e      	RJMP _0xD9
                 _0xD7:
00066d 91a0 0318 	LDS  R26,_cnt_net_drv
00066f 30a6      	CPI  R26,LOW(0x6)
000670 f551      	BRNE _0xDA
                 ;		{
                 ;		plazma_int[2]=pwm_u;
000671 91e0 02e1 	LDS  R30,_pwm_u
000673 91f0 02e2 	LDS  R31,_pwm_u+1
                +
000675 93e0 02fb+STS _plazma_int + ( 4 ) , R30
000677 93f0 02fc+STS _plazma_int + ( 4 ) + 1 , R31
                 	__PUTW1MN _plazma_int,4
                 ;		can_transmit1(adress,PUTTM1,*(((char*)&I)+1),*((char*)&I),*(((char*)&Un)+1),*((char*)&Un),*(((char*)&Ui)+1),*((char*)& ...
000679 91e0 0312 	LDS  R30,_adress
00067b 93ea      	ST   -Y,R30
00067c edea      	LDI  R30,LOW(218)
00067d 93ea      	ST   -Y,R30
                +
00067e 91e0 02b9+LDS R30 , _I + ( 1 )
                 	__GETB1MN _I,1
000680 93ea      	ST   -Y,R30
000681 91e0 02b8 	LDS  R30,_I
000683 93ea      	ST   -Y,R30
                +
000684 91e0 02bb+LDS R30 , _Un + ( 1 )
                 	__GETB1MN _Un,1
000686 93ea      	ST   -Y,R30
000687 91e0 02ba 	LDS  R30,_Un
000689 93ea      	ST   -Y,R30
                +
00068a 91e0 02bd+LDS R30 , _Ui + ( 1 )
                 	__GETB1MN _Ui,1
00068c 93ea      	ST   -Y,R30
00068d 91a0 02bc 	LDS  R26,_Ui
00068f 940e 13ce 	CALL SUBOPT_0xC
                 ;		can_transmit1(adress,PUTTM2,T,vent_resurs_buff[vent_resurs_tx_cnt],flags,_x_,*(((char*)&plazma_int[2])+1),*((char*)&pl ...
000691 91e0 02c0 	LDS  R30,_T
000693 940e 13d6 	CALL SUBOPT_0xD
                +
000695 91e0 02fc+LDS R30 , _plazma_int + ( 5 )
                 	__GETB1MN _plazma_int,5
000697 93ea      	ST   -Y,R30
                +
000698 91a0 02fb+LDS R26 , _plazma_int + ( 4 )
                 	__GETB2MN _plazma_int,4
00069a da94      	RCALL _can_transmit1
                 ;		}
                 ;	}
                 _0xDA:
                 _0xD9:
                 ;}
                 _0xD5:
00069b 9508      	RET
                 ; .FEND
                 ;
                 ;
                 ;
                 ;
                 ;
                 ;
                 ;
                 ;
                 ;
                 ;
                 ;
                 ;
                 ;
                 ;
                 ;
                 ;//-----------------------------------------------
                 ;void t0_init(void)
                 ; 0000 00BF {
                 _t0_init:
                 ; .FSTART _t0_init
                 ; 0000 00C0 TCCR0A=0x00;
00069c e0e0      	LDI  R30,LOW(0)
00069d bde4      	OUT  0x24,R30
                 ; 0000 00C1 TCCR0B=0x05;
00069e e0e5      	LDI  R30,LOW(5)
00069f bde5      	OUT  0x25,R30
                 ; 0000 00C2 TCNT0=-8;
0006a0 efe8      	LDI  R30,LOW(248)
0006a1 bde6      	OUT  0x26,R30
                 ; 0000 00C3 TIMSK0=0x01;
0006a2 e0e1      	LDI  R30,LOW(1)
0006a3 93e0 006e 	STS  110,R30
                 ; 0000 00C4 }
0006a5 9508      	RET
                 ; .FEND
                 ;
                 ;//-----------------------------------------------
                 ;char adr_gran(signed short in)
                 ; 0000 00C8 {
                 _adr_gran:
                 ; .FSTART _adr_gran
                 ; 0000 00C9 if(in>800)return 1;
0006a6 93ba      	ST   -Y,R27
0006a7 93aa      	ST   -Y,R26
                 ;	in -> Y+0
0006a8 81a8      	LD   R26,Y
0006a9 81b9      	LDD  R27,Y+1
0006aa 32a1      	CPI  R26,LOW(0x321)
0006ab e0e3      	LDI  R30,HIGH(0x321)
0006ac 07be      	CPC  R27,R30
0006ad f014      	BRLT _0xDB
0006ae e0e1      	LDI  R30,LOW(1)
0006af c00e      	RJMP _0x20C0003
                 ; 0000 00CA else if((in>80)&&(in<120))return 0;
                 _0xDB:
0006b0 81a8      	LD   R26,Y
0006b1 81b9      	LDD  R27,Y+1
0006b2 35a1      	CPI  R26,LOW(0x51)
0006b3 e0e0      	LDI  R30,HIGH(0x51)
0006b4 07be      	CPC  R27,R30
0006b5 f024      	BRLT _0xDE
0006b6 37a8      	CPI  R26,LOW(0x78)
0006b7 e0e0      	LDI  R30,HIGH(0x78)
0006b8 07be      	CPC  R27,R30
0006b9 f00c      	BRLT _0xDF
                 _0xDE:
0006ba c002      	RJMP _0xDD
                 _0xDF:
0006bb e0e0      	LDI  R30,LOW(0)
0006bc c001      	RJMP _0x20C0003
                 ; 0000 00CB else return 100;
                 _0xDD:
0006bd e6e4      	LDI  R30,LOW(100)
                 ; 0000 00CC }
                 _0x20C0003:
0006be 9622      	ADIW R28,2
0006bf 9508      	RET
                 ; .FEND
                 ;
                 ;
                 ;//-----------------------------------------------
                 ;void gran(signed int *adr, signed int min, signed int max)
                 ; 0000 00D1 {
                 _gran:
                 ; .FSTART _gran
                 ; 0000 00D2 if (*adr<min) *adr=min;
0006c0 93ba      	ST   -Y,R27
0006c1 93aa      	ST   -Y,R26
                 ;	*adr -> Y+4
                 ;	min -> Y+2
                 ;	max -> Y+0
0006c2 81ac      	LDD  R26,Y+4
0006c3 81bd      	LDD  R27,Y+4+1
0006c4 940e 1766 	CALL __GETW1P
0006c6 01df      	MOVW R26,R30
0006c7 81ea      	LDD  R30,Y+2
0006c8 81fb      	LDD  R31,Y+2+1
0006c9 17ae      	CP   R26,R30
0006ca 07bf      	CPC  R27,R31
0006cb f424      	BRGE _0xE1
0006cc 81ac      	LDD  R26,Y+4
0006cd 81bd      	LDD  R27,Y+4+1
0006ce 93ed      	ST   X+,R30
0006cf 93fc      	ST   X,R31
                 ; 0000 00D3 if (*adr>max) *adr=max;
                 _0xE1:
0006d0 81ac      	LDD  R26,Y+4
0006d1 81bd      	LDD  R27,Y+4+1
0006d2 940e 1766 	CALL __GETW1P
0006d4 01df      	MOVW R26,R30
0006d5 81e8      	LD   R30,Y
0006d6 81f9      	LDD  R31,Y+1
0006d7 17ea      	CP   R30,R26
0006d8 07fb      	CPC  R31,R27
0006d9 f424      	BRGE _0xE2
0006da 81ac      	LDD  R26,Y+4
0006db 81bd      	LDD  R27,Y+4+1
0006dc 93ed      	ST   X+,R30
0006dd 93fc      	ST   X,R31
                 ; 0000 00D4 }
                 _0xE2:
0006de c01e      	RJMP _0x20C0002
                 ; .FEND
                 ;
                 ;
                 ;//-----------------------------------------------
                 ;void granee(eeprom signed int *adr, signed int min, signed int max)
                 ; 0000 00D9 {
                 _granee:
                 ; .FSTART _granee
                 ; 0000 00DA if (*adr<min) *adr=min;
0006df 93ba      	ST   -Y,R27
0006e0 93aa      	ST   -Y,R26
                 ;	*adr -> Y+4
                 ;	min -> Y+2
                 ;	max -> Y+0
0006e1 81ac      	LDD  R26,Y+4
0006e2 81bd      	LDD  R27,Y+4+1
0006e3 940e 1785 	CALL __EEPROMRDW
0006e5 01df      	MOVW R26,R30
0006e6 81ea      	LDD  R30,Y+2
0006e7 81fb      	LDD  R31,Y+2+1
0006e8 17ae      	CP   R26,R30
0006e9 07bf      	CPC  R27,R31
0006ea f424      	BRGE _0xE3
0006eb 81ac      	LDD  R26,Y+4
0006ec 81bd      	LDD  R27,Y+4+1
0006ed 940e 1795 	CALL __EEPROMWRW
                 ; 0000 00DB if (*adr>max) *adr=max;
                 _0xE3:
0006ef 81ac      	LDD  R26,Y+4
0006f0 81bd      	LDD  R27,Y+4+1
0006f1 940e 1785 	CALL __EEPROMRDW
0006f3 01df      	MOVW R26,R30
0006f4 81e8      	LD   R30,Y
0006f5 81f9      	LDD  R31,Y+1
0006f6 17ea      	CP   R30,R26
0006f7 07fb      	CPC  R31,R27
0006f8 f424      	BRGE _0xE4
0006f9 81ac      	LDD  R26,Y+4
0006fa 81bd      	LDD  R27,Y+4+1
0006fb 940e 1795 	CALL __EEPROMWRW
                 ; 0000 00DC }
                 _0xE4:
                 _0x20C0002:
0006fd 9626      	ADIW R28,6
0006fe 9508      	RET
                 ; .FEND
                 ;
                 ;//-----------------------------------------------
                 ;void x_drv(void)
                 ; 0000 00E0 {
                 _x_drv:
                 ; .FSTART _x_drv
                 ; 0000 00E1 if(_x__==_x_)
0006ff 940e 149f 	CALL SUBOPT_0x2C
000701 91a0 02f1 	LDS  R26,__x__
000703 91b0 02f2 	LDS  R27,__x__+1
000705 17ea      	CP   R30,R26
000706 07fb      	CPC  R31,R27
000707 f509      	BRNE _0xE5
                 ; 0000 00E2 	{
                 ; 0000 00E3 	if(_x_cnt<60)
000708 91a0 02f3 	LDS  R26,__x_cnt
00070a 91b0 02f4 	LDS  R27,__x_cnt+1
00070c 97dc      	SBIW R26,60
00070d f4d4      	BRGE _0xE6
                 ; 0000 00E4 		{
                 ; 0000 00E5 		_x_cnt++;
00070e efa3      	LDI  R26,LOW(__x_cnt)
00070f e0b2      	LDI  R27,HIGH(__x_cnt)
000710 940e 1489 	CALL SUBOPT_0x29
                 ; 0000 00E6 		if(_x_cnt>=60)
000712 91a0 02f3 	LDS  R26,__x_cnt
000714 91b0 02f4 	LDS  R27,__x_cnt+1
000716 97dc      	SBIW R26,60
000717 f084      	BRLT _0xE7
                 ; 0000 00E7 			{
                 ; 0000 00E8 			if(_x_ee_!=_x_)_x_ee_=_x_;
000718 e1a0      	LDI  R26,LOW(__x_ee_)
000719 e0b0      	LDI  R27,HIGH(__x_ee_)
00071a 940e 1785 	CALL __EEPROMRDW
00071c 01df      	MOVW R26,R30
00071d 940e 149f 	CALL SUBOPT_0x2C
00071f 17ea      	CP   R30,R26
000720 07fb      	CPC  R31,R27
000721 f031      	BREQ _0xE8
000722 940e 149f 	CALL SUBOPT_0x2C
000724 e1a0      	LDI  R26,LOW(__x_ee_)
000725 e0b0      	LDI  R27,HIGH(__x_ee_)
000726 940e 1795 	CALL __EEPROMWRW
                 ; 0000 00E9 			}
                 _0xE8:
                 ; 0000 00EA 		}
                 _0xE7:
                 ; 0000 00EB 
                 ; 0000 00EC 	}
                 _0xE6:
                 ; 0000 00ED else _x_cnt=0;
000728 c005      	RJMP _0xE9
                 _0xE5:
000729 e0e0      	LDI  R30,LOW(0)
00072a 93e0 02f3 	STS  __x_cnt,R30
00072c 93e0 02f4 	STS  __x_cnt+1,R30
                 ; 0000 00EE 
                 ; 0000 00EF if(_x_cnt>60) _x_cnt=0;
                 _0xE9:
00072e 91a0 02f3 	LDS  R26,__x_cnt
000730 91b0 02f4 	LDS  R27,__x_cnt+1
000732 97dd      	SBIW R26,61
000733 f02c      	BRLT _0xEA
000734 e0e0      	LDI  R30,LOW(0)
000735 93e0 02f3 	STS  __x_cnt,R30
000737 93e0 02f4 	STS  __x_cnt+1,R30
                 ; 0000 00F0 
                 ; 0000 00F1 _x__=_x_;
                 _0xEA:
000739 940e 149f 	CALL SUBOPT_0x2C
00073b 93e0 02f1 	STS  __x__,R30
00073d 93f0 02f2 	STS  __x__+1,R31
                 ; 0000 00F2 }
00073f 9508      	RET
                 ; .FEND
                 ;
                 ;//-----------------------------------------------
                 ;void apv_start(void)
                 ; 0000 00F6 {
                 _apv_start:
                 ; .FSTART _apv_start
                 ; 0000 00F7 if((apv_cnt[0]==0)&&(apv_cnt[1]==0)&&(apv_cnt[2]==0)&&!bAPV)
000740 91a0 0303 	LDS  R26,_apv_cnt
000742 30a0      	CPI  R26,LOW(0x0)
000743 f461      	BRNE _0xEC
                +
000744 91a0 0304+LDS R26 , _apv_cnt + ( 1 )
                 	__GETB2MN _apv_cnt,1
000746 30a0      	CPI  R26,LOW(0x0)
000747 f441      	BRNE _0xEC
                +
000748 91a0 0305+LDS R26 , _apv_cnt + ( 2 )
                 	__GETB2MN _apv_cnt,2
00074a 30a0      	CPI  R26,LOW(0x0)
00074b f421      	BRNE _0xEC
00074c 91e0 0308 	LDS  R30,_bAPV
00074e 30e0      	CPI  R30,0
00074f f009      	BREQ _0xED
                 _0xEC:
000750 c010      	RJMP _0xEB
                 _0xED:
                 ; 0000 00F8 	{
                 ; 0000 00F9 	apv_cnt[0]=60;
000751 e3ec      	LDI  R30,LOW(60)
000752 93e0 0303 	STS  _apv_cnt,R30
                 ; 0000 00FA 	apv_cnt[1]=60;
                +
000754 93e0 0304+STS _apv_cnt + ( 1 ) , R30
                 	__PUTB1MN _apv_cnt,1
                 ; 0000 00FB 	apv_cnt[2]=60;
                +
000756 93e0 0305+STS _apv_cnt + ( 2 ) , R30
                 	__PUTB1MN _apv_cnt,2
                 ; 0000 00FC 	apv_cnt_=3600;
000758 e1e0      	LDI  R30,LOW(3600)
000759 e0fe      	LDI  R31,HIGH(3600)
00075a 93e0 0306 	STS  _apv_cnt_,R30
00075c 93f0 0307 	STS  _apv_cnt_+1,R31
                 ; 0000 00FD 	bAPV=1;
00075e e0e1      	LDI  R30,LOW(1)
00075f 93e0 0308 	STS  _bAPV,R30
                 ; 0000 00FE 	}
                 ; 0000 00FF }
                 _0xEB:
000761 9508      	RET
                 ; .FEND
                 ;
                 ;//-----------------------------------------------
                 ;void apv_stop(void)
                 ; 0000 0103 {
                 _apv_stop:
                 ; .FSTART _apv_stop
                 ; 0000 0104 apv_cnt[0]=0;
000762 e0e0      	LDI  R30,LOW(0)
000763 93e0 0303 	STS  _apv_cnt,R30
                 ; 0000 0105 apv_cnt[1]=0;
                +
000765 93e0 0304+STS _apv_cnt + ( 1 ) , R30
                 	__PUTB1MN _apv_cnt,1
                 ; 0000 0106 apv_cnt[2]=0;
                +
000767 93e0 0305+STS _apv_cnt + ( 2 ) , R30
                 	__PUTB1MN _apv_cnt,2
                 ; 0000 0107 apv_cnt_=0;
000769 93e0 0306 	STS  _apv_cnt_,R30
00076b 93e0 0307 	STS  _apv_cnt_+1,R30
                 ; 0000 0108 bAPV=0;
00076d 93e0 0308 	STS  _bAPV,R30
                 ; 0000 0109 }
00076f 9508      	RET
                 ; .FEND
                 ;
                 ;
                 ;//-----------------------------------------------
                 ;void av_wrk_drv(void)
                 ; 0000 010E {
                 ; 0000 010F adc_ch_2_delta=(char)(adc_ch_2_max-adc_ch_2_min);
                 ; 0000 0110 adc_ch_2_max=adc_buff_[2];
                 ; 0000 0111 adc_ch_2_min=adc_buff_[2];
                 ; 0000 0112 if(PORTD.7==0)
                 ; 0000 0113 	{
                 ; 0000 0114 	if(adc_ch_2_delta>=5)
                 ; 0000 0115 		{
                 ; 0000 0116 		cnt_adc_ch_2_delta++;
                 ; 0000 0117 		if(cnt_adc_ch_2_delta>=10)
                 ; 0000 0118 			{
                 ; 0000 0119 			flags|=0x10;
                 ; 0000 011A 			apv_start();
                 ; 0000 011B 			}
                 ; 0000 011C 		}
                 ; 0000 011D 	else
                 ; 0000 011E 		{
                 ; 0000 011F 		cnt_adc_ch_2_delta=0;
                 ; 0000 0120 		}
                 ; 0000 0121 	}
                 ; 0000 0122 else cnt_adc_ch_2_delta=0;
                 ; 0000 0123 }
                 ;
                 ;//-----------------------------------------------
                 ;void led_drv_1(void)
                 ; 0000 0127 {
                 ; 0000 0128 DDRD.1=1;
                 ; 0000 0129 if(led_green_buff&0b1L) PORTD.1=1;
                 ; 0000 012A else PORTD.1=0;
                 ; 0000 012B DDRD.0=1;
                 ; 0000 012C if(led_red_buff&0b1L) PORTD.0=1;
                 ; 0000 012D else PORTD.0=0;
                 ; 0000 012E 
                 ; 0000 012F 
                 ; 0000 0130 led_red_buff>>=1;
                 ; 0000 0131 led_green_buff>>=1;
                 ; 0000 0132 if(++led_drv_cnt>32)
                 ; 0000 0133 	{
                 ; 0000 0134 	led_drv_cnt=0;
                 ; 0000 0135 	led_red_buff=led_red;
                 ; 0000 0136 	led_green_buff=led_green;
                 ; 0000 0137 	}
                 ; 0000 0138 
                 ; 0000 0139 }
                 ;
                 ;//-----------------------------------------------
                 ;void led_drv(void)
                 ; 0000 013D {
                 _led_drv:
                 ; .FSTART _led_drv
                 ; 0000 013E //Красный светодиод
                 ; 0000 013F DDRD.0=1;
000770 9a50      	SBI  0xA,0
                 ; 0000 0140 if(led_red_buff&0b1L)   PORTD.0=1; 	//Горит если в led_red_buff 1 и на ножке 1
000771 91e0 02d2 	LDS  R30,_led_red_buff
000773 70e1      	ANDI R30,LOW(0x1)
000774 f011      	BREQ _0x106
000775 9a58      	SBI  0xB,0
                 ; 0000 0141 else                    PORTD.0=0;
000776 c001      	RJMP _0x109
                 _0x106:
000777 9858      	CBI  0xB,0
                 ; 0000 0142 
                 ; 0000 0143 //Зеленый светодиод
                 ; 0000 0144 DDRD.1=1;
                 _0x109:
000778 9a51      	SBI  0xA,1
                 ; 0000 0145 if(led_green_buff&0b1L) PORTD.1=1;	//Горит если в led_green_buff 1 и на ножке 1
000779 91e0 02d6 	LDS  R30,_led_green_buff
00077b 70e1      	ANDI R30,LOW(0x1)
00077c f011      	BREQ _0x10E
00077d 9a59      	SBI  0xB,1
                 ; 0000 0146 else                    PORTD.1=0;
00077e c001      	RJMP _0x111
                 _0x10E:
00077f 9859      	CBI  0xB,1
                 ; 0000 0147 
                 ; 0000 0148 
                 ; 0000 0149 led_red_buff>>=1;
                 _0x111:
000780 91e0 02d2 	LDS  R30,_led_red_buff
000782 91f0 02d3 	LDS  R31,_led_red_buff+1
000784 9160 02d4 	LDS  R22,_led_red_buff+2
000786 9170 02d5 	LDS  R23,_led_red_buff+3
000788 940e 16be 	CALL __ASRD1
00078a 940e 14a4 	CALL SUBOPT_0x2D
                 ; 0000 014A led_green_buff>>=1;
00078c 91e0 02d6 	LDS  R30,_led_green_buff
00078e 91f0 02d7 	LDS  R31,_led_green_buff+1
000790 9160 02d8 	LDS  R22,_led_green_buff+2
000792 9170 02d9 	LDS  R23,_led_green_buff+3
000794 940e 16be 	CALL __ASRD1
000796 940e 14ad 	CALL SUBOPT_0x2E
                 ; 0000 014B if(++led_drv_cnt>32)
000798 91a0 02d1 	LDS  R26,_led_drv_cnt
00079a 5faf      	SUBI R26,-LOW(1)
00079b 93a0 02d1 	STS  _led_drv_cnt,R26
00079d 32a1      	CPI  R26,LOW(0x21)
00079e f0b8      	BRLO _0x114
                 ; 0000 014C 	{
                 ; 0000 014D 	led_drv_cnt=0;
00079f e0e0      	LDI  R30,LOW(0)
0007a0 93e0 02d1 	STS  _led_drv_cnt,R30
                 ; 0000 014E 	led_red_buff=led_red;
0007a2 91e0 02c9 	LDS  R30,_led_red
0007a4 91f0 02ca 	LDS  R31,_led_red+1
0007a6 9160 02cb 	LDS  R22,_led_red+2
0007a8 9170 02cc 	LDS  R23,_led_red+3
0007aa 940e 14a4 	CALL SUBOPT_0x2D
                 ; 0000 014F 	led_green_buff=led_green;
0007ac 91e0 02cd 	LDS  R30,_led_green
0007ae 91f0 02ce 	LDS  R31,_led_green+1
0007b0 9160 02cf 	LDS  R22,_led_green+2
0007b2 9170 02d0 	LDS  R23,_led_green+3
0007b4 940e 14ad 	CALL SUBOPT_0x2E
                 ; 0000 0150 	}
                 ; 0000 0151 
                 ; 0000 0152 }
                 _0x114:
0007b6 9508      	RET
                 ; .FEND
                 ;
                 ;//-----------------------------------------------
                 ;void flags_drv(void)
                 ; 0000 0156 {
                 _flags_drv:
                 ; .FSTART _flags_drv
                 ; 0000 0157 static char flags_old;
                 ; 0000 0158 if(jp_mode!=jp3)
0007b7 91a0 02ec 	LDS  R26,_jp_mode
0007b9 30a3      	CPI  R26,LOW(0x3)
0007ba f0e9      	BREQ _0x115
                 ; 0000 0159 	{
                 ; 0000 015A 	if(((flags&0b00001000)&&(!(flags_old&0b00001000)))||((flags&0b00010000)&&(!(flags_old&0b00010000))&&(ee_AVT_MODE!=0x55) ...
0007bb 91e0 02c3 	LDS  R30,_flags
0007bd 70e8      	ANDI R30,LOW(0x8)
0007be f021      	BREQ _0x117
0007bf 91e0 039c 	LDS  R30,_flags_old_S000001B000
0007c1 70e8      	ANDI R30,LOW(0x8)
0007c2 f079      	BREQ _0x119
                 _0x117:
0007c3 91e0 02c3 	LDS  R30,_flags
0007c5 71e0      	ANDI R30,LOW(0x10)
0007c6 f051      	BREQ _0x11A
0007c7 91e0 039c 	LDS  R30,_flags_old_S000001B000
0007c9 71e0      	ANDI R30,LOW(0x10)
0007ca f431      	BRNE _0x11A
0007cb 940e 144a 	CALL SUBOPT_0x21
0007cd 35e5      	CPI  R30,LOW(0x55)
0007ce e0a0      	LDI  R26,HIGH(0x55)
0007cf 07fa      	CPC  R31,R26
0007d0 f409      	BRNE _0x119
                 _0x11A:
0007d1 c005      	RJMP _0x116
                 _0x119:
                 ; 0000 015B     		{
                 ; 0000 015C     		if(link==OFF)apv_start();
0007d2 91a0 02da 	LDS  R26,_link
0007d4 3aaa      	CPI  R26,LOW(0xAA)
0007d5 f409      	BRNE _0x11D
0007d6 df69      	RCALL _apv_start
                 ; 0000 015D     		}
                 _0x11D:
                 ; 0000 015E      }
                 _0x116:
                 ; 0000 015F else if(jp_mode==jp3)
0007d7 c00e      	RJMP _0x11E
                 _0x115:
0007d8 91a0 02ec 	LDS  R26,_jp_mode
0007da 30a3      	CPI  R26,LOW(0x3)
0007db f451      	BRNE _0x11F
                 ; 0000 0160 	{
                 ; 0000 0161 	if((flags&0b00001000)&&(!(flags_old&0b00001000)))
0007dc 91e0 02c3 	LDS  R30,_flags
0007de 70e8      	ANDI R30,LOW(0x8)
0007df f021      	BREQ _0x121
0007e0 91e0 039c 	LDS  R30,_flags_old_S000001B000
0007e2 70e8      	ANDI R30,LOW(0x8)
0007e3 f009      	BREQ _0x122
                 _0x121:
0007e4 c001      	RJMP _0x120
                 _0x122:
                 ; 0000 0162     		{
                 ; 0000 0163     		apv_start();
0007e5 df5a      	RCALL _apv_start
                 ; 0000 0164     		}
                 ; 0000 0165      }
                 _0x120:
                 ; 0000 0166 flags_old=flags;
                 _0x11F:
                 _0x11E:
0007e6 91e0 02c3 	LDS  R30,_flags
0007e8 93e0 039c 	STS  _flags_old_S000001B000,R30
                 ; 0000 0167 
                 ; 0000 0168 }
0007ea 9508      	RET
                 ; .FEND
                 ;
                 ;//-----------------------------------------------
                 ;void adr_hndl_100004(void)
                 ; 0000 016C {
                 _adr_hndl_100004:
                 ; .FSTART _adr_hndl_100004
                 ; 0000 016D signed tempSI;
                 ; 0000 016E char aaa[3];
                 ; 0000 016F char aaaa[3];
                 ; 0000 0170 DDRC=0b00000000;
0007eb 9726      	SBIW R28,6
0007ec 931a      	ST   -Y,R17
0007ed 930a      	ST   -Y,R16
                 ;	tempSI -> R16,R17
                 ;	aaa -> Y+5
                 ;	aaaa -> Y+2
0007ee e0e0      	LDI  R30,LOW(0)
0007ef b9e7      	OUT  0x7,R30
                 ; 0000 0171 PORTC=0b00011110;
0007f0 e1ee      	LDI  R30,LOW(30)
0007f1 b9e8      	OUT  0x8,R30
                 ; 0000 0172 /*char i;
                 ; 0000 0173 DDRD&=0b11100011;
                 ; 0000 0174 PORTD|=0b00011100;
                 ; 0000 0175 
                 ; 0000 0176 //adr_new=((char)(!PIND.2))+(((char)(!PIND.3))*2)+((char)(!PIND.4)*4);
                 ; 0000 0177 
                 ; 0000 0178 
                 ; 0000 0179 adr_new=(PIND&0b00011100)>>2;
                 ; 0000 017A 
                 ; 0000 017B if(adr_new==adr_old)
                 ; 0000 017C  	{
                 ; 0000 017D  	if(adr_cnt<100)
                 ; 0000 017E  		{
                 ; 0000 017F  		adr_cnt++;
                 ; 0000 0180  	     if(adr_cnt>=100)
                 ; 0000 0181  	     	{
                 ; 0000 0182  	     	adr_temp=adr_new;
                 ; 0000 0183  	     	}
                 ; 0000 0184  	     }
                 ; 0000 0185    	}
                 ; 0000 0186 else adr_cnt=0;
                 ; 0000 0187 adr_old=adr_new;
                 ; 0000 0188 if(adr!=CONST_ADR[adr_temp]) adr=CONST_ADR[adr_temp];
                 ; 0000 0189 
                 ; 0000 018A 
                 ; 0000 018B //if(adr!=0b00000011)adr=0b00000011;*/
                 ; 0000 018C 
                 ; 0000 018D 
                 ; 0000 018E 
                 ; 0000 018F ADMUX=0b01000110;
0007f2 e4e6      	LDI  R30,LOW(70)
0007f3 940e 14b6 	CALL SUBOPT_0x2F
                 ; 0000 0190 ADCSRA=0b10100110;
                 ; 0000 0191 ADCSRA|=0b01000000;
                 ; 0000 0192 delay_ms(10);
                 ; 0000 0193 //plazma_int[0]=ADCW;
                 ; 0000 0194 aaa[0]=adr_gran(ADCW);
0007f5 940e 14c1 	CALL SUBOPT_0x30
0007f7 deae      	RCALL _adr_gran
0007f8 83ed      	STD  Y+5,R30
                 ; 0000 0195 tempSI=ADCW/200;
0007f9 940e 14c6 	CALL SUBOPT_0x31
                 ; 0000 0196 gran(&tempSI,0,3);
0007fb b7ed      	IN   R30,SPL
0007fc b7fe      	IN   R31,SPH
0007fd 9731      	SBIW R30,1
0007fe 93fa      	ST   -Y,R31
0007ff 93ea      	ST   -Y,R30
000800 931f      	PUSH R17
000801 930f      	PUSH R16
000802 940e 14cd 	CALL SUBOPT_0x32
000804 910f      	POP  R16
000805 911f      	POP  R17
                 ; 0000 0197 aaaa[0]=(char)tempSI;
                +
000806 830a     +STD Y + 2 , R16
                 	__PUTBSR 16,2
                 ; 0000 0198 
                 ; 0000 0199 ADMUX=0b01000111;
000807 e4e7      	LDI  R30,LOW(71)
000808 940e 14b6 	CALL SUBOPT_0x2F
                 ; 0000 019A ADCSRA=0b10100110;
                 ; 0000 019B ADCSRA|=0b01000000;
                 ; 0000 019C delay_ms(10);
                 ; 0000 019D //plazma_int[1]=ADCW;
                 ; 0000 019E aaa[1]=adr_gran(ADCW);
00080a 940e 14c1 	CALL SUBOPT_0x30
00080c de99      	RCALL _adr_gran
00080d 83ee      	STD  Y+6,R30
                 ; 0000 019F tempSI=ADCW/200;
00080e 940e 14c6 	CALL SUBOPT_0x31
                 ; 0000 01A0 gran(&tempSI,0,3);
000810 b7ed      	IN   R30,SPL
000811 b7fe      	IN   R31,SPH
000812 9731      	SBIW R30,1
000813 93fa      	ST   -Y,R31
000814 93ea      	ST   -Y,R30
000815 931f      	PUSH R17
000816 930f      	PUSH R16
000817 940e 14cd 	CALL SUBOPT_0x32
000819 910f      	POP  R16
00081a 911f      	POP  R17
                 ; 0000 01A1 aaaa[1]=(char)tempSI;
00081b 01fe      	MOVW R30,R28
00081c 9633      	ADIW R30,3
00081d 8300      	ST   Z,R16
                 ; 0000 01A2 
                 ; 0000 01A3 
                 ; 0000 01A4 ADMUX=0b01000000;
00081e e4e0      	LDI  R30,LOW(64)
00081f 940e 14b6 	CALL SUBOPT_0x2F
                 ; 0000 01A5 ADCSRA=0b10100110;
                 ; 0000 01A6 ADCSRA|=0b01000000;
                 ; 0000 01A7 delay_ms(10);
                 ; 0000 01A8 //plazma_int[2]=ADCW;
                 ; 0000 01A9 aaa[2]=adr_gran(ADCW);
000821 940e 14c1 	CALL SUBOPT_0x30
000823 de82      	RCALL _adr_gran
000824 83ef      	STD  Y+7,R30
                 ; 0000 01AA tempSI=ADCW/200;
000825 940e 14c6 	CALL SUBOPT_0x31
                 ; 0000 01AB gran(&tempSI,0,3);
000827 b7ed      	IN   R30,SPL
000828 b7fe      	IN   R31,SPH
000829 9731      	SBIW R30,1
00082a 93fa      	ST   -Y,R31
00082b 93ea      	ST   -Y,R30
00082c 931f      	PUSH R17
00082d 930f      	PUSH R16
00082e 940e 14cd 	CALL SUBOPT_0x32
000830 910f      	POP  R16
000831 911f      	POP  R17
                 ; 0000 01AC aaaa[2]=(char)tempSI;
000832 01fe      	MOVW R30,R28
000833 9634      	ADIW R30,4
000834 8300      	ST   Z,R16
                 ; 0000 01AD 
                 ; 0000 01AE adress=100;
000835 e6e4      	LDI  R30,LOW(100)
000836 93e0 0312 	STS  _adress,R30
                 ; 0000 01AF //adr=0;//aaa[0]+ (aaa[1]*4)+ (aaa[2]*16);
                 ; 0000 01B0 
                 ; 0000 01B1 if((aaa[0]!=100)&&(aaa[1]!=100)&&(aaa[2]!=100))
000838 81ad      	LDD  R26,Y+5
000839 36a4      	CPI  R26,LOW(0x64)
00083a f031      	BREQ _0x124
00083b 81ae      	LDD  R26,Y+6
00083c 36a4      	CPI  R26,LOW(0x64)
00083d f019      	BREQ _0x124
00083e 81af      	LDD  R26,Y+7
00083f 36a4      	CPI  R26,LOW(0x64)
000840 f409      	BRNE _0x125
                 _0x124:
000841 c018      	RJMP _0x123
                 _0x125:
                 ; 0000 01B2 	{
                 ; 0000 01B3 	if(aaa[0]==0)
000842 81ed      	LDD  R30,Y+5
000843 30e0      	CPI  R30,0
000844 f449      	BRNE _0x126
                 ; 0000 01B4 		{
                 ; 0000 01B5 		if(aaa[1]==0)adress=3;
000845 81ee      	LDD  R30,Y+6
000846 30e0      	CPI  R30,0
000847 f411      	BRNE _0x127
000848 e0e3      	LDI  R30,LOW(3)
000849 c001      	RJMP _0x3DA
                 ; 0000 01B6 		else adress=0;
                 _0x127:
00084a e0e0      	LDI  R30,LOW(0)
                 _0x3DA:
00084b 93e0 0312 	STS  _adress,R30
                 ; 0000 01B7 		}
                 ; 0000 01B8 	else if(aaa[1]==0)adress=1;
00084d c00b      	RJMP _0x129
                 _0x126:
00084e 81ee      	LDD  R30,Y+6
00084f 30e0      	CPI  R30,0
000850 f411      	BRNE _0x12A
000851 e0e1      	LDI  R30,LOW(1)
000852 c004      	RJMP _0x3DB
                 ; 0000 01B9 	else if(aaa[2]==0)adress=2;
                 _0x12A:
000853 81ef      	LDD  R30,Y+7
000854 30e0      	CPI  R30,0
000855 f419      	BRNE _0x12C
000856 e0e2      	LDI  R30,LOW(2)
                 _0x3DB:
000857 93e0 0312 	STS  _adress,R30
                 ; 0000 01BA 
                 ; 0000 01BB 	//adr=1;
                 ; 0000 01BC 	}
                 _0x12C:
                 _0x129:
                 ; 0000 01BD else if((aaa[0]==100)&&(aaa[1]==100)&&(aaa[2]==100))adress=aaaa[0]+ (aaaa[1]*4)+ (aaaa[2]*16);
000859 c01e      	RJMP _0x12D
                 _0x123:
00085a 81ad      	LDD  R26,Y+5
00085b 36a4      	CPI  R26,LOW(0x64)
00085c f431      	BRNE _0x12F
00085d 81ae      	LDD  R26,Y+6
00085e 36a4      	CPI  R26,LOW(0x64)
00085f f419      	BRNE _0x12F
000860 81af      	LDD  R26,Y+7
000861 36a4      	CPI  R26,LOW(0x64)
000862 f009      	BREQ _0x130
                 _0x12F:
000863 c00e      	RJMP _0x12E
                 _0x130:
000864 81eb      	LDD  R30,Y+3
000865 0fee      	LSL  R30
000866 0fee      	LSL  R30
000867 81aa      	LDD  R26,Y+2
000868 0fea      	ADD  R30,R26
000869 2f6e      	MOV  R22,R30
00086a 81ec      	LDD  R30,Y+4
00086b e1a0      	LDI  R26,LOW(16)
00086c 9fea      	MUL  R30,R26
00086d 01f0      	MOVW R30,R0
00086e 0fe6      	ADD  R30,R22
00086f 93e0 0312 	STS  _adress,R30
                 ; 0000 01BE    /*	{
                 ; 0000 01BF 	adr=0;
                 ; 0000 01C0 	} */
                 ; 0000 01C1 else
000871 c006      	RJMP _0x131
                 _0x12E:
                 ; 0000 01C2     {
                 ; 0000 01C3     adress=100;
000872 e6e4      	LDI  R30,LOW(100)
000873 93e0 0312 	STS  _adress,R30
                 ; 0000 01C4     adress_error=1;
000875 e0e1      	LDI  R30,LOW(1)
000876 93e0 0313 	STS  _adress_error,R30
                 ; 0000 01C5     }
                 _0x131:
                 _0x12D:
                 ; 0000 01C6 /*if(adr_gran(aaa[2])==100)adr=2;
                 ; 0000 01C7 else *///adr=adr_gran(aaa[2]);
                 ; 0000 01C8 ///adr=0;
                 ; 0000 01C9 //plazma=adr;
                 ; 0000 01CA //if(adr==100)adr=0;
                 ; 0000 01CB 
                 ; 0000 01CC //plazma
                 ; 0000 01CD //adr=;
                 ; 0000 01CE }
000878 8119      	LDD  R17,Y+1
000879 8108      	LDD  R16,Y+0
00087a 9628      	ADIW R28,8
00087b 9508      	RET
                 ; .FEND
                 ;
                 ;
                 ;
                 ;//-----------------------------------------------
                 ;void adr_hndl(void)
                 ; 0000 01D4 {
                 ; 0000 01D5 #define ADR_CONST_0	574
                 ; 0000 01D6 #define ADR_CONST_1	897
                 ; 0000 01D7 #define ADR_CONST_2	695
                 ; 0000 01D8 #define ADR_CONST_3	1015
                 ; 0000 01D9 
                 ; 0000 01DA signed tempSI;
                 ; 0000 01DB short aaa[3];
                 ; 0000 01DC char aaaa[3];
                 ; 0000 01DD DDRC=0b00000000;
                 ;	tempSI -> R16,R17
                 ;	aaa -> Y+5
                 ;	aaaa -> Y+2
                 ; 0000 01DE PORTC=0b00000000;
                 ; 0000 01DF /*char i;
                 ; 0000 01E0 DDRD&=0b11100011;
                 ; 0000 01E1 PORTD|=0b00011100;
                 ; 0000 01E2 
                 ; 0000 01E3 //adr_new=((char)(!PIND.2))+(((char)(!PIND.3))*2)+((char)(!PIND.4)*4);
                 ; 0000 01E4 
                 ; 0000 01E5 
                 ; 0000 01E6 adr_new=(PIND&0b00011100)>>2;
                 ; 0000 01E7 
                 ; 0000 01E8 if(adr_new==adr_old)
                 ; 0000 01E9  	{
                 ; 0000 01EA  	if(adr_cnt<100)
                 ; 0000 01EB  		{
                 ; 0000 01EC  		adr_cnt++;
                 ; 0000 01ED  	     if(adr_cnt>=100)
                 ; 0000 01EE  	     	{
                 ; 0000 01EF  	     	adr_temp=adr_new;
                 ; 0000 01F0  	     	}
                 ; 0000 01F1  	     }
                 ; 0000 01F2    	}
                 ; 0000 01F3 else adr_cnt=0;
                 ; 0000 01F4 adr_old=adr_new;
                 ; 0000 01F5 if(adr!=CONST_ADR[adr_temp]) adr=CONST_ADR[adr_temp];
                 ; 0000 01F6 
                 ; 0000 01F7 
                 ; 0000 01F8 //if(adr!=0b00000011)adr=0b00000011;*/
                 ; 0000 01F9 
                 ; 0000 01FA 
                 ; 0000 01FB 
                 ; 0000 01FC ADMUX=0b00000110;
                 ; 0000 01FD ADCSRA=0b10100110;
                 ; 0000 01FE ADCSRA|=0b01000000;
                 ; 0000 01FF delay_ms(10);
                 ; 0000 0200 aaa[0]=ADCW;
                 ; 0000 0201 
                 ; 0000 0202 
                 ; 0000 0203 ADMUX=0b00000111;
                 ; 0000 0204 ADCSRA=0b10100110;
                 ; 0000 0205 ADCSRA|=0b01000000;
                 ; 0000 0206 delay_ms(10);
                 ; 0000 0207 aaa[1]=ADCW;
                 ; 0000 0208 
                 ; 0000 0209 
                 ; 0000 020A ADMUX=0b00000000;
                 ; 0000 020B ADCSRA=0b10100110;
                 ; 0000 020C ADCSRA|=0b01000000;
                 ; 0000 020D delay_ms(10);
                 ; 0000 020E aaa[2]=ADCW;
                 ; 0000 020F 
                 ; 0000 0210 if((aaa[0]>=(ADR_CONST_0-40))&&(aaa[0]<=(ADR_CONST_0+40))) adr[0]=0;
                 ; 0000 0211 else if((aaa[0]>=(ADR_CONST_1-40))&&(aaa[0]<=(ADR_CONST_1+40))) adr[0]=1;
                 ; 0000 0212 else if((aaa[0]>=(ADR_CONST_2-40))&&(aaa[0]<=(ADR_CONST_2+40))) adr[0]=2;
                 ; 0000 0213 else if((aaa[0]>=(ADR_CONST_3-40))&&(aaa[0]<=(ADR_CONST_3+40))) adr[0]=3;
                 ; 0000 0214 else adr[0]=5;
                 ; 0000 0215 
                 ; 0000 0216 if((aaa[1]>=(ADR_CONST_0-40))&&(aaa[1]<=(ADR_CONST_0+40))) adr[1]=0;
                 ; 0000 0217 else if((aaa[1]>=(ADR_CONST_1-40))&&(aaa[1]<=(ADR_CONST_1+40))) adr[1]=1;
                 ; 0000 0218 else if((aaa[1]>=(ADR_CONST_2-40))&&(aaa[1]<=(ADR_CONST_2+40))) adr[1]=2;
                 ; 0000 0219 else if((aaa[1]>=(ADR_CONST_3-40))&&(aaa[1]<=(ADR_CONST_3+40))) adr[1]=3;
                 ; 0000 021A else adr[1]=5;
                 ; 0000 021B 
                 ; 0000 021C if((aaa[2]>=(ADR_CONST_0-40))&&(aaa[2]<=(ADR_CONST_0+40))) adr[2]=0;
                 ; 0000 021D else if((aaa[2]>=(ADR_CONST_1-40))&&(aaa[2]<=(ADR_CONST_1+40))) adr[2]=1;
                 ; 0000 021E else if((aaa[2]>=(ADR_CONST_2-40))&&(aaa[2]<=(ADR_CONST_2+40))) adr[2]=2;
                 ; 0000 021F else if((aaa[2]>=(ADR_CONST_3-40))&&(aaa[2]<=(ADR_CONST_3+40))) adr[2]=3;
                 ; 0000 0220 else adr[2]=5;
                 ; 0000 0221 
                 ; 0000 0222 if((adr[0]==5)||(adr[1]==5)||(adr[2]==5))
                 ; 0000 0223 	{
                 ; 0000 0224 	//adress=100;
                 ; 0000 0225 	adress_error=1;
                 ; 0000 0226 	}
                 ; 0000 0227 else
                 ; 0000 0228 	{
                 ; 0000 0229 	if(adr[2]&0x02) bps_class=bpsIPS;
                 ; 0000 022A 	else bps_class=bpsIBEP;
                 ; 0000 022B 
                 ; 0000 022C 	adress = adr[0] + (adr[1]*4) + ((adr[2]&0x01)*16);
                 ; 0000 022D 	}
                 ; 0000 022E //plazmaSS=adress;
                 ; 0000 022F //adress=0;
                 ; 0000 0230 
                 ; 0000 0231 }
                 ;
                 ;
                 ;
                 ;
                 ;//-----------------------------------------------
                 ;void apv_hndl(void)
                 ; 0000 0238 {
                 _apv_hndl:
                 ; .FSTART _apv_hndl
                 ; 0000 0239 if(apv_cnt[0])
00087c 91e0 0303 	LDS  R30,_apv_cnt
00087e 30e0      	CPI  R30,0
00087f f041      	BREQ _0x168
                 ; 0000 023A 	{
                 ; 0000 023B 	apv_cnt[0]--;
000880 50e1      	SUBI R30,LOW(1)
000881 93e0 0303 	STS  _apv_cnt,R30
                 ; 0000 023C 	if(apv_cnt[0]==0)
000883 30e0      	CPI  R30,0
000884 f411      	BRNE _0x169
                 ; 0000 023D 		{
                 ; 0000 023E 		flags&=0b11100001;
000885 940e 146f 	CALL SUBOPT_0x28
                 ; 0000 023F 		tsign_cnt=0;
                 ; 0000 0240 		tmax_cnt=0;
                 ; 0000 0241 		umax_cnt=0;
                 ; 0000 0242 		umin_cnt=0;
                 ; 0000 0243 		//cnt_adc_ch_2_delta=0;
                 ; 0000 0244 		led_drv_cnt=30;
                 ; 0000 0245 		}
                 ; 0000 0246 	}
                 _0x169:
                 ; 0000 0247 else if(apv_cnt[1])
000887 c01f      	RJMP _0x16A
                 _0x168:
                +
000888 91e0 0304+LDS R30 , _apv_cnt + ( 1 )
                 	__GETB1MN _apv_cnt,1
00088a 30e0      	CPI  R30,0
00088b f061      	BREQ _0x16B
                 ; 0000 0248 	{
                 ; 0000 0249 	apv_cnt[1]--;
                +
00088c 91e0 0304+LDS R30 , _apv_cnt + ( 1 )
                 	__GETB1MN _apv_cnt,1
00088e 50e1      	SUBI R30,LOW(1)
                +
00088f 93e0 0304+STS _apv_cnt + ( 1 ) , R30
                 	__PUTB1MN _apv_cnt,1
                 ; 0000 024A 	if(apv_cnt[1]==0)
                +
000891 91e0 0304+LDS R30 , _apv_cnt + ( 1 )
                 	__GETB1MN _apv_cnt,1
000893 30e0      	CPI  R30,0
000894 f411      	BRNE _0x16C
                 ; 0000 024B 		{
                 ; 0000 024C 		flags&=0b11100001;
000895 940e 146f 	CALL SUBOPT_0x28
                 ; 0000 024D 		tsign_cnt=0;
                 ; 0000 024E 		tmax_cnt=0;
                 ; 0000 024F 		umax_cnt=0;
                 ; 0000 0250 		umin_cnt=0;
                 ; 0000 0251 //		cnt_adc_ch_2_delta=0;
                 ; 0000 0252 		led_drv_cnt=30;
                 ; 0000 0253 		}
                 ; 0000 0254 	}
                 _0x16C:
                 ; 0000 0255 else if(apv_cnt[2])
000897 c00f      	RJMP _0x16D
                 _0x16B:
                +
000898 91e0 0305+LDS R30 , _apv_cnt + ( 2 )
                 	__GETB1MN _apv_cnt,2
00089a 30e0      	CPI  R30,0
00089b f059      	BREQ _0x16E
                 ; 0000 0256 	{
                 ; 0000 0257 	apv_cnt[2]--;
                +
00089c 91e0 0305+LDS R30 , _apv_cnt + ( 2 )
                 	__GETB1MN _apv_cnt,2
00089e 50e1      	SUBI R30,LOW(1)
                +
00089f 93e0 0305+STS _apv_cnt + ( 2 ) , R30
                 	__PUTB1MN _apv_cnt,2
                 ; 0000 0258 	if(apv_cnt[2]==0)
                +
0008a1 91e0 0305+LDS R30 , _apv_cnt + ( 2 )
                 	__GETB1MN _apv_cnt,2
0008a3 30e0      	CPI  R30,0
0008a4 f411      	BRNE _0x16F
                 ; 0000 0259 		{
                 ; 0000 025A 		flags&=0b11100001;
0008a5 940e 146f 	CALL SUBOPT_0x28
                 ; 0000 025B 		tsign_cnt=0;
                 ; 0000 025C 		tmax_cnt=0;
                 ; 0000 025D 		umax_cnt=0;
                 ; 0000 025E 		umin_cnt=0;
                 ; 0000 025F //		cnt_adc_ch_2_delta=0;
                 ; 0000 0260 		led_drv_cnt=30;
                 ; 0000 0261 		}
                 ; 0000 0262 	}
                 _0x16F:
                 ; 0000 0263 
                 ; 0000 0264 if(apv_cnt_)
                 _0x16E:
                 _0x16D:
                 _0x16A:
0008a7 91e0 0306 	LDS  R30,_apv_cnt_
0008a9 91f0 0307 	LDS  R31,_apv_cnt_+1
0008ab 9730      	SBIW R30,0
0008ac f089      	BREQ _0x170
                 ; 0000 0265 	{
                 ; 0000 0266 	apv_cnt_--;
0008ad e0a6      	LDI  R26,LOW(_apv_cnt_)
0008ae e0b3      	LDI  R27,HIGH(_apv_cnt_)
0008af 91ed      	LD   R30,X+
0008b0 91fd      	LD   R31,X+
0008b1 9731      	SBIW R30,1
0008b2 93fe      	ST   -X,R31
0008b3 93ee      	ST   -X,R30
                 ; 0000 0267 	if(apv_cnt_==0)
0008b4 91e0 0306 	LDS  R30,_apv_cnt_
0008b6 91f0 0307 	LDS  R31,_apv_cnt_+1
0008b8 9730      	SBIW R30,0
0008b9 f421      	BRNE _0x171
                 ; 0000 0268 		{
                 ; 0000 0269 		bAPV=0;
0008ba e0e0      	LDI  R30,LOW(0)
0008bb 93e0 0308 	STS  _bAPV,R30
                 ; 0000 026A 		apv_start();
0008bd de82      	RCALL _apv_start
                 ; 0000 026B 		}
                 ; 0000 026C 	}
                 _0x171:
                 ; 0000 026D 
                 ; 0000 026E if((umin_cnt==0)&&(umax_cnt==0)/*&&(cnt_adc_ch_2_delta==0)*/&&(!BLOCK_IS_ON/*(GPIOB->ODR&(1<<2))*/))
                 _0x170:
0008be 940e 14d5 	CALL SUBOPT_0x33
0008c0 9710      	SBIW R26,0
0008c1 f431      	BRNE _0x173
0008c2 940e 14da 	CALL SUBOPT_0x34
0008c4 9710      	SBIW R26,0
0008c5 f411      	BRNE _0x173
0008c6 9b4c      	SBIS 0x9,4
0008c7 c001      	RJMP _0x174
                 _0x173:
0008c8 c00f      	RJMP _0x172
                 _0x174:
                 ; 0000 026F 	{
                 ; 0000 0270 	if(cnt_apv_off<20)
0008c9 91a0 0309 	LDS  R26,_cnt_apv_off
0008cb 31a4      	CPI  R26,LOW(0x14)
0008cc f450      	BRSH _0x175
                 ; 0000 0271 		{
                 ; 0000 0272 		cnt_apv_off++;
0008cd 91e0 0309 	LDS  R30,_cnt_apv_off
0008cf 5fef      	SUBI R30,-LOW(1)
0008d0 93e0 0309 	STS  _cnt_apv_off,R30
                 ; 0000 0273 		if(cnt_apv_off>=20)
0008d2 91a0 0309 	LDS  R26,_cnt_apv_off
0008d4 31a4      	CPI  R26,LOW(0x14)
0008d5 f008      	BRLO _0x176
                 ; 0000 0274 			{
                 ; 0000 0275 			apv_stop();
0008d6 de8b      	RCALL _apv_stop
                 ; 0000 0276 			}
                 ; 0000 0277 		}
                 _0x176:
                 ; 0000 0278 	}
                 _0x175:
                 ; 0000 0279 else cnt_apv_off=0;
0008d7 c003      	RJMP _0x177
                 _0x172:
0008d8 e0e0      	LDI  R30,LOW(0)
0008d9 93e0 0309 	STS  _cnt_apv_off,R30
                 ; 0000 027A 
                 ; 0000 027B }
                 _0x177:
0008db 9508      	RET
                 ; .FEND
                 ;
                 ;//-----------------------------------------------
                 ;void link_drv(void)		//10Hz
                 ; 0000 027F {
                 _link_drv:
                 ; .FSTART _link_drv
                 ; 0000 0280 if(jp_mode!=jp3)
0008dc 91a0 02ec 	LDS  R26,_jp_mode
0008de 30a3      	CPI  R26,LOW(0x3)
0008df f1b1      	BREQ _0x178
                 ; 0000 0281 	{
                 ; 0000 0282 	if(link_cnt<602)link_cnt++;
0008e0 940e 14df 	CALL SUBOPT_0x35
0008e2 35aa      	CPI  R26,LOW(0x25A)
0008e3 e0e2      	LDI  R30,HIGH(0x25A)
0008e4 07be      	CPC  R27,R30
0008e5 f424      	BRGE _0x179
0008e6 edab      	LDI  R26,LOW(_link_cnt)
0008e7 e0b2      	LDI  R27,HIGH(_link_cnt)
0008e8 940e 1489 	CALL SUBOPT_0x29
                 ; 0000 0283 	if(link_cnt==590)flags&=0xc1;		//если оборвалась связь первым делом сбрасываем все аварии и внешнюю блокировку
                 _0x179:
0008ea 940e 14df 	CALL SUBOPT_0x35
0008ec 34ae      	CPI  R26,LOW(0x24E)
0008ed e0e2      	LDI  R30,HIGH(0x24E)
0008ee 07be      	CPC  R27,R30
0008ef f429      	BRNE _0x17A
0008f0 91e0 02c3 	LDS  R30,_flags
0008f2 7ce1      	ANDI R30,LOW(0xC1)
0008f3 93e0 02c3 	STS  _flags,R30
                 ; 0000 0284 	if(link_cnt==600)
                 _0x17A:
0008f5 940e 14df 	CALL SUBOPT_0x35
0008f7 35a8      	CPI  R26,LOW(0x258)
0008f8 e0e2      	LDI  R30,HIGH(0x258)
0008f9 07be      	CPC  R27,R30
0008fa f4d1      	BRNE _0x17B
                 ; 0000 0285 		{
                 ; 0000 0286 		link=OFF;
0008fb eaea      	LDI  R30,LOW(170)
0008fc 93e0 02da 	STS  _link,R30
                 ; 0000 0287 
                 ; 0000 0288 		//попробую вместо
                 ; 0000 0289 		//if((AVT_MODE!=0x55)&&(!eeDEVICE))bMAIN=1;
                 ; 0000 028A 		//написать
                 ; 0000 028B 		if(bps_class==bpsIPS)bMAIN=1;	//если БПС определен как ИПСный - пытаться стать главным;
0008fe 91a0 0314 	LDS  R26,_bps_class
000900 30a1      	CPI  R26,LOW(0x1)
000901 f419      	BRNE _0x17C
000902 b5ea      	IN   R30,0x2A
000903 60e2      	SBR  R30,2
000904 c002      	RJMP _0x3E0
                 ; 0000 028C 		else bMAIN=0;
                 _0x17C:
000905 b5ea      	IN   R30,0x2A
000906 7fed      	CBR  R30,2
                 _0x3E0:
000907 bdea      	OUT  0x2A,R30
                 ; 0000 028D 
                 ; 0000 028E 		cnt_net_drv=0;
000908 e0e0      	LDI  R30,LOW(0)
000909 93e0 0318 	STS  _cnt_net_drv,R30
                 ; 0000 028F     		if(!res_fl_)
00090b 940e 13f3 	CALL SUBOPT_0x10
00090d f439      	BRNE _0x17E
                 ; 0000 0290 			{
                 ; 0000 0291 	    		bRES_=1;
00090e e0e1      	LDI  R30,LOW(1)
00090f 93e0 030b 	STS  _bRES_,R30
                 ; 0000 0292 	    		res_fl_=1;
000911 e1a4      	LDI  R26,LOW(_res_fl_)
000912 e0b0      	LDI  R27,HIGH(_res_fl_)
000913 940e 179d 	CALL __EEPROMWRB
                 ; 0000 0293 	    		}
                 ; 0000 0294     		}
                 _0x17E:
                 ; 0000 0295 	}
                 _0x17B:
                 ; 0000 0296 else link=OFF;
000915 c003      	RJMP _0x17F
                 _0x178:
000916 eaea      	LDI  R30,LOW(170)
000917 93e0 02da 	STS  _link,R30
                 ; 0000 0297 }
                 _0x17F:
000919 9508      	RET
                 ; .FEND
                 ;
                 ;//-----------------------------------------------
                 ;void temper_drv(void)
                 ; 0000 029B {
                 _temper_drv:
                 ; .FSTART _temper_drv
                 ; 0000 029C if(T>ee_tsign) tsign_cnt++;
00091a 940e 1459 	CALL SUBOPT_0x24
00091c 940e 14e4 	CALL SUBOPT_0x36
00091e 17ea      	CP   R30,R26
00091f 07fb      	CPC  R31,R27
000920 f434      	BRGE _0x180
000921 edad      	LDI  R26,LOW(_tsign_cnt)
000922 e0b2      	LDI  R27,HIGH(_tsign_cnt)
000923 91ed      	LD   R30,X+
000924 91fd      	LD   R31,X+
000925 9631      	ADIW R30,1
000926 c00d      	RJMP _0x3E1
                 ; 0000 029D else if (T<(ee_tsign-1)) tsign_cnt--;
                 _0x180:
000927 940e 1459 	CALL SUBOPT_0x24
000929 9731      	SBIW R30,1
00092a 940e 14e4 	CALL SUBOPT_0x36
00092c 17ae      	CP   R26,R30
00092d 07bf      	CPC  R27,R31
00092e f43c      	BRGE _0x182
00092f edad      	LDI  R26,LOW(_tsign_cnt)
000930 e0b2      	LDI  R27,HIGH(_tsign_cnt)
000931 91ed      	LD   R30,X+
000932 91fd      	LD   R31,X+
000933 9731      	SBIW R30,1
                 _0x3E1:
000934 93fe      	ST   -X,R31
000935 93ee      	ST   -X,R30
                 ; 0000 029E 
                 ; 0000 029F gran(&tsign_cnt,0,60);
                 _0x182:
000936 eded      	LDI  R30,LOW(_tsign_cnt)
000937 e0f2      	LDI  R31,HIGH(_tsign_cnt)
000938 940e 14e9 	CALL SUBOPT_0x37
                 ; 0000 02A0 
                 ; 0000 02A1 if(tsign_cnt>=55)
00093a 91a0 02dd 	LDS  R26,_tsign_cnt
00093c 91b0 02de 	LDS  R27,_tsign_cnt+1
00093e 97d7      	SBIW R26,55
00093f f094      	BRLT _0x183
                 ; 0000 02A2 	{
                 ; 0000 02A3 	if(((jp_mode==jp0)&&!(flags&0b01000000))||(jp_mode==jp3))	flags|=0b00000100; //поднять бит подогрева
000940 91a0 02ec 	LDS  R26,_jp_mode
000942 30a0      	CPI  R26,LOW(0x0)
000943 f421      	BRNE _0x185
000944 91e0 02c3 	LDS  R30,_flags
000946 74e0      	ANDI R30,LOW(0x40)
000947 f021      	BREQ _0x187
                 _0x185:
000948 91a0 02ec 	LDS  R26,_jp_mode
00094a 30a3      	CPI  R26,LOW(0x3)
00094b f429      	BRNE _0x184
                 _0x187:
00094c 91e0 02c3 	LDS  R30,_flags
00094e 60e4      	ORI  R30,4
00094f 93e0 02c3 	STS  _flags,R30
                 ; 0000 02A4 	}
                 _0x184:
                 ; 0000 02A5 else if (tsign_cnt<=5) flags&=0b11111011;	//Сбросить бит подогрева
000951 c00b      	RJMP _0x189
                 _0x183:
000952 91a0 02dd 	LDS  R26,_tsign_cnt
000954 91b0 02de 	LDS  R27,_tsign_cnt+1
000956 9716      	SBIW R26,6
000957 f42c      	BRGE _0x18A
000958 91e0 02c3 	LDS  R30,_flags
00095a 7feb      	ANDI R30,0xFB
00095b 93e0 02c3 	STS  _flags,R30
                 ; 0000 02A6 
                 ; 0000 02A7 
                 ; 0000 02A8 
                 ; 0000 02A9 
                 ; 0000 02AA if(T>ee_tmax) tmax_cnt++;
                 _0x18A:
                 _0x189:
00095d 940e 1454 	CALL SUBOPT_0x23
00095f 940e 14e4 	CALL SUBOPT_0x36
000961 17ea      	CP   R30,R26
000962 07fb      	CPC  R31,R27
000963 f434      	BRGE _0x18B
000964 edaf      	LDI  R26,LOW(_tmax_cnt)
000965 e0b2      	LDI  R27,HIGH(_tmax_cnt)
000966 91ed      	LD   R30,X+
000967 91fd      	LD   R31,X+
000968 9631      	ADIW R30,1
000969 c00d      	RJMP _0x3E2
                 ; 0000 02AB else if (T<(ee_tmax-1)) tmax_cnt--;
                 _0x18B:
00096a 940e 1454 	CALL SUBOPT_0x23
00096c 9731      	SBIW R30,1
00096d 940e 14e4 	CALL SUBOPT_0x36
00096f 17ae      	CP   R26,R30
000970 07bf      	CPC  R27,R31
000971 f43c      	BRGE _0x18D
000972 edaf      	LDI  R26,LOW(_tmax_cnt)
000973 e0b2      	LDI  R27,HIGH(_tmax_cnt)
000974 91ed      	LD   R30,X+
000975 91fd      	LD   R31,X+
000976 9731      	SBIW R30,1
                 _0x3E2:
000977 93fe      	ST   -X,R31
000978 93ee      	ST   -X,R30
                 ; 0000 02AC 
                 ; 0000 02AD gran(&tmax_cnt,0,60);
                 _0x18D:
000979 edef      	LDI  R30,LOW(_tmax_cnt)
00097a e0f2      	LDI  R31,HIGH(_tmax_cnt)
00097b 940e 14e9 	CALL SUBOPT_0x37
                 ; 0000 02AE 
                 ; 0000 02AF if(tmax_cnt>=55)
00097d 91a0 02df 	LDS  R26,_tmax_cnt
00097f 91b0 02e0 	LDS  R27,_tmax_cnt+1
000981 97d7      	SBIW R26,55
000982 f094      	BRLT _0x18E
                 ; 0000 02B0 	{
                 ; 0000 02B1 	if(((jp_mode==jp0)&&!(flags&0b01000000))||(jp_mode==jp3))	flags|=0b00000010;
000983 91a0 02ec 	LDS  R26,_jp_mode
000985 30a0      	CPI  R26,LOW(0x0)
000986 f421      	BRNE _0x190
000987 91e0 02c3 	LDS  R30,_flags
000989 74e0      	ANDI R30,LOW(0x40)
00098a f021      	BREQ _0x192
                 _0x190:
00098b 91a0 02ec 	LDS  R26,_jp_mode
00098d 30a3      	CPI  R26,LOW(0x3)
00098e f429      	BRNE _0x18F
                 _0x192:
00098f 91e0 02c3 	LDS  R30,_flags
000991 60e2      	ORI  R30,2
000992 93e0 02c3 	STS  _flags,R30
                 ; 0000 02B2 	}
                 _0x18F:
                 ; 0000 02B3 else if (tmax_cnt<=5) flags&=0b11111101;
000994 c00b      	RJMP _0x194
                 _0x18E:
000995 91a0 02df 	LDS  R26,_tmax_cnt
000997 91b0 02e0 	LDS  R27,_tmax_cnt+1
000999 9716      	SBIW R26,6
00099a f42c      	BRGE _0x195
00099b 91e0 02c3 	LDS  R30,_flags
00099d 7fed      	ANDI R30,0xFD
00099e 93e0 02c3 	STS  _flags,R30
                 ; 0000 02B4 
                 ; 0000 02B5 
                 ; 0000 02B6 }
                 _0x195:
                 _0x194:
0009a0 9508      	RET
                 ; .FEND
                 ;
                 ;//-----------------------------------------------
                 ;void u_drv(void)		//1Hz
                 ; 0000 02BA {
                 _u_drv:
                 ; .FSTART _u_drv
                 ; 0000 02BB if(jp_mode!=jp3)
0009a1 91a0 02ec 	LDS  R26,_jp_mode
0009a3 30a3      	CPI  R26,LOW(0x3)
0009a4 f409      	BRNE PC+2
0009a5 c084      	RJMP _0x196
                 ; 0000 02BC 	{
                 ; 0000 02BD 	if(Ui>ee_Umax)umax_cnt++;
0009a6 940e 1433 	CALL SUBOPT_0x1C
0009a8 940e 14f3 	CALL SUBOPT_0x38
0009aa 17ea      	CP   R30,R26
0009ab 07fb      	CPC  R31,R27
0009ac f428      	BRSH _0x197
0009ad eea5      	LDI  R26,LOW(_umax_cnt)
0009ae e0b2      	LDI  R27,HIGH(_umax_cnt)
0009af 940e 1489 	CALL SUBOPT_0x29
                 ; 0000 02BE 	else umax_cnt=0;
0009b1 c005      	RJMP _0x198
                 _0x197:
0009b2 e0e0      	LDI  R30,LOW(0)
0009b3 93e0 02e5 	STS  _umax_cnt,R30
0009b5 93e0 02e6 	STS  _umax_cnt+1,R30
                 ; 0000 02BF 	gran(&umax_cnt,0,10);
                 _0x198:
0009b7 940e 14f8 	CALL SUBOPT_0x39
                 ; 0000 02C0 	if(umax_cnt>=10)flags|=0b00001000; 	//Поднять аварию по превышению напряжения
0009b9 f02c      	BRLT _0x199
0009ba 91e0 02c3 	LDS  R30,_flags
0009bc 60e8      	ORI  R30,8
0009bd 93e0 02c3 	STS  _flags,R30
                 ; 0000 02C1 
                 ; 0000 02C2     if(ee_AVT_MODE==0x55)
                 _0x199:
0009bf 940e 144a 	CALL SUBOPT_0x21
0009c1 35e5      	CPI  R30,LOW(0x55)
0009c2 e0a0      	LDI  R26,HIGH(0x55)
0009c3 07fa      	CPC  R31,R26
0009c4 f5c9      	BRNE _0x19A
                 ; 0000 02C3         {
                 ; 0000 02C4         short temp=ee_Umax;
                 ; 0000 02C5         temp/=10;
0009c5 9722      	SBIW R28,2
                 ;	temp -> Y+0
0009c6 940e 1433 	CALL SUBOPT_0x1C
0009c8 83e8      	ST   Y,R30
0009c9 83f9      	STD  Y+1,R31
0009ca 81a8      	LD   R26,Y
0009cb 81b9      	LDD  R27,Y+1
0009cc e0ea      	LDI  R30,LOW(10)
0009cd e0f0      	LDI  R31,HIGH(10)
0009ce 940e 1716 	CALL __DIVW21
0009d0 83e8      	ST   Y,R30
0009d1 83f9      	STD  Y+1,R31
                 ; 0000 02C6         temp*=9;
0009d2 e0a9      	LDI  R26,LOW(9)
0009d3 e0b0      	LDI  R27,HIGH(9)
0009d4 940e 16f9 	CALL __MULW12
0009d6 83e8      	ST   Y,R30
0009d7 83f9      	STD  Y+1,R31
                 ; 0000 02C7         if((Ui<temp)&&(!BLOCK_IS_ON/*(GPIOB->ODR&(1<<2))*/))umin_cnt++;
0009d8 940e 14f3 	CALL SUBOPT_0x38
0009da 17ae      	CP   R26,R30
0009db 07bf      	CPC  R27,R31
0009dc f410      	BRSH _0x19C
0009dd 9b4c      	SBIS 0x9,4
0009de c001      	RJMP _0x19D
                 _0x19C:
0009df c006      	RJMP _0x19B
                 _0x19D:
0009e0 eea7      	LDI  R26,LOW(_umin_cnt)
0009e1 e0b2      	LDI  R27,HIGH(_umin_cnt)
0009e2 91ed      	LD   R30,X+
0009e3 91fd      	LD   R31,X+
0009e4 9631      	ADIW R30,1
0009e5 c005      	RJMP _0x3E3
                 ; 0000 02C8         else umin_cnt--;
                 _0x19B:
0009e6 eea7      	LDI  R26,LOW(_umin_cnt)
0009e7 e0b2      	LDI  R27,HIGH(_umin_cnt)
0009e8 91ed      	LD   R30,X+
0009e9 91fd      	LD   R31,X+
0009ea 9731      	SBIW R30,1
                 _0x3E3:
0009eb 93fe      	ST   -X,R31
0009ec 93ee      	ST   -X,R30
                 ; 0000 02C9         gran(&umin_cnt,0,10);
0009ed 940e 1507 	CALL SUBOPT_0x3A
                 ; 0000 02CA         if(umin_cnt>=10)flags|=0b00010000;
0009ef f014      	BRLT _0x19F
0009f0 940e 1516 	CALL SUBOPT_0x3B
                 ; 0000 02CB         if(umin_cnt<=0)flags&=~0b00010000;
                 _0x19F:
0009f2 940e 14d5 	CALL SUBOPT_0x33
0009f4 940e 17ae 	CALL __CPW02
0009f6 f02c      	BRLT _0x1A0
0009f7 91e0 02c3 	LDS  R30,_flags
0009f9 7eef      	ANDI R30,0xEF
0009fa 93e0 02c3 	STS  _flags,R30
                 ; 0000 02CC         }
                 _0x1A0:
0009fc 9622      	ADIW R28,2
                 ; 0000 02CD     else
0009fd c02b      	RJMP _0x1A1
                 _0x19A:
                 ; 0000 02CE         {
                 ; 0000 02CF         if((Ui<Un)&&((Un-Ui)>ee_dU)&&(!BLOCK_IS_ON/*(GPIOB->ODR&(1<<2))*/))umin_cnt++;
0009fe 91e0 02ba 	LDS  R30,_Un
000a00 91f0 02bb 	LDS  R31,_Un+1
000a02 940e 14f3 	CALL SUBOPT_0x38
000a04 17ae      	CP   R26,R30
000a05 07bf      	CPC  R27,R31
000a06 f490      	BRSH _0x1A3
000a07 940e 14f3 	CALL SUBOPT_0x38
000a09 91e0 02ba 	LDS  R30,_Un
000a0b 91f0 02bb 	LDS  R31,_Un+1
000a0d 1bea      	SUB  R30,R26
000a0e 0bfb      	SBC  R31,R27
000a0f 010f      	MOVW R0,R30
000a10 e1a9      	LDI  R26,LOW(_ee_dU)
000a11 e0b0      	LDI  R27,HIGH(_ee_dU)
000a12 940e 1785 	CALL __EEPROMRDW
000a14 15e0      	CP   R30,R0
000a15 05f1      	CPC  R31,R1
000a16 f410      	BRSH _0x1A3
000a17 9b4c      	SBIS 0x9,4
000a18 c001      	RJMP _0x1A4
                 _0x1A3:
000a19 c005      	RJMP _0x1A2
                 _0x1A4:
000a1a eea7      	LDI  R26,LOW(_umin_cnt)
000a1b e0b2      	LDI  R27,HIGH(_umin_cnt)
000a1c 940e 1489 	CALL SUBOPT_0x29
                 ; 0000 02D0         else umin_cnt=0;
000a1e c005      	RJMP _0x1A5
                 _0x1A2:
000a1f e0e0      	LDI  R30,LOW(0)
000a20 93e0 02e7 	STS  _umin_cnt,R30
000a22 93e0 02e8 	STS  _umin_cnt+1,R30
                 ; 0000 02D1         gran(&umin_cnt,0,10);
                 _0x1A5:
000a24 940e 1507 	CALL SUBOPT_0x3A
                 ; 0000 02D2         if(umin_cnt>=10)flags|=0b00010000;
000a26 f014      	BRLT _0x1A6
000a27 940e 1516 	CALL SUBOPT_0x3B
                 ; 0000 02D3 
                 ; 0000 02D4         }
                 _0x1A6:
                 _0x1A1:
                 ; 0000 02D5 
                 ; 0000 02D6    // if(ee_AVT_MODE==0x55) &&
                 ; 0000 02D7 
                 ; 0000 02D8 	}
                 ; 0000 02D9 else if(jp_mode==jp3)
000a29 c034      	RJMP _0x1A7
                 _0x196:
000a2a 91a0 02ec 	LDS  R26,_jp_mode
000a2c 30a3      	CPI  R26,LOW(0x3)
000a2d f581      	BRNE _0x1A8
                 ; 0000 02DA 	{
                 ; 0000 02DB 	if(Ui>700)umax_cnt++;
000a2e 940e 14f3 	CALL SUBOPT_0x38
000a30 3bad      	CPI  R26,LOW(0x2BD)
000a31 e0e2      	LDI  R30,HIGH(0x2BD)
000a32 07be      	CPC  R27,R30
000a33 f028      	BRLO _0x1A9
000a34 eea5      	LDI  R26,LOW(_umax_cnt)
000a35 e0b2      	LDI  R27,HIGH(_umax_cnt)
000a36 940e 1489 	CALL SUBOPT_0x29
                 ; 0000 02DC 	else umax_cnt=0;
000a38 c005      	RJMP _0x1AA
                 _0x1A9:
000a39 e0e0      	LDI  R30,LOW(0)
000a3a 93e0 02e5 	STS  _umax_cnt,R30
000a3c 93e0 02e6 	STS  _umax_cnt+1,R30
                 ; 0000 02DD 	gran(&umax_cnt,0,10);
                 _0x1AA:
000a3e 940e 14f8 	CALL SUBOPT_0x39
                 ; 0000 02DE 	if(umax_cnt>=10)flags|=0b00001000;
000a40 f02c      	BRLT _0x1AB
000a41 91e0 02c3 	LDS  R30,_flags
000a43 60e8      	ORI  R30,8
000a44 93e0 02c3 	STS  _flags,R30
                 ; 0000 02DF 
                 ; 0000 02E0 
                 ; 0000 02E1 	if((Ui<200)&&(!BLOCK_IS_ON/*(GPIOB->ODR&(1<<2))*/))umin_cnt++;
                 _0x1AB:
000a46 940e 14f3 	CALL SUBOPT_0x38
000a48 3ca8      	CPI  R26,LOW(0xC8)
000a49 e0e0      	LDI  R30,HIGH(0xC8)
000a4a 07be      	CPC  R27,R30
000a4b f410      	BRSH _0x1AD
000a4c 9b4c      	SBIS 0x9,4
000a4d c001      	RJMP _0x1AE
                 _0x1AD:
000a4e c005      	RJMP _0x1AC
                 _0x1AE:
000a4f eea7      	LDI  R26,LOW(_umin_cnt)
000a50 e0b2      	LDI  R27,HIGH(_umin_cnt)
000a51 940e 1489 	CALL SUBOPT_0x29
                 ; 0000 02E2 	else umin_cnt=0;
000a53 c005      	RJMP _0x1AF
                 _0x1AC:
000a54 e0e0      	LDI  R30,LOW(0)
000a55 93e0 02e7 	STS  _umin_cnt,R30
000a57 93e0 02e8 	STS  _umin_cnt+1,R30
                 ; 0000 02E3 	gran(&umin_cnt,0,10);
                 _0x1AF:
000a59 940e 1507 	CALL SUBOPT_0x3A
                 ; 0000 02E4 	if(umin_cnt>=10)flags|=0b00010000;
000a5b f014      	BRLT _0x1B0
000a5c 940e 1516 	CALL SUBOPT_0x3B
                 ; 0000 02E5 	}
                 _0x1B0:
                 ; 0000 02E6 }
                 _0x1A8:
                 _0x1A7:
000a5e 9508      	RET
                 ; .FEND
                 ;
                 ;//-----------------------------------------------
                 ;void led_hndl_1(void)
                 ; 0000 02EA {
                 ; 0000 02EB if(jp_mode!=jp3)
                 ; 0000 02EC 	{
                 ; 0000 02ED 	if(main_cnt1<(5*TZAS))
                 ; 0000 02EE 		{
                 ; 0000 02EF 		led_red=0x00000000L;
                 ; 0000 02F0 		led_green=0x03030303L;
                 ; 0000 02F1 		}
                 ; 0000 02F2 	else if((link==ON)&&(flags_tu&0b10000000))
                 ; 0000 02F3 		{
                 ; 0000 02F4 		led_red=0x00055555L;
                 ; 0000 02F5  		led_green=0xffffffffL;
                 ; 0000 02F6  		}
                 ; 0000 02F7 	else if((main_cnt1>(5*TZAS))&&(main_cnt1<(100+(5*TZAS))))
                 ; 0000 02F8 		{
                 ; 0000 02F9 		led_red=0x00000000L;
                 ; 0000 02FA 		led_green=0xffffffffL;
                 ; 0000 02FB 		}
                 ; 0000 02FC 
                 ; 0000 02FD 	else  if(link==OFF)
                 ; 0000 02FE  		{
                 ; 0000 02FF  		led_red=0x55555555L;
                 ; 0000 0300  		led_green=0xffffffffL;
                 ; 0000 0301  		}
                 ; 0000 0302 
                 ; 0000 0303 	else if((link==ON)&&((flags&0b00111110)==0))
                 ; 0000 0304 		{
                 ; 0000 0305 		led_red=0x00000000L;
                 ; 0000 0306 		led_green=0xffffffffL;
                 ; 0000 0307 		}
                 ; 0000 0308 
                 ; 0000 0309 
                 ; 0000 030A 
                 ; 0000 030B 
                 ; 0000 030C 
                 ; 0000 030D 	else if((flags&0b00111110)==0b00000100)
                 ; 0000 030E 		{
                 ; 0000 030F 		led_red=0x00010001L;
                 ; 0000 0310 		led_green=0xffffffffL;
                 ; 0000 0311 		}
                 ; 0000 0312 	else if(flags&0b00000010)
                 ; 0000 0313 		{
                 ; 0000 0314 		led_red=0x00010001L;
                 ; 0000 0315 		led_green=0x00000000L;
                 ; 0000 0316 		}
                 ; 0000 0317 	else if(flags&0b00001000)
                 ; 0000 0318 		{
                 ; 0000 0319 		led_red=0x00090009L;
                 ; 0000 031A 		led_green=0x00000000L;
                 ; 0000 031B 		}
                 ; 0000 031C 	else if(flags&0b00010000)
                 ; 0000 031D 		{
                 ; 0000 031E 		led_red=0x00490049L;
                 ; 0000 031F 		led_green=0x00000000L;
                 ; 0000 0320 		}
                 ; 0000 0321 
                 ; 0000 0322 	else if((link==ON)&&(flags&0b00100000))
                 ; 0000 0323 		{
                 ; 0000 0324 		led_red=0x00000000L;
                 ; 0000 0325 		led_green=0x00030003L;
                 ; 0000 0326 		}
                 ; 0000 0327 
                 ; 0000 0328 	if((jp_mode==jp1))
                 ; 0000 0329 		{
                 ; 0000 032A 		led_red=0x00000000L;
                 ; 0000 032B 		led_green=0x33333333L;
                 ; 0000 032C 		}
                 ; 0000 032D 	else if((jp_mode==jp2))
                 ; 0000 032E 		{
                 ; 0000 032F 		led_red=0xccccccccL;
                 ; 0000 0330 		led_green=0x00000000L;
                 ; 0000 0331 		}
                 ; 0000 0332 	}
                 ; 0000 0333 else if(jp_mode==jp3)
                 ; 0000 0334 	{
                 ; 0000 0335 	if(main_cnt1<(5*TZAS))
                 ; 0000 0336 		{
                 ; 0000 0337 		led_red=0x00000000L;
                 ; 0000 0338 		led_green=0x03030303L;
                 ; 0000 0339 		}
                 ; 0000 033A 	else if((main_cnt1>(5*TZAS))&&(main_cnt1<(70+(5*TZAS))))
                 ; 0000 033B 		{
                 ; 0000 033C 		led_red=0x00000000L;
                 ; 0000 033D 		led_green=0xffffffffL;
                 ; 0000 033E 		}
                 ; 0000 033F 
                 ; 0000 0340 	else if((flags&0b00011110)==0)
                 ; 0000 0341 		{
                 ; 0000 0342 		led_red=0x00000000L;
                 ; 0000 0343 		led_green=0xffffffffL;
                 ; 0000 0344 		}
                 ; 0000 0345 
                 ; 0000 0346 
                 ; 0000 0347 	else if((flags&0b00111110)==0b00000100)
                 ; 0000 0348 		{
                 ; 0000 0349 		led_red=0x00010001L;
                 ; 0000 034A 		led_green=0xffffffffL;
                 ; 0000 034B 		}
                 ; 0000 034C 	else if(flags&0b00000010)
                 ; 0000 034D 		{
                 ; 0000 034E 		led_red=0x00010001L;
                 ; 0000 034F 		led_green=0x00000000L;
                 ; 0000 0350 		}
                 ; 0000 0351 	else if(flags&0b00001000)
                 ; 0000 0352 		{
                 ; 0000 0353 		led_red=0x00090009L;
                 ; 0000 0354 		led_green=0x00000000L;
                 ; 0000 0355 		}
                 ; 0000 0356 	else if(flags&0b00010000)
                 ; 0000 0357 		{
                 ; 0000 0358 		led_red=0x00490049L;
                 ; 0000 0359 		led_green=0xffffffffL;
                 ; 0000 035A 		}
                 ; 0000 035B 		/*led_green=0x33333333L;
                 ; 0000 035C 		led_red=0xccccccccL;*/
                 ; 0000 035D 	}
                 ; 0000 035E 
                 ; 0000 035F }
                 ;
                 ;//-----------------------------------------------
                 ;void led_hndl(void)
                 ; 0000 0363 {
                 _led_hndl:
                 ; .FSTART _led_hndl
                 ; 0000 0364 if(adress_error)
000a5f 91e0 0313 	LDS  R30,_adress_error
000a61 30e0      	CPI  R30,0
000a62 f039      	BREQ _0x1E1
                 ; 0000 0365 	{
                 ; 0000 0366 	led_red=0x55555555L;
000a63 940e 151c 	CALL SUBOPT_0x3C
000a65 940e 1521 	CALL SUBOPT_0x3D
                 ; 0000 0367 	led_green=0x55555555L;
000a67 940e 151c 	CALL SUBOPT_0x3C
000a69 c2a2      	RJMP _0x3E8
                 ; 0000 0368 	}
                 ; 0000 0369 
                 ; 0000 036A /*else if(bps_class==bpsIBEP)		//проверка работы адресатора
                 ; 0000 036B 	{
                 ; 0000 036C 	if(adress==0)led_red=0x00000001L;
                 ; 0000 036D 	if(adress==1)led_red=0x00000005L;
                 ; 0000 036E 	if(adress==2)led_red=0x00000015L;
                 ; 0000 036F 	if(adress==3)led_red=0x00000055L;
                 ; 0000 0370 	if(adress==4)led_red=0x00000155L;
                 ; 0000 0371 	if(adress==5)led_red=0x00111111L;
                 ; 0000 0372 	if(adress==6)led_red=0x01111111L;
                 ; 0000 0373 	if(adress==7)led_red=0x11111111L;
                 ; 0000 0374 	led_green=0x00000000L;
                 ; 0000 0375 	}*/
                 ; 0000 0376 /*		else  if(link==OFF)
                 ; 0000 0377 			{
                 ; 0000 0378 			led_red=0x555ff555L;
                 ; 0000 0379 			led_green=0xffffffffL;
                 ; 0000 037A 			}
                 ; 0000 037B else if(link_cnt>50)
                 ; 0000 037C 	{
                 ; 0000 037D 	led_red=0x5555ff55L;
                 ; 0000 037E 	led_green=0x55555555L;
                 ; 0000 037F 	} */
                 ; 0000 0380 else if(ee_AVT_MODE==0x55)
                 _0x1E1:
000a6a 940e 144a 	CALL SUBOPT_0x21
000a6c 35e5      	CPI  R30,LOW(0x55)
000a6d e0a0      	LDI  R26,HIGH(0x55)
000a6e 07fa      	CPC  R31,R26
000a6f f009      	BREQ PC+2
000a70 c05d      	RJMP _0x1E3
                 ; 0000 0381 	{
                 ; 0000 0382 
                 ; 0000 0383     led_red=0x00000000L;
000a71 940e 152a 	CALL SUBOPT_0x3E
                 ; 0000 0384 	led_green=0xffffffffL;
000a73 940e 1534 	CALL SUBOPT_0x3F
000a75 940e 1539 	CALL SUBOPT_0x40
                 ; 0000 0385 
                 ; 0000 0386 	if(jp_mode!=jp3)
000a77 91a0 02ec 	LDS  R26,_jp_mode
000a79 30a3      	CPI  R26,LOW(0x3)
000a7a f409      	BRNE PC+2
000a7b c051      	RJMP _0x1E4
                 ; 0000 0387 		{
                 ; 0000 0388 /*		if(main_cnt1<(5*ee_TZAS))
                 ; 0000 0389 			{
                 ; 0000 038A 			led_red=0x00000000L;
                 ; 0000 038B 			led_green=0x03030303L;
                 ; 0000 038C 			}
                 ; 0000 038D 
                 ; 0000 038E 		else if((link==ON)&&(flags_tu&0b10000000))
                 ; 0000 038F 			{
                 ; 0000 0390 			led_red=0x00055555L;
                 ; 0000 0391 			led_green=0xffffffffL;
                 ; 0000 0392 			}   */
                 ; 0000 0393 
                 ; 0000 0394 /*		else if(((main_cnt1>(5*ee_TZAS))&&(main_cnt1<(100+(5*ee_TZAS)))) && (ee_AVT_MODE!=0x55)&& (!ee_DEVICE))
                 ; 0000 0395 			{
                 ; 0000 0396 			led_red=0x00000000L;
                 ; 0000 0397 			led_green=0xffffffffL;
                 ; 0000 0398 			} */
                 ; 0000 0399 
                 ; 0000 039A /*		else  if(link==OFF)
                 ; 0000 039B 			{
                 ; 0000 039C 			led_red=0x55555555L;
                 ; 0000 039D 			led_green=0xffffffffL;
                 ; 0000 039E 			}
                 ; 0000 039F 
                 ; 0000 03A0 		else*/ if((link==ON)&&((flags&0b00111110)==0))
000a7c 91a0 02da 	LDS  R26,_link
000a7e 35a5      	CPI  R26,LOW(0x55)
000a7f f421      	BRNE _0x1E6
000a80 91e0 02c3 	LDS  R30,_flags
000a82 73ee      	ANDI R30,LOW(0x3E)
000a83 f009      	BREQ _0x1E7
                 _0x1E6:
000a84 c00b      	RJMP _0x1E5
                 _0x1E7:
                 ; 0000 03A1 			{
                 ; 0000 03A2 			led_red=0x00000111L;
                +
000a85 e1e1     +LDI R30 , LOW ( 0x111 )
000a86 e0f1     +LDI R31 , HIGH ( 0x111 )
000a87 e060     +LDI R22 , BYTE3 ( 0x111 )
000a88 e070     +LDI R23 , BYTE4 ( 0x111 )
                 	__GETD1N 0x111
000a89 940e 1521 	CALL SUBOPT_0x3D
                 ; 0000 03A3 			led_green=0x00000111L;
                +
000a8b e1e1     +LDI R30 , LOW ( 0x111 )
000a8c e0f1     +LDI R31 , HIGH ( 0x111 )
000a8d e060     +LDI R22 , BYTE3 ( 0x111 )
000a8e e070     +LDI R23 , BYTE4 ( 0x111 )
                 	__GETD1N 0x111
000a8f c026      	RJMP _0x3E9
                 ; 0000 03A4 			}
                 ; 0000 03A5 
                 ; 0000 03A6 		else if((flags&0b00111110)==0b00000100)
                 _0x1E5:
000a90 940e 1542 	CALL SUBOPT_0x41
000a92 f419      	BRNE _0x1E9
                 ; 0000 03A7 			{
                 ; 0000 03A8 			led_red=0x00010001L;
000a93 940e 1547 	CALL SUBOPT_0x42
000a95 c016      	RJMP _0x3EA
                 ; 0000 03A9 			led_green=0xffffffffL;
                 ; 0000 03AA 			}
                 ; 0000 03AB 		else if(flags&0b00000010)
                 _0x1E9:
000a96 91e0 02c3 	LDS  R30,_flags
000a98 70e2      	ANDI R30,LOW(0x2)
000a99 f029      	BREQ _0x1EB
                 ; 0000 03AC 			{
                 ; 0000 03AD 			led_red=0x00010001L;
000a9a 940e 154c 	CALL SUBOPT_0x43
                 ; 0000 03AE 			led_green=0x00000000L;
000a9c 940e 154e 	CALL SUBOPT_0x44
                 ; 0000 03AF 			}
                 ; 0000 03B0 		else if(flags&0b00001000)
000a9e c01f      	RJMP _0x1EC
                 _0x1EB:
000a9f 91e0 02c3 	LDS  R30,_flags
000aa1 70e8      	ANDI R30,LOW(0x8)
000aa2 f019      	BREQ _0x1ED
                 ; 0000 03B1 			{
                 ; 0000 03B2 			led_red=0x00090009L;
000aa3 940e 1558 	CALL SUBOPT_0x45
                 ; 0000 03B3 			led_green=0x00000000L;
                 ; 0000 03B4 			}
                 ; 0000 03B5 		else if(flags&0b00010000)
000aa5 c018      	RJMP _0x1EE
                 _0x1ED:
000aa6 91e0 02c3 	LDS  R30,_flags
000aa8 71e0      	ANDI R30,LOW(0x10)
000aa9 f0a1      	BREQ _0x1EF
                 ; 0000 03B6 			{
                 ; 0000 03B7 			led_red=0x00490049L;
000aaa 940e 155e 	CALL SUBOPT_0x46
                 _0x3EA:
000aac 93e0 02c9 	STS  _led_red,R30
000aae 93f0 02ca 	STS  _led_red+1,R31
000ab0 9360 02cb 	STS  _led_red+2,R22
000ab2 9370 02cc 	STS  _led_red+3,R23
                 ; 0000 03B8 			led_green=0xffffffffL;
000ab4 940e 1534 	CALL SUBOPT_0x3F
                 _0x3E9:
000ab6 93e0 02cd 	STS  _led_green,R30
000ab8 93f0 02ce 	STS  _led_green+1,R31
000aba 9360 02cf 	STS  _led_green+2,R22
000abc 9370 02d0 	STS  _led_green+3,R23
                 ; 0000 03B9 			}
                 ; 0000 03BA 
                 ; 0000 03BB /*		else if((link==ON)&&(flags&0b00100000))
                 ; 0000 03BC 			{
                 ; 0000 03BD 			led_red=0x00000000L;
                 ; 0000 03BE 			led_green=0x00030003L;
                 ; 0000 03BF 			} */
                 ; 0000 03C0 
                 ; 0000 03C1 		if((jp_mode==jp1))
                 _0x1EF:
                 _0x1EE:
                 _0x1EC:
000abe 91a0 02ec 	LDS  R26,_jp_mode
000ac0 30a1      	CPI  R26,LOW(0x1)
000ac1 f429      	BRNE _0x1F0
                 ; 0000 03C2 			{
                 ; 0000 03C3 			led_red=0x00000000L;
000ac2 940e 152a 	CALL SUBOPT_0x3E
                 ; 0000 03C4 			led_green=0x33333333L;
000ac4 940e 1563 	CALL SUBOPT_0x47
                 ; 0000 03C5 			}
                 ; 0000 03C6 		else if((jp_mode==jp2))
000ac6 c006      	RJMP _0x1F1
                 _0x1F0:
000ac7 91a0 02ec 	LDS  R26,_jp_mode
000ac9 30a2      	CPI  R26,LOW(0x2)
000aca f411      	BRNE _0x1F2
                 ; 0000 03C7 			{
                 ; 0000 03C8 			led_red=0xccccccccL;
000acb 940e 1568 	CALL SUBOPT_0x48
                 ; 0000 03C9 			led_green=0x00000000L;
                 ; 0000 03CA 			}
                 ; 0000 03CB 		}
                 _0x1F2:
                 _0x1F1:
                 ; 0000 03CC 
                 ; 0000 03CD /*    if(umin_cnt)
                 ; 0000 03CE         {
                 ; 0000 03CF         led_red=0x00c900c9L;
                 ; 0000 03D0 		led_green=0x00c000c0L;
                 ; 0000 03D1         } */
                 ; 0000 03D2 	}
                 _0x1E4:
                 ; 0000 03D3 else if(bps_class==bpsIBEP)	//если блок ИБЭПный
000acd c246      	RJMP _0x1F3
                 _0x1E3:
000ace 91e0 0314 	LDS  R30,_bps_class
000ad0 30e0      	CPI  R30,0
000ad1 f009      	BREQ PC+2
000ad2 c0ec      	RJMP _0x1F4
                 ; 0000 03D4 	{
                 ; 0000 03D5 	if(jp_mode!=jp3)
000ad3 91a0 02ec 	LDS  R26,_jp_mode
000ad5 30a3      	CPI  R26,LOW(0x3)
000ad6 f409      	BRNE PC+2
000ad7 c090      	RJMP _0x1F5
                 ; 0000 03D6 		{
                 ; 0000 03D7 		if(main_cnt1<(5*ee_TZAS))
000ad8 940e 1463 	CALL SUBOPT_0x26
000ada 940e 156e 	CALL SUBOPT_0x49
000adc 17ae      	CP   R26,R30
000add 07bf      	CPC  R27,R31
000ade f42c      	BRGE _0x1F6
                 ; 0000 03D8 			{
                 ; 0000 03D9 			led_red=0x00000000L;
000adf 940e 152a 	CALL SUBOPT_0x3E
                 ; 0000 03DA 			led_green=0x03030303L;
000ae1 940e 1577 	CALL SUBOPT_0x4A
000ae3 c06c      	RJMP _0x3EB
                 ; 0000 03DB 			}
                 ; 0000 03DC 
                 ; 0000 03DD 		else if((link==ON)&&(flags_tu&0b10000000))
                 _0x1F6:
000ae4 91a0 02da 	LDS  R26,_link
000ae6 35a5      	CPI  R26,LOW(0x55)
000ae7 f421      	BRNE _0x1F9
000ae8 91e0 02c4 	LDS  R30,_flags_tu
000aea 78e0      	ANDI R30,LOW(0x80)
000aeb f409      	BRNE _0x1FA
                 _0x1F9:
000aec c003      	RJMP _0x1F8
                 _0x1FA:
                 ; 0000 03DE 			{
                 ; 0000 03DF 			led_red=0x00055555L;
000aed 940e 157c 	CALL SUBOPT_0x4B
                 ; 0000 03E0 			led_green=0xffffffffL;
000aef c060      	RJMP _0x3EB
                 ; 0000 03E1 			}
                 ; 0000 03E2 
                 ; 0000 03E3 		else if(((main_cnt1>(5*ee_TZAS))&&(main_cnt1<(100+(5*ee_TZAS)))) && (ee_AVT_MODE!=0x55)&& (!ee_DEVICE))
                 _0x1F8:
000af0 940e 1463 	CALL SUBOPT_0x26
000af2 940e 156e 	CALL SUBOPT_0x49
000af4 17ea      	CP   R30,R26
000af5 07fb      	CPC  R31,R27
000af6 f41c      	BRGE _0x1FD
000af7 940e 1582 	CALL SUBOPT_0x4C
000af9 f00c      	BRLT _0x1FE
                 _0x1FD:
000afa c00a      	RJMP _0x1FF
                 _0x1FE:
000afb 940e 144a 	CALL SUBOPT_0x21
000afd 35e5      	CPI  R30,LOW(0x55)
000afe e0a0      	LDI  R26,HIGH(0x55)
000aff 07fa      	CPC  R31,R26
000b00 f021      	BREQ _0x1FF
000b01 940e 145e 	CALL SUBOPT_0x25
000b03 9730      	SBIW R30,0
000b04 f009      	BREQ _0x200
                 _0x1FF:
000b05 c005      	RJMP _0x1FC
                 _0x200:
                 ; 0000 03E4 			{
                 ; 0000 03E5 			led_red=0x00000000L;
000b06 940e 152a 	CALL SUBOPT_0x3E
                 ; 0000 03E6 			led_green=0xffffffffL;
000b08 940e 1534 	CALL SUBOPT_0x3F
000b0a c045      	RJMP _0x3EB
                 ; 0000 03E7 			}
                 ; 0000 03E8 
                 ; 0000 03E9 		else  if(link==OFF)
                 _0x1FC:
000b0b 91a0 02da 	LDS  R26,_link
000b0d 3aaa      	CPI  R26,LOW(0xAA)
000b0e f419      	BRNE _0x202
                 ; 0000 03EA 			{
                 ; 0000 03EB 			led_red=0x55555555L;
000b0f 940e 158b 	CALL SUBOPT_0x4D
                 ; 0000 03EC 			led_green=0xffffffffL;
000b11 c03e      	RJMP _0x3EB
                 ; 0000 03ED 			}
                 ; 0000 03EE 
                 ; 0000 03EF 		else if((link==ON)&&((flags&0b00111110)==0))
                 _0x202:
000b12 91a0 02da 	LDS  R26,_link
000b14 35a5      	CPI  R26,LOW(0x55)
000b15 f421      	BRNE _0x205
000b16 91e0 02c3 	LDS  R30,_flags
000b18 73ee      	ANDI R30,LOW(0x3E)
000b19 f009      	BREQ _0x206
                 _0x205:
000b1a c005      	RJMP _0x204
                 _0x206:
                 ; 0000 03F0 			{
                 ; 0000 03F1 			led_red=0x00000000L;
000b1b 940e 152a 	CALL SUBOPT_0x3E
                 ; 0000 03F2 			led_green=0xffffffffL;
000b1d 940e 1534 	CALL SUBOPT_0x3F
000b1f c030      	RJMP _0x3EB
                 ; 0000 03F3 			}
                 ; 0000 03F4 
                 ; 0000 03F5 		else if((flags&0b00111110)==0b00000100)
                 _0x204:
000b20 940e 1542 	CALL SUBOPT_0x41
000b22 f429      	BRNE _0x208
                 ; 0000 03F6 			{
                 ; 0000 03F7 			led_red=0x00010001L;
000b23 940e 154c 	CALL SUBOPT_0x43
                 ; 0000 03F8 			led_green=0xffffffffL;
000b25 940e 1534 	CALL SUBOPT_0x3F
000b27 c028      	RJMP _0x3EB
                 ; 0000 03F9 			}
                 ; 0000 03FA 		else if(flags&0b00000010)
                 _0x208:
000b28 91e0 02c3 	LDS  R30,_flags
000b2a 70e2      	ANDI R30,LOW(0x2)
000b2b f029      	BREQ _0x20A
                 ; 0000 03FB 			{
                 ; 0000 03FC 			led_red=0x00010001L;
000b2c 940e 154c 	CALL SUBOPT_0x43
                 ; 0000 03FD 			led_green=0x00000000L;
000b2e 940e 154e 	CALL SUBOPT_0x44
                 ; 0000 03FE 			}
                 ; 0000 03FF 		else if(flags&0b00001000)
000b30 c027      	RJMP _0x20B
                 _0x20A:
000b31 91e0 02c3 	LDS  R30,_flags
000b33 70e8      	ANDI R30,LOW(0x8)
000b34 f019      	BREQ _0x20C
                 ; 0000 0400 			{
                 ; 0000 0401 			led_red=0x00090009L;
000b35 940e 1558 	CALL SUBOPT_0x45
                 ; 0000 0402 			led_green=0x00000000L;
                 ; 0000 0403 			}
                 ; 0000 0404 		else if(flags&0b00010000)
000b37 c020      	RJMP _0x20D
                 _0x20C:
000b38 91e0 02c3 	LDS  R30,_flags
000b3a 71e0      	ANDI R30,LOW(0x10)
000b3b f029      	BREQ _0x20E
                 ; 0000 0405 			{
                 ; 0000 0406 			led_red=0x00490049L;
000b3c 940e 158e 	CALL SUBOPT_0x4E
                 ; 0000 0407 			led_green=0x00000000L;
000b3e 940e 154e 	CALL SUBOPT_0x44
                 ; 0000 0408 			}
                 ; 0000 0409 
                 ; 0000 040A 		else if((link==ON)&&(flags&0b00100000))
000b40 c017      	RJMP _0x20F
                 _0x20E:
000b41 91a0 02da 	LDS  R26,_link
000b43 35a5      	CPI  R26,LOW(0x55)
000b44 f421      	BRNE _0x211
000b45 91e0 02c3 	LDS  R30,_flags
000b47 72e0      	ANDI R30,LOW(0x20)
000b48 f409      	BRNE _0x212
                 _0x211:
000b49 c00e      	RJMP _0x210
                 _0x212:
                 ; 0000 040B 			{
                 ; 0000 040C 			led_red=0x00000000L;
000b4a 940e 152a 	CALL SUBOPT_0x3E
                 ; 0000 040D 			led_green=0x00030003L;
                +
000b4c e0e3     +LDI R30 , LOW ( 0x30003 )
000b4d e0f0     +LDI R31 , HIGH ( 0x30003 )
000b4e e063     +LDI R22 , BYTE3 ( 0x30003 )
000b4f e070     +LDI R23 , BYTE4 ( 0x30003 )
                 	__GETD1N 0x30003
                 _0x3EB:
000b50 93e0 02cd 	STS  _led_green,R30
000b52 93f0 02ce 	STS  _led_green+1,R31
000b54 9360 02cf 	STS  _led_green+2,R22
000b56 9370 02d0 	STS  _led_green+3,R23
                 ; 0000 040E 			}
                 ; 0000 040F 
                 ; 0000 0410 		if((jp_mode==jp1))
                 _0x210:
                 _0x20F:
                 _0x20D:
                 _0x20B:
000b58 91a0 02ec 	LDS  R26,_jp_mode
000b5a 30a1      	CPI  R26,LOW(0x1)
000b5b f429      	BRNE _0x213
                 ; 0000 0411 			{
                 ; 0000 0412 			led_red=0x00000000L;
000b5c 940e 152a 	CALL SUBOPT_0x3E
                 ; 0000 0413 			led_green=0x33333333L;
000b5e 940e 1563 	CALL SUBOPT_0x47
                 ; 0000 0414 			}
                 ; 0000 0415 		else if((jp_mode==jp2))
000b60 c006      	RJMP _0x214
                 _0x213:
000b61 91a0 02ec 	LDS  R26,_jp_mode
000b63 30a2      	CPI  R26,LOW(0x2)
000b64 f411      	BRNE _0x215
                 ; 0000 0416 			{
                 ; 0000 0417 			led_red=0xccccccccL;
000b65 940e 1568 	CALL SUBOPT_0x48
                 ; 0000 0418 			led_green=0x00000000L;
                 ; 0000 0419 			}
                 ; 0000 041A 		}
                 _0x215:
                 _0x214:
                 ; 0000 041B 	else if(jp_mode==jp3)
000b67 c056      	RJMP _0x216
                 _0x1F5:
000b68 91a0 02ec 	LDS  R26,_jp_mode
000b6a 30a3      	CPI  R26,LOW(0x3)
000b6b f009      	BREQ PC+2
000b6c c051      	RJMP _0x217
                 ; 0000 041C 		{
                 ; 0000 041D 		if(main_cnt1<(5*ee_TZAS))
000b6d 940e 1463 	CALL SUBOPT_0x26
000b6f 940e 156e 	CALL SUBOPT_0x49
000b71 17ae      	CP   R26,R30
000b72 07bf      	CPC  R27,R31
000b73 f42c      	BRGE _0x218
                 ; 0000 041E 			{
                 ; 0000 041F 			led_red=0x00000000L;
000b74 940e 152a 	CALL SUBOPT_0x3E
                 ; 0000 0420 			led_green=0x03030303L;
000b76 940e 1577 	CALL SUBOPT_0x4A
000b78 c03d      	RJMP _0x3EC
                 ; 0000 0421 			}
                 ; 0000 0422 		else if((main_cnt1>(5*ee_TZAS))&&(main_cnt1<(70+(5*ee_TZAS))))
                 _0x218:
000b79 940e 1463 	CALL SUBOPT_0x26
000b7b 940e 156e 	CALL SUBOPT_0x49
000b7d 17ea      	CP   R30,R26
000b7e 07fb      	CPC  R31,R27
000b7f f41c      	BRGE _0x21B
000b80 940e 1590 	CALL SUBOPT_0x4F
000b82 f00c      	BRLT _0x21C
                 _0x21B:
000b83 c003      	RJMP _0x21A
                 _0x21C:
                 ; 0000 0423 			{
                 ; 0000 0424 			led_red=0x00000000L;
000b84 940e 152a 	CALL SUBOPT_0x3E
                 ; 0000 0425 			led_green=0xffffffffL;
000b86 c02b      	RJMP _0x3ED
                 ; 0000 0426 			}
                 ; 0000 0427 
                 ; 0000 0428 		else if((flags&0b00011110)==0)
                 _0x21A:
000b87 91e0 02c3 	LDS  R30,_flags
000b89 71ee      	ANDI R30,LOW(0x1E)
000b8a f419      	BRNE _0x21E
                 ; 0000 0429 			{
                 ; 0000 042A 			led_red=0x00000000L;
000b8b 940e 152a 	CALL SUBOPT_0x3E
                 ; 0000 042B 			led_green=0xffffffffL;
000b8d c024      	RJMP _0x3ED
                 ; 0000 042C 			}
                 ; 0000 042D 
                 ; 0000 042E 
                 ; 0000 042F 		else if((flags&0b00111110)==0b00000100)
                 _0x21E:
000b8e 940e 1542 	CALL SUBOPT_0x41
000b90 f419      	BRNE _0x220
                 ; 0000 0430 			{
                 ; 0000 0431 			led_red=0x00010001L;
000b91 940e 1547 	CALL SUBOPT_0x42
000b93 c016      	RJMP _0x3EE
                 ; 0000 0432 			led_green=0xffffffffL;
                 ; 0000 0433 			}
                 ; 0000 0434 		else if(flags&0b00000010)
                 _0x220:
000b94 91e0 02c3 	LDS  R30,_flags
000b96 70e2      	ANDI R30,LOW(0x2)
000b97 f029      	BREQ _0x222
                 ; 0000 0435 			{
                 ; 0000 0436 			led_red=0x00010001L;
000b98 940e 154c 	CALL SUBOPT_0x43
                 ; 0000 0437 			led_green=0x00000000L;
000b9a 940e 154e 	CALL SUBOPT_0x44
                 ; 0000 0438 			}
                 ; 0000 0439 		else if(flags&0b00001000)
000b9c c021      	RJMP _0x223
                 _0x222:
000b9d 91e0 02c3 	LDS  R30,_flags
000b9f 70e8      	ANDI R30,LOW(0x8)
000ba0 f019      	BREQ _0x224
                 ; 0000 043A 			{
                 ; 0000 043B 			led_red=0x00090009L;
000ba1 940e 1558 	CALL SUBOPT_0x45
                 ; 0000 043C 			led_green=0x00000000L;
                 ; 0000 043D 			}
                 ; 0000 043E 		else if(flags&0b00010000)
000ba3 c01a      	RJMP _0x225
                 _0x224:
000ba4 91e0 02c3 	LDS  R30,_flags
000ba6 71e0      	ANDI R30,LOW(0x10)
000ba7 f0b1      	BREQ _0x226
                 ; 0000 043F 			{
                 ; 0000 0440 			led_red=0x00490049L;
000ba8 940e 155e 	CALL SUBOPT_0x46
                 _0x3EE:
000baa 93e0 02c9 	STS  _led_red,R30
000bac 93f0 02ca 	STS  _led_red+1,R31
000bae 9360 02cb 	STS  _led_red+2,R22
000bb0 9370 02cc 	STS  _led_red+3,R23
                 ; 0000 0441 			led_green=0xffffffffL;
                 _0x3ED:
                +
000bb2 efef     +LDI R30 , LOW ( 0xFFFFFFFF )
000bb3 efff     +LDI R31 , HIGH ( 0xFFFFFFFF )
000bb4 ef6f     +LDI R22 , BYTE3 ( 0xFFFFFFFF )
000bb5 ef7f     +LDI R23 , BYTE4 ( 0xFFFFFFFF )
                 	__GETD1N 0xFFFFFFFF
                 _0x3EC:
000bb6 93e0 02cd 	STS  _led_green,R30
000bb8 93f0 02ce 	STS  _led_green+1,R31
000bba 9360 02cf 	STS  _led_green+2,R22
000bbc 9370 02d0 	STS  _led_green+3,R23
                 ; 0000 0442 			}
                 ; 0000 0443 		}
                 _0x226:
                 _0x225:
                 _0x223:
                 ; 0000 0444 	}
                 _0x217:
                 _0x216:
                 ; 0000 0445 else if(bps_class==bpsIPS)	//если блок ИПСный
000bbe c155      	RJMP _0x227
                 _0x1F4:
000bbf 91a0 0314 	LDS  R26,_bps_class
000bc1 30a1      	CPI  R26,LOW(0x1)
000bc2 f009      	BREQ PC+2
000bc3 c150      	RJMP _0x228
                 ; 0000 0446 	{
                 ; 0000 0447 	if(jp_mode!=jp3)
000bc4 91a0 02ec 	LDS  R26,_jp_mode
000bc6 30a3      	CPI  R26,LOW(0x3)
000bc7 f409      	BRNE PC+2
000bc8 c0f5      	RJMP _0x229
                 ; 0000 0448 		{
                 ; 0000 0449 		if(main_cnt1<(5*ee_TZAS))
000bc9 940e 1463 	CALL SUBOPT_0x26
000bcb 940e 156e 	CALL SUBOPT_0x49
000bcd 17ae      	CP   R26,R30
000bce 07bf      	CPC  R27,R31
000bcf f42c      	BRGE _0x22A
                 ; 0000 044A 			{
                 ; 0000 044B 			led_red=0x00000000L;
000bd0 940e 152a 	CALL SUBOPT_0x3E
                 ; 0000 044C 			led_green=0x03030303L;
000bd2 940e 1577 	CALL SUBOPT_0x4A
000bd4 c0d1      	RJMP _0x3EF
                 ; 0000 044D 			}
                 ; 0000 044E 
                 ; 0000 044F 		else if((link==ON)&&(flags_tu&0b10000000))
                 _0x22A:
000bd5 91a0 02da 	LDS  R26,_link
000bd7 35a5      	CPI  R26,LOW(0x55)
000bd8 f421      	BRNE _0x22D
000bd9 91e0 02c4 	LDS  R30,_flags_tu
000bdb 78e0      	ANDI R30,LOW(0x80)
000bdc f409      	BRNE _0x22E
                 _0x22D:
000bdd c003      	RJMP _0x22C
                 _0x22E:
                 ; 0000 0450 			{
                 ; 0000 0451 			led_red=0x00055555L;
000bde 940e 157c 	CALL SUBOPT_0x4B
                 ; 0000 0452 			led_green=0xffffffffL;
000be0 c0c5      	RJMP _0x3EF
                 ; 0000 0453 			}
                 ; 0000 0454 
                 ; 0000 0455 		else if(((main_cnt1>(5*ee_TZAS))&&(main_cnt1<(100+(5*ee_TZAS)))) && (ee_AVT_MODE!=0x55)&& (!ee_DEVICE))
                 _0x22C:
000be1 940e 1463 	CALL SUBOPT_0x26
000be3 940e 156e 	CALL SUBOPT_0x49
000be5 17ea      	CP   R30,R26
000be6 07fb      	CPC  R31,R27
000be7 f41c      	BRGE _0x231
000be8 940e 1582 	CALL SUBOPT_0x4C
000bea f00c      	BRLT _0x232
                 _0x231:
000beb c00a      	RJMP _0x233
                 _0x232:
000bec 940e 144a 	CALL SUBOPT_0x21
000bee 35e5      	CPI  R30,LOW(0x55)
000bef e0a0      	LDI  R26,HIGH(0x55)
000bf0 07fa      	CPC  R31,R26
000bf1 f021      	BREQ _0x233
000bf2 940e 145e 	CALL SUBOPT_0x25
000bf4 9730      	SBIW R30,0
000bf5 f009      	BREQ _0x234
                 _0x233:
000bf6 c005      	RJMP _0x230
                 _0x234:
                 ; 0000 0456 			{
                 ; 0000 0457 			led_red=0x00000000L;
000bf7 940e 152a 	CALL SUBOPT_0x3E
                 ; 0000 0458 			led_green=0xffffffffL;
000bf9 940e 1534 	CALL SUBOPT_0x3F
000bfb c0aa      	RJMP _0x3EF
                 ; 0000 0459 			}
                 ; 0000 045A 
                 ; 0000 045B 		else  if(link==OFF)
                 _0x230:
000bfc 91a0 02da 	LDS  R26,_link
000bfe 3aaa      	CPI  R26,LOW(0xAA)
000bff f009      	BREQ PC+2
000c00 c067      	RJMP _0x236
                 ; 0000 045C 			{
                 ; 0000 045D 			if((flags&0b00011110)==0)
000c01 91e0 02c3 	LDS  R30,_flags
000c03 71ee      	ANDI R30,LOW(0x1E)
000c04 f4a9      	BRNE _0x237
                 ; 0000 045E 				{
                 ; 0000 045F 				led_red=0x00000000L;
000c05 940e 152a 	CALL SUBOPT_0x3E
                 ; 0000 0460 				if(bMAIN)led_green=0xfffffff5L;
000c07 b5ea      	IN   R30,0x2A
000c08 ffe1      	SBRS R30,1
000c09 c005      	RJMP _0x238
                +
000c0a efe5     +LDI R30 , LOW ( 0xFFFFFFF5 )
000c0b efff     +LDI R31 , HIGH ( 0xFFFFFFF5 )
000c0c ef6f     +LDI R22 , BYTE3 ( 0xFFFFFFF5 )
000c0d ef7f     +LDI R23 , BYTE4 ( 0xFFFFFFF5 )
                 	__GETD1N 0xFFFFFFF5
000c0e c002      	RJMP _0x3F0
                 ; 0000 0461 				else led_green=0xffffffffL;
                 _0x238:
000c0f 940e 1534 	CALL SUBOPT_0x3F
                 _0x3F0:
000c11 93e0 02cd 	STS  _led_green,R30
000c13 93f0 02ce 	STS  _led_green+1,R31
000c15 9360 02cf 	STS  _led_green+2,R22
000c17 9370 02d0 	STS  _led_green+3,R23
                 ; 0000 0462 				}
                 ; 0000 0463 
                 ; 0000 0464 			else if((flags&0b00111110)==0b00000100)
000c19 c04d      	RJMP _0x23A
                 _0x237:
000c1a 940e 1542 	CALL SUBOPT_0x41
000c1c f4a9      	BRNE _0x23B
                 ; 0000 0465 				{
                 ; 0000 0466 				led_red=0x00010001L;
000c1d 940e 154c 	CALL SUBOPT_0x43
                 ; 0000 0467 				if(bMAIN)led_green=0xfffffff5L;
000c1f b5ea      	IN   R30,0x2A
000c20 ffe1      	SBRS R30,1
000c21 c005      	RJMP _0x23C
                +
000c22 efe5     +LDI R30 , LOW ( 0xFFFFFFF5 )
000c23 efff     +LDI R31 , HIGH ( 0xFFFFFFF5 )
000c24 ef6f     +LDI R22 , BYTE3 ( 0xFFFFFFF5 )
000c25 ef7f     +LDI R23 , BYTE4 ( 0xFFFFFFF5 )
                 	__GETD1N 0xFFFFFFF5
000c26 c002      	RJMP _0x3F1
                 ; 0000 0468 				else led_green=0xffffffffL;
                 _0x23C:
000c27 940e 1534 	CALL SUBOPT_0x3F
                 _0x3F1:
000c29 93e0 02cd 	STS  _led_green,R30
000c2b 93f0 02ce 	STS  _led_green+1,R31
000c2d 9360 02cf 	STS  _led_green+2,R22
000c2f 9370 02d0 	STS  _led_green+3,R23
                 ; 0000 0469 				}
                 ; 0000 046A 			else if(flags&0b00000010)
000c31 c035      	RJMP _0x23E
                 _0x23B:
000c32 91e0 02c3 	LDS  R30,_flags
000c34 70e2      	ANDI R30,LOW(0x2)
000c35 f059      	BREQ _0x23F
                 ; 0000 046B 				{
                 ; 0000 046C 				led_red=0x00010001L;
000c36 940e 154c 	CALL SUBOPT_0x43
                 ; 0000 046D 				if(bMAIN)led_green=0x00000005L;
000c38 b5ea      	IN   R30,0x2A
000c39 ffe1      	SBRS R30,1
000c3a c003      	RJMP _0x240
000c3b 940e 1599 	CALL SUBOPT_0x50
                 ; 0000 046E 				else led_green=0x00000000L;
000c3d c002      	RJMP _0x241
                 _0x240:
000c3e 940e 154e 	CALL SUBOPT_0x44
                 ; 0000 046F 				}
                 _0x241:
                 ; 0000 0470 			else if(flags&0b00001000)
000c40 c026      	RJMP _0x242
                 _0x23F:
000c41 91e0 02c3 	LDS  R30,_flags
000c43 70e8      	ANDI R30,LOW(0x8)
000c44 f079      	BREQ _0x243
                 ; 0000 0471 				{
                 ; 0000 0472 				led_red=0x00090009L;
                +
000c45 e0e9     +LDI R30 , LOW ( 0x90009 )
000c46 e0f0     +LDI R31 , HIGH ( 0x90009 )
000c47 e069     +LDI R22 , BYTE3 ( 0x90009 )
000c48 e070     +LDI R23 , BYTE4 ( 0x90009 )
                 	__GETD1N 0x90009
000c49 940e 1521 	CALL SUBOPT_0x3D
                 ; 0000 0473 				if(bMAIN)led_green=0x00000005L;
000c4b b5ea      	IN   R30,0x2A
000c4c ffe1      	SBRS R30,1
000c4d c003      	RJMP _0x244
000c4e 940e 1599 	CALL SUBOPT_0x50
                 ; 0000 0474 				else led_green=0x00000000L;
000c50 c002      	RJMP _0x245
                 _0x244:
000c51 940e 154e 	CALL SUBOPT_0x44
                 ; 0000 0475 				}
                 _0x245:
                 ; 0000 0476 			else if(flags&0b00010000)
000c53 c013      	RJMP _0x246
                 _0x243:
000c54 91e0 02c3 	LDS  R30,_flags
000c56 71e0      	ANDI R30,LOW(0x10)
000c57 f059      	BREQ _0x247
                 ; 0000 0477 				{
                 ; 0000 0478 				led_red=0x00490049L;
000c58 940e 158e 	CALL SUBOPT_0x4E
                 ; 0000 0479 				if(bMAIN)led_green=0x00000005L;
000c5a b5ea      	IN   R30,0x2A
000c5b ffe1      	SBRS R30,1
000c5c c003      	RJMP _0x248
000c5d 940e 1599 	CALL SUBOPT_0x50
                 ; 0000 047A 				else led_green=0x00000000L;
000c5f c002      	RJMP _0x249
                 _0x248:
000c60 940e 154e 	CALL SUBOPT_0x44
                 ; 0000 047B 				}
                 _0x249:
                 ; 0000 047C 			else
000c62 c004      	RJMP _0x24A
                 _0x247:
                 ; 0000 047D 				{
                 ; 0000 047E 				led_red=0x55555555L;
000c63 940e 158b 	CALL SUBOPT_0x4D
                 ; 0000 047F 				led_green=0xffffffffL;
000c65 940e 1539 	CALL SUBOPT_0x40
                 ; 0000 0480 				}
                 _0x24A:
                 _0x246:
                 _0x242:
                 _0x23E:
                 _0x23A:
                 ; 0000 0481 
                 ; 0000 0482 
                 ; 0000 0483 /*			if(bMAIN)
                 ; 0000 0484 				{
                 ; 0000 0485 				led_red=0x0L;
                 ; 0000 0486 				led_green=0xfffffff5L;
                 ; 0000 0487 				}
                 ; 0000 0488 			else
                 ; 0000 0489 				{
                 ; 0000 048A 				led_red=0x55555555L;
                 ; 0000 048B 				led_green=0xffffffffL;
                 ; 0000 048C 				}*/
                 ; 0000 048D 			}
                 ; 0000 048E 
                 ; 0000 048F 		else if((link==ON)&&((flags&0b00111110)==0))
000c67 c046      	RJMP _0x24B
                 _0x236:
000c68 91a0 02da 	LDS  R26,_link
000c6a 35a5      	CPI  R26,LOW(0x55)
000c6b f421      	BRNE _0x24D
000c6c 91e0 02c3 	LDS  R30,_flags
000c6e 73ee      	ANDI R30,LOW(0x3E)
000c6f f009      	BREQ _0x24E
                 _0x24D:
000c70 c005      	RJMP _0x24C
                 _0x24E:
                 ; 0000 0490 			{
                 ; 0000 0491 			led_red=0x00000000L;
000c71 940e 152a 	CALL SUBOPT_0x3E
                 ; 0000 0492 			led_green=0xffffffffL;
000c73 940e 1534 	CALL SUBOPT_0x3F
000c75 c030      	RJMP _0x3EF
                 ; 0000 0493 			}
                 ; 0000 0494 
                 ; 0000 0495 		else if((flags&0b00111110)==0b00000100)
                 _0x24C:
000c76 940e 1542 	CALL SUBOPT_0x41
000c78 f429      	BRNE _0x250
                 ; 0000 0496 			{
                 ; 0000 0497 			led_red=0x00010001L;
000c79 940e 154c 	CALL SUBOPT_0x43
                 ; 0000 0498 			led_green=0xffffffffL;
000c7b 940e 1534 	CALL SUBOPT_0x3F
000c7d c028      	RJMP _0x3EF
                 ; 0000 0499 			}
                 ; 0000 049A 		else if(flags&0b00000010)
                 _0x250:
000c7e 91e0 02c3 	LDS  R30,_flags
000c80 70e2      	ANDI R30,LOW(0x2)
000c81 f029      	BREQ _0x252
                 ; 0000 049B 			{
                 ; 0000 049C 			led_red=0x00010001L;
000c82 940e 154c 	CALL SUBOPT_0x43
                 ; 0000 049D 			led_green=0x00000000L;
000c84 940e 154e 	CALL SUBOPT_0x44
                 ; 0000 049E 			}
                 ; 0000 049F 		else if(flags&0b00001000)
000c86 c027      	RJMP _0x253
                 _0x252:
000c87 91e0 02c3 	LDS  R30,_flags
000c89 70e8      	ANDI R30,LOW(0x8)
000c8a f019      	BREQ _0x254
                 ; 0000 04A0 			{
                 ; 0000 04A1 			led_red=0x00090009L;
000c8b 940e 1558 	CALL SUBOPT_0x45
                 ; 0000 04A2 			led_green=0x00000000L;
                 ; 0000 04A3 			}
                 ; 0000 04A4 		else if(flags&0b00010000)
000c8d c020      	RJMP _0x255
                 _0x254:
000c8e 91e0 02c3 	LDS  R30,_flags
000c90 71e0      	ANDI R30,LOW(0x10)
000c91 f029      	BREQ _0x256
                 ; 0000 04A5 			{
                 ; 0000 04A6 			led_red=0x00490049L;
000c92 940e 158e 	CALL SUBOPT_0x4E
                 ; 0000 04A7 			led_green=0x00000000L;
000c94 940e 154e 	CALL SUBOPT_0x44
                 ; 0000 04A8 			}
                 ; 0000 04A9 
                 ; 0000 04AA 		else if((link==ON)&&(flags&0b00100000))
000c96 c017      	RJMP _0x257
                 _0x256:
000c97 91a0 02da 	LDS  R26,_link
000c99 35a5      	CPI  R26,LOW(0x55)
000c9a f421      	BRNE _0x259
000c9b 91e0 02c3 	LDS  R30,_flags
000c9d 72e0      	ANDI R30,LOW(0x20)
000c9e f409      	BRNE _0x25A
                 _0x259:
000c9f c00e      	RJMP _0x258
                 _0x25A:
                 ; 0000 04AB 			{
                 ; 0000 04AC 			led_red=0x00000000L;
000ca0 940e 152a 	CALL SUBOPT_0x3E
                 ; 0000 04AD 			led_green=0x00030003L;
                +
000ca2 e0e3     +LDI R30 , LOW ( 0x30003 )
000ca3 e0f0     +LDI R31 , HIGH ( 0x30003 )
000ca4 e063     +LDI R22 , BYTE3 ( 0x30003 )
000ca5 e070     +LDI R23 , BYTE4 ( 0x30003 )
                 	__GETD1N 0x30003
                 _0x3EF:
000ca6 93e0 02cd 	STS  _led_green,R30
000ca8 93f0 02ce 	STS  _led_green+1,R31
000caa 9360 02cf 	STS  _led_green+2,R22
000cac 9370 02d0 	STS  _led_green+3,R23
                 ; 0000 04AE 			}
                 ; 0000 04AF 
                 ; 0000 04B0 		if((jp_mode==jp1))
                 _0x258:
                 _0x257:
                 _0x255:
                 _0x253:
                 _0x24B:
000cae 91a0 02ec 	LDS  R26,_jp_mode
000cb0 30a1      	CPI  R26,LOW(0x1)
000cb1 f429      	BRNE _0x25B
                 ; 0000 04B1 			{
                 ; 0000 04B2 			led_red=0x00000000L;
000cb2 940e 152a 	CALL SUBOPT_0x3E
                 ; 0000 04B3 			led_green=0x33333333L;
000cb4 940e 1563 	CALL SUBOPT_0x47
                 ; 0000 04B4 			}
                 ; 0000 04B5 		else if((jp_mode==jp2))
000cb6 c006      	RJMP _0x25C
                 _0x25B:
000cb7 91a0 02ec 	LDS  R26,_jp_mode
000cb9 30a2      	CPI  R26,LOW(0x2)
000cba f411      	BRNE _0x25D
                 ; 0000 04B6 			{
                 ; 0000 04B7 			//if(ee_DEVICE)led_red=0xccccccacL;
                 ; 0000 04B8 			//else led_red=0xcc0cccacL;
                 ; 0000 04B9 			led_red=0xccccccccL;
000cbb 940e 1568 	CALL SUBOPT_0x48
                 ; 0000 04BA 			led_green=0x00000000L;
                 ; 0000 04BB 			}
                 ; 0000 04BC 		}
                 _0x25D:
                 _0x25C:
                 ; 0000 04BD 	else if(jp_mode==jp3)
000cbd c056      	RJMP _0x25E
                 _0x229:
000cbe 91a0 02ec 	LDS  R26,_jp_mode
000cc0 30a3      	CPI  R26,LOW(0x3)
000cc1 f009      	BREQ PC+2
000cc2 c051      	RJMP _0x25F
                 ; 0000 04BE 		{
                 ; 0000 04BF 		if(main_cnt1<(5*ee_TZAS))
000cc3 940e 1463 	CALL SUBOPT_0x26
000cc5 940e 156e 	CALL SUBOPT_0x49
000cc7 17ae      	CP   R26,R30
000cc8 07bf      	CPC  R27,R31
000cc9 f42c      	BRGE _0x260
                 ; 0000 04C0 			{
                 ; 0000 04C1 			led_red=0x00000000L;
000cca 940e 152a 	CALL SUBOPT_0x3E
                 ; 0000 04C2 			led_green=0x03030303L;
000ccc 940e 1577 	CALL SUBOPT_0x4A
000cce c03d      	RJMP _0x3E8
                 ; 0000 04C3 			}
                 ; 0000 04C4 		else if((main_cnt1>(5*ee_TZAS))&&(main_cnt1<(70+(5*ee_TZAS))))
                 _0x260:
000ccf 940e 1463 	CALL SUBOPT_0x26
000cd1 940e 156e 	CALL SUBOPT_0x49
000cd3 17ea      	CP   R30,R26
000cd4 07fb      	CPC  R31,R27
000cd5 f41c      	BRGE _0x263
000cd6 940e 1590 	CALL SUBOPT_0x4F
000cd8 f00c      	BRLT _0x264
                 _0x263:
000cd9 c003      	RJMP _0x262
                 _0x264:
                 ; 0000 04C5 			{
                 ; 0000 04C6 			led_red=0x00000000L;
000cda 940e 152a 	CALL SUBOPT_0x3E
                 ; 0000 04C7 			led_green=0xffffffffL;
000cdc c02b      	RJMP _0x3F2
                 ; 0000 04C8 			}
                 ; 0000 04C9 
                 ; 0000 04CA 		else if((flags&0b00011110)==0)
                 _0x262:
000cdd 91e0 02c3 	LDS  R30,_flags
000cdf 71ee      	ANDI R30,LOW(0x1E)
000ce0 f419      	BRNE _0x266
                 ; 0000 04CB 			{
                 ; 0000 04CC 			led_red=0x00000000L;
000ce1 940e 152a 	CALL SUBOPT_0x3E
                 ; 0000 04CD 			led_green=0xffffffffL;
000ce3 c024      	RJMP _0x3F2
                 ; 0000 04CE 			}
                 ; 0000 04CF 
                 ; 0000 04D0 
                 ; 0000 04D1 		else if((flags&0b00111110)==0b00000100)
                 _0x266:
000ce4 940e 1542 	CALL SUBOPT_0x41
000ce6 f419      	BRNE _0x268
                 ; 0000 04D2 			{
                 ; 0000 04D3 			led_red=0x00010001L;
000ce7 940e 1547 	CALL SUBOPT_0x42
000ce9 c016      	RJMP _0x3F3
                 ; 0000 04D4 			led_green=0xffffffffL;
                 ; 0000 04D5 			}
                 ; 0000 04D6 		else if(flags&0b00000010)
                 _0x268:
000cea 91e0 02c3 	LDS  R30,_flags
000cec 70e2      	ANDI R30,LOW(0x2)
000ced f029      	BREQ _0x26A
                 ; 0000 04D7 			{
                 ; 0000 04D8 			led_red=0x00010001L;
000cee 940e 154c 	CALL SUBOPT_0x43
                 ; 0000 04D9 			led_green=0x00000000L;
000cf0 940e 154e 	CALL SUBOPT_0x44
                 ; 0000 04DA 			}
                 ; 0000 04DB 		else if(flags&0b00001000)
000cf2 c021      	RJMP _0x26B
                 _0x26A:
000cf3 91e0 02c3 	LDS  R30,_flags
000cf5 70e8      	ANDI R30,LOW(0x8)
000cf6 f019      	BREQ _0x26C
                 ; 0000 04DC 			{
                 ; 0000 04DD 			led_red=0x00090009L;
000cf7 940e 1558 	CALL SUBOPT_0x45
                 ; 0000 04DE 			led_green=0x00000000L;
                 ; 0000 04DF 			}
                 ; 0000 04E0 		else if(flags&0b00010000)
000cf9 c01a      	RJMP _0x26D
                 _0x26C:
000cfa 91e0 02c3 	LDS  R30,_flags
000cfc 71e0      	ANDI R30,LOW(0x10)
000cfd f0b1      	BREQ _0x26E
                 ; 0000 04E1 			{
                 ; 0000 04E2 			led_red=0x00490049L;
000cfe 940e 155e 	CALL SUBOPT_0x46
                 _0x3F3:
000d00 93e0 02c9 	STS  _led_red,R30
000d02 93f0 02ca 	STS  _led_red+1,R31
000d04 9360 02cb 	STS  _led_red+2,R22
000d06 9370 02cc 	STS  _led_red+3,R23
                 ; 0000 04E3 			led_green=0xffffffffL;
                 _0x3F2:
                +
000d08 efef     +LDI R30 , LOW ( 0xFFFFFFFF )
000d09 efff     +LDI R31 , HIGH ( 0xFFFFFFFF )
000d0a ef6f     +LDI R22 , BYTE3 ( 0xFFFFFFFF )
000d0b ef7f     +LDI R23 , BYTE4 ( 0xFFFFFFFF )
                 	__GETD1N 0xFFFFFFFF
                 _0x3E8:
000d0c 93e0 02cd 	STS  _led_green,R30
000d0e 93f0 02ce 	STS  _led_green+1,R31
000d10 9360 02cf 	STS  _led_green+2,R22
000d12 9370 02d0 	STS  _led_green+3,R23
                 ; 0000 04E4 			}
                 ; 0000 04E5 		}
                 _0x26E:
                 _0x26D:
                 _0x26B:
                 ; 0000 04E6 	}
                 _0x25F:
                 _0x25E:
                 ; 0000 04E7 }
                 _0x228:
                 _0x227:
                 _0x1F3:
000d14 9508      	RET
                 ; .FEND
                 ;
                 ;
                 ;
                 ;
                 ;//-----------------------------------------------
                 ;void pwr_drv_(void)
                 ; 0000 04EE {
                 ; 0000 04EF DDRD.4=1;
                 ; 0000 04F0 
                 ; 0000 04F1 if(main_cnt1<150)main_cnt1++;
                 ; 0000 04F2 
                 ; 0000 04F3 if(main_cnt1<(5*TZAS))
                 ; 0000 04F4 	{
                 ; 0000 04F5 	PORTD.4=1;
                 ; 0000 04F6 	}
                 ; 0000 04F7 else if((main_cnt1>(5*TZAS))&&(main_cnt1<(70+(5*TZAS))))
                 ; 0000 04F8 	{
                 ; 0000 04F9 	PORTD.4=0;
                 ; 0000 04FA 	}
                 ; 0000 04FB else if(bBL)
                 ; 0000 04FC 	{
                 ; 0000 04FD 	PORTD.4=1;
                 ; 0000 04FE 	}
                 ; 0000 04FF else if(!bBL)
                 ; 0000 0500 	{
                 ; 0000 0501 	PORTD.4=0;
                 ; 0000 0502 	}
                 ; 0000 0503 
                 ; 0000 0504 //DDRB|=0b00000010;
                 ; 0000 0505 
                 ; 0000 0506 gran(&pwm_u,2,1020);
                 ; 0000 0507 
                 ; 0000 0508 
                 ; 0000 0509 OCR1A=pwm_u;
                 ; 0000 050A /*PORTB.2=1;
                 ; 0000 050B OCR1A=0;*/
                 ; 0000 050C }
                 ;
                 ;//-----------------------------------------------
                 ;//Вентилятор
                 ;void vent_drv(void)
                 ; 0000 0511 {
                 _vent_drv:
                 ; .FSTART _vent_drv
                 ; 0000 0512 
                 ; 0000 0513 
                 ; 0000 0514 	short vent_pwm_i_necc=400;
                 ; 0000 0515 	short vent_pwm_t_necc=400;
                 ; 0000 0516 	short vent_pwm_max_necc=400;
                 ; 0000 0517 	signed long tempSL;
                 ; 0000 0518 
                 ; 0000 0519 	//I=1200;
                 ; 0000 051A 
                 ; 0000 051B 	tempSL=36000L/(signed long)ee_Umax;
000d15 9724      	SBIW R28,4
000d16 940e 17bc 	CALL __SAVELOCR6
                 ;	vent_pwm_i_necc -> R16,R17
                 ;	vent_pwm_t_necc -> R18,R19
                 ;	vent_pwm_max_necc -> R20,R21
                 ;	tempSL -> Y+6
                +
000d18 e900     +LDI R16 , LOW ( 400 )
000d19 e011     +LDI R17 , HIGH ( 400 )
                 	__GETWRN 16,17,400
                +
000d1a e920     +LDI R18 , LOW ( 400 )
000d1b e031     +LDI R19 , HIGH ( 400 )
                 	__GETWRN 18,19,400
                +
000d1c e940     +LDI R20 , LOW ( 400 )
000d1d e051     +LDI R21 , HIGH ( 400 )
                 	__GETWRN 20,21,400
000d1e 940e 1433 	CALL SUBOPT_0x1C
000d20 940e 16cc 	CALL __CWD1
                +
000d22 eaa0     +LDI R26 , LOW ( 0x8CA0 )
000d23 e8bc     +LDI R27 , HIGH ( 0x8CA0 )
000d24 e080     +LDI R24 , BYTE3 ( 0x8CA0 )
000d25 e090     +LDI R25 , BYTE4 ( 0x8CA0 )
                 	__GETD2N 0x8CA0
000d26 940e 159e 	CALL SUBOPT_0x51
                 ; 0000 051C 	tempSL=(signed long)I/tempSL;
000d28 91a0 02b8 	LDS  R26,_I
000d2a 91b0 02b9 	LDS  R27,_I+1
000d2c 2788      	CLR  R24
000d2d 2799      	CLR  R25
                +
000d2e 81ee     +LDD R30 , Y + 6
000d2f 81ff     +LDD R31 , Y + 6 + 1
000d30 8568     +LDD R22 , Y + 6 + 2
000d31 8579     +LDD R23 , Y + 6 + 3
                 	__GETD1S 6
000d32 940e 159e 	CALL SUBOPT_0x51
                 ; 0000 051D 
                 ; 0000 051E 	if(ee_DEVICE==1) tempSL=(signed long)(I/ee_IMAXVENT);
000d34 940e 145e 	CALL SUBOPT_0x25
000d36 30e1      	CPI  R30,LOW(0x1)
000d37 e0a0      	LDI  R26,HIGH(0x1)
000d38 07fa      	CPC  R31,R26
000d39 f481      	BRNE _0x283
000d3a e2a5      	LDI  R26,LOW(_ee_IMAXVENT)
000d3b e0b0      	LDI  R27,HIGH(_ee_IMAXVENT)
000d3c 940e 1785 	CALL __EEPROMRDW
000d3e 91a0 02b8 	LDS  R26,_I
000d40 91b0 02b9 	LDS  R27,_I+1
000d42 940e 1703 	CALL __DIVW21U
000d44 2766      	CLR  R22
000d45 2777      	CLR  R23
                +
000d46 83ee     +STD Y + 6 , R30
000d47 83ff     +STD Y + 6 + 1 , R31
000d48 8768     +STD Y + 6 + 2 , R22
000d49 8779     +STD Y + 6 + 3 , R23
                 	__PUTD1S 6
                 ; 0000 051F 
                 ; 0000 0520 	if(tempSL>10)vent_pwm_i_necc=1000;
                 _0x283:
000d4a 940e 15a5 	CALL SUBOPT_0x52
                +
000d4c 30ab     +CPI R26 , LOW ( 0xB )
000d4d e0e0     +LDI R30 , HIGH ( 0xB )
000d4e 07be     +CPC R27 , R30
000d4f e0e0     +LDI R30 , BYTE3 ( 0xB )
000d50 078e     +CPC R24 , R30
000d51 e0e0     +LDI R30 , BYTE4 ( 0xB )
000d52 079e     +CPC R25 , R30
                 	__CPD2N 0xB
000d53 f01c      	BRLT _0x284
                +
000d54 ee08     +LDI R16 , LOW ( 1000 )
000d55 e013     +LDI R17 , HIGH ( 1000 )
                 	__GETWRN 16,17,1000
                 ; 0000 0521 	else if(tempSL<1)vent_pwm_i_necc=400;
000d56 c016      	RJMP _0x285
                 _0x284:
000d57 940e 15a5 	CALL SUBOPT_0x52
                +
000d59 30a1     +CPI R26 , LOW ( 0x1 )
000d5a e0e0     +LDI R30 , HIGH ( 0x1 )
000d5b 07be     +CPC R27 , R30
000d5c e0e0     +LDI R30 , BYTE3 ( 0x1 )
000d5d 078e     +CPC R24 , R30
000d5e e0e0     +LDI R30 , BYTE4 ( 0x1 )
000d5f 079e     +CPC R25 , R30
                 	__CPD2N 0x1
000d60 f41c      	BRGE _0x286
                +
000d61 e900     +LDI R16 , LOW ( 400 )
000d62 e011     +LDI R17 , HIGH ( 400 )
                 	__GETWRN 16,17,400
                 ; 0000 0522 	else vent_pwm_i_necc=(short)(400L + (tempSL*60L));
000d63 c009      	RJMP _0x287
                 _0x286:
000d64 81ee      	LDD  R30,Y+6
000d65 81ff      	LDD  R31,Y+6+1
000d66 e3ac      	LDI  R26,LOW(60)
000d67 e0b0      	LDI  R27,HIGH(60)
000d68 940e 16f9 	CALL __MULW12
000d6a 57e0      	SUBI R30,LOW(-400)
000d6b 4ffe      	SBCI R31,HIGH(-400)
000d6c 018f      	MOVW R16,R30
                 ; 0000 0523 	gran(&vent_pwm_i_necc,400,1000);
                 _0x287:
                 _0x285:
000d6d b7ed      	IN   R30,SPL
000d6e b7fe      	IN   R31,SPH
000d6f 9731      	SBIW R30,1
000d70 93fa      	ST   -Y,R31
000d71 93ea      	ST   -Y,R30
000d72 931f      	PUSH R17
000d73 930f      	PUSH R16
000d74 940e 15aa 	CALL SUBOPT_0x53
000d76 d949      	RCALL _gran
000d77 910f      	POP  R16
000d78 911f      	POP  R17
                 ; 0000 0524 	//vent_pwm_i_necc=400;
                 ; 0000 0525 	tempSL=(signed long)T;
000d79 91e0 02c0 	LDS  R30,_T
000d7b 91f0 02c1 	LDS  R31,_T+1
000d7d 940e 16cc 	CALL __CWD1
                +
000d7f 83ee     +STD Y + 6 , R30
000d80 83ff     +STD Y + 6 + 1 , R31
000d81 8768     +STD Y + 6 + 2 , R22
000d82 8779     +STD Y + 6 + 3 , R23
                 	__PUTD1S 6
                 ; 0000 0526 	if(tempSL<=(ee_tsign-30L))vent_pwm_t_necc=400;
000d83 940e 1459 	CALL SUBOPT_0x24
000d85 940e 16cc 	CALL __CWD1
                +
000d87 51ee     +SUBI R30 , LOW ( 30 )
000d88 40f0     +SBCI R31 , HIGH ( 30 )
000d89 4060     +SBCI R22 , BYTE3 ( 30 )
000d8a 4070     +SBCI R23 , BYTE4 ( 30 )
                 	__SUBD1N 30
000d8b 940e 15a5 	CALL SUBOPT_0x52
000d8d 940e 17b2 	CALL __CPD12
000d8f f01c      	BRLT _0x288
                +
000d90 e920     +LDI R18 , LOW ( 400 )
000d91 e031     +LDI R19 , HIGH ( 400 )
                 	__GETWRN 18,19,400
                 ; 0000 0527 	else if(tempSL>=ee_tsign)vent_pwm_t_necc=1000;
000d92 c01c      	RJMP _0x289
                 _0x288:
000d93 940e 1459 	CALL SUBOPT_0x24
000d95 940e 15a5 	CALL SUBOPT_0x52
000d97 940e 16cc 	CALL __CWD1
000d99 940e 17b7 	CALL __CPD21
000d9b f01c      	BRLT _0x28A
                +
000d9c ee28     +LDI R18 , LOW ( 1000 )
000d9d e033     +LDI R19 , HIGH ( 1000 )
                 	__GETWRN 18,19,1000
                 ; 0000 0528 	else vent_pwm_t_necc=(short)(400L+(20L*(tempSL-(((signed long)ee_tsign)-30L))));
000d9e c010      	RJMP _0x28B
                 _0x28A:
000d9f 940e 1459 	CALL SUBOPT_0x24
000da1 977e      	SBIW R30,30
000da2 81ae      	LDD  R26,Y+6
000da3 81bf      	LDD  R27,Y+6+1
000da4 940e 177e 	CALL __SWAPW12
000da6 1bea      	SUB  R30,R26
000da7 0bfb      	SBC  R31,R27
000da8 e1a4      	LDI  R26,LOW(20)
000da9 e0b0      	LDI  R27,HIGH(20)
000daa 940e 16f9 	CALL __MULW12
000dac 57e0      	SUBI R30,LOW(-400)
000dad 4ffe      	SBCI R31,HIGH(-400)
000dae 019f      	MOVW R18,R30
                 ; 0000 0529 	gran(&vent_pwm_t_necc,400,1000);
                 _0x28B:
                 _0x289:
000daf b7ed      	IN   R30,SPL
000db0 b7fe      	IN   R31,SPH
000db1 9731      	SBIW R30,1
000db2 93fa      	ST   -Y,R31
000db3 93ea      	ST   -Y,R30
000db4 933f      	PUSH R19
000db5 932f      	PUSH R18
000db6 940e 15aa 	CALL SUBOPT_0x53
000db8 d907      	RCALL _gran
000db9 912f      	POP  R18
000dba 913f      	POP  R19
                 ; 0000 052A 
                 ; 0000 052B 	vent_pwm_max_necc=vent_pwm_i_necc;
000dbb 01a8      	MOVW R20,R16
                 ; 0000 052C 	if(vent_pwm_t_necc>vent_pwm_i_necc)vent_pwm_max_necc=vent_pwm_t_necc;
                +
000dbc 1702     +CP R16 , R18
000dbd 0713     +CPC R17 , R19
                 	__CPWRR 16,17,18,19
000dbe f40c      	BRGE _0x28C
000dbf 01a9      	MOVW R20,R18
                 ; 0000 052D 
                 ; 0000 052E 	if(vent_pwm<vent_pwm_max_necc)vent_pwm+=10;
                 _0x28C:
000dc0 940e 15ad 	CALL SUBOPT_0x54
000dc2 17a4      	CP   R26,R20
000dc3 07b5      	CPC  R27,R21
000dc4 f44c      	BRGE _0x28D
000dc5 91e0 0315 	LDS  R30,_vent_pwm
000dc7 91f0 0316 	LDS  R31,_vent_pwm+1
000dc9 963a      	ADIW R30,10
000dca 93e0 0315 	STS  _vent_pwm,R30
000dcc 93f0 0316 	STS  _vent_pwm+1,R31
                 ; 0000 052F 	if(vent_pwm>vent_pwm_max_necc)vent_pwm-=10;
                 _0x28D:
000dce 940e 15ad 	CALL SUBOPT_0x54
000dd0 174a      	CP   R20,R26
000dd1 075b      	CPC  R21,R27
000dd2 f44c      	BRGE _0x28E
000dd3 91e0 0315 	LDS  R30,_vent_pwm
000dd5 91f0 0316 	LDS  R31,_vent_pwm+1
000dd7 973a      	SBIW R30,10
000dd8 93e0 0315 	STS  _vent_pwm,R30
000dda 93f0 0316 	STS  _vent_pwm+1,R31
                 ; 0000 0530 	gran(&vent_pwm,400,1000);
                 _0x28E:
000ddc e1e5      	LDI  R30,LOW(_vent_pwm)
000ddd e0f3      	LDI  R31,HIGH(_vent_pwm)
000dde 93fa      	ST   -Y,R31
000ddf 93ea      	ST   -Y,R30
000de0 940e 15aa 	CALL SUBOPT_0x53
000de2 d8dd      	RCALL _gran
                 ; 0000 0531 
                 ; 0000 0532 	//vent_pwm=1000-vent_pwm;	// Для нового блока. Там похоже нужна инверсия
                 ; 0000 0533 	//vent_pwm=300;
                 ; 0000 0534 	if(bVENT_BLOCK)vent_pwm=0;
000de3 91e0 0317 	LDS  R30,_bVENT_BLOCK
000de5 30e0      	CPI  R30,0
000de6 f029      	BREQ _0x28F
000de7 e0e0      	LDI  R30,LOW(0)
000de8 93e0 0315 	STS  _vent_pwm,R30
000dea 93e0 0316 	STS  _vent_pwm+1,R30
                 ; 0000 0535 }
                 _0x28F:
000dec 940e 17c3 	CALL __LOADLOCR6
000dee 962a      	ADIW R28,10
000def 9508      	RET
                 ; .FEND
                 ;
                 ;//-----------------------------------------------
                 ;void vent_resurs_hndl(void)
                 ; 0000 0539 {
                 _vent_resurs_hndl:
                 ; .FSTART _vent_resurs_hndl
                 ; 0000 053A unsigned char temp;
                 ; 0000 053B if(!bVENT_BLOCK)vent_resurs_sec_cnt++;
000df0 931a      	ST   -Y,R17
                 ;	temp -> R17
000df1 91e0 0317 	LDS  R30,_bVENT_BLOCK
000df3 30e0      	CPI  R30,0
000df4 f421      	BRNE _0x290
000df5 e1a9      	LDI  R26,LOW(_vent_resurs_sec_cnt)
000df6 e0b3      	LDI  R27,HIGH(_vent_resurs_sec_cnt)
000df7 940e 1489 	CALL SUBOPT_0x29
                 ; 0000 053C if(vent_resurs_sec_cnt>VENT_RESURS_SEC_IN_HOUR)
                 _0x290:
000df9 91a0 0319 	LDS  R26,_vent_resurs_sec_cnt
000dfb 91b0 031a 	LDS  R27,_vent_resurs_sec_cnt+1
000dfd 31a1      	CPI  R26,LOW(0xE11)
000dfe e0ee      	LDI  R30,HIGH(0xE11)
000dff 07be      	CPC  R27,R30
000e00 f080      	BRLO _0x291
                 ; 0000 053D 	{
                 ; 0000 053E 	if(vent_resurs<60000)vent_resurs++;
000e01 940e 15b2 	CALL SUBOPT_0x55
000e03 36e0      	CPI  R30,LOW(0xEA60)
000e04 eeaa      	LDI  R26,HIGH(0xEA60)
000e05 07fa      	CPC  R31,R26
000e06 f428      	BRSH _0x292
000e07 940e 15b2 	CALL SUBOPT_0x55
000e09 9631      	ADIW R30,1
000e0a 940e 1795 	CALL __EEPROMWRW
                 ; 0000 053F 	vent_resurs_sec_cnt=0;
                 _0x292:
000e0c e0e0      	LDI  R30,LOW(0)
000e0d 93e0 0319 	STS  _vent_resurs_sec_cnt,R30
000e0f 93e0 031a 	STS  _vent_resurs_sec_cnt+1,R30
                 ; 0000 0540 	}
                 ; 0000 0541 
                 ; 0000 0542 //vent_resurs=12543;
                 ; 0000 0543 
                 ; 0000 0544 vent_resurs_buff[0]=0x00|((unsigned char)(vent_resurs&0x000f));
                 _0x291:
000e11 940e 15b2 	CALL SUBOPT_0x55
000e13 70ef      	ANDI R30,LOW(0xF)
000e14 70f0      	ANDI R31,HIGH(0xF)
000e15 93e0 031b 	STS  _vent_resurs_buff,R30
                 ; 0000 0545 vent_resurs_buff[1]=0x40|((unsigned char)((vent_resurs&0x00f0)>>4));
000e17 940e 15b2 	CALL SUBOPT_0x55
000e19 7fe0      	ANDI R30,LOW(0xF0)
000e1a 70f0      	ANDI R31,HIGH(0xF0)
000e1b 940e 16c3 	CALL __LSRW4
000e1d e0f0      	LDI  R31,0
000e1e 64e0      	ORI  R30,0x40
                +
000e1f 93e0 031c+STS _vent_resurs_buff + ( 1 ) , R30
                 	__PUTB1MN _vent_resurs_buff,1
                 ; 0000 0546 vent_resurs_buff[2]=0x80|((unsigned char)((vent_resurs&0x0f00)>>8));
000e21 940e 15b2 	CALL SUBOPT_0x55
000e23 70e0      	ANDI R30,LOW(0xF00)
000e24 70ff      	ANDI R31,HIGH(0xF00)
000e25 2fef      	MOV  R30,R31
000e26 e0f0      	LDI  R31,0
000e27 e0f0      	LDI  R31,0
000e28 68e0      	ORI  R30,0x80
                +
000e29 93e0 031d+STS _vent_resurs_buff + ( 2 ) , R30
                 	__PUTB1MN _vent_resurs_buff,2
                 ; 0000 0547 vent_resurs_buff[3]=0xc0|((unsigned char)((vent_resurs&0xf000)>>12));
000e2b 940e 15b2 	CALL SUBOPT_0x55
000e2d 70e0      	ANDI R30,LOW(0xF000)
000e2e 7ff0      	ANDI R31,HIGH(0xF000)
000e2f 940e 16c3 	CALL __LSRW4
000e31 2fef      	MOV  R30,R31
000e32 e0f0      	LDI  R31,0
000e33 e0f0      	LDI  R31,0
000e34 6ce0      	ORI  R30,LOW(0xC0)
                +
000e35 93e0 031e+STS _vent_resurs_buff + ( 3 ) , R30
                 	__PUTB1MN _vent_resurs_buff,3
                 ; 0000 0548 
                 ; 0000 0549 temp=vent_resurs_buff[0]&0x0f;
000e37 91e0 031b 	LDS  R30,_vent_resurs_buff
000e39 70ef      	ANDI R30,LOW(0xF)
000e3a 2f1e      	MOV  R17,R30
                 ; 0000 054A temp^=vent_resurs_buff[1]&0x0f;
                +
000e3b 91e0 031c+LDS R30 , _vent_resurs_buff + ( 1 )
                 	__GETB1MN _vent_resurs_buff,1
000e3d 70ef      	ANDI R30,LOW(0xF)
000e3e 271e      	EOR  R17,R30
                 ; 0000 054B temp^=vent_resurs_buff[2]&0x0f;
                +
000e3f 91e0 031d+LDS R30 , _vent_resurs_buff + ( 2 )
                 	__GETB1MN _vent_resurs_buff,2
000e41 70ef      	ANDI R30,LOW(0xF)
000e42 271e      	EOR  R17,R30
                 ; 0000 054C temp^=vent_resurs_buff[3]&0x0f;
                +
000e43 91e0 031e+LDS R30 , _vent_resurs_buff + ( 3 )
                 	__GETB1MN _vent_resurs_buff,3
000e45 70ef      	ANDI R30,LOW(0xF)
000e46 271e      	EOR  R17,R30
                 ; 0000 054D 
                 ; 0000 054E vent_resurs_buff[0]|=(temp&0x03)<<4;
000e47 2fe1      	MOV  R30,R17
000e48 70e3      	ANDI R30,LOW(0x3)
000e49 95e2      	SWAP R30
000e4a 7fe0      	ANDI R30,0xF0
000e4b 91a0 031b 	LDS  R26,_vent_resurs_buff
000e4d 2bea      	OR   R30,R26
000e4e 93e0 031b 	STS  _vent_resurs_buff,R30
                 ; 0000 054F vent_resurs_buff[1]|=(temp&0x0c)<<2;
                +
000e50 e1ec     +LDI R30 , LOW ( _vent_resurs_buff + ( 1 ) )
000e51 e0f3     +LDI R31 , HIGH ( _vent_resurs_buff + ( 1 ) )
                 	__POINTW1MN _vent_resurs_buff,1
000e52 010f      	MOVW R0,R30
000e53 81a0      	LD   R26,Z
000e54 2fe1      	MOV  R30,R17
000e55 70ec      	ANDI R30,LOW(0xC)
000e56 0fee      	LSL  R30
000e57 0fee      	LSL  R30
000e58 2bea      	OR   R30,R26
000e59 01d0      	MOVW R26,R0
000e5a 93ec      	ST   X,R30
                 ; 0000 0550 vent_resurs_buff[2]|=(temp&0x30);
                +
000e5b e1ed     +LDI R30 , LOW ( _vent_resurs_buff + ( 2 ) )
000e5c e0f3     +LDI R31 , HIGH ( _vent_resurs_buff + ( 2 ) )
                 	__POINTW1MN _vent_resurs_buff,2
000e5d 010f      	MOVW R0,R30
000e5e 81a0      	LD   R26,Z
000e5f 2fe1      	MOV  R30,R17
000e60 73e0      	ANDI R30,LOW(0x30)
000e61 2bea      	OR   R30,R26
000e62 01d0      	MOVW R26,R0
000e63 93ec      	ST   X,R30
                 ; 0000 0551 vent_resurs_buff[3]|=(temp&0xc0)>>2;
                +
000e64 e1ee     +LDI R30 , LOW ( _vent_resurs_buff + ( 3 ) )
000e65 e0f3     +LDI R31 , HIGH ( _vent_resurs_buff + ( 3 ) )
                 	__POINTW1MN _vent_resurs_buff,3
000e66 010f      	MOVW R0,R30
000e67 81a0      	LD   R26,Z
000e68 2fe1      	MOV  R30,R17
000e69 7ce0      	ANDI R30,LOW(0xC0)
000e6a 95e6      	LSR  R30
000e6b 95e6      	LSR  R30
000e6c 2bea      	OR   R30,R26
000e6d 01d0      	MOVW R26,R0
000e6e 93ec      	ST   X,R30
                 ; 0000 0552 
                 ; 0000 0553 
                 ; 0000 0554 vent_resurs_tx_cnt++;
000e6f 91e0 031f 	LDS  R30,_vent_resurs_tx_cnt
000e71 5fef      	SUBI R30,-LOW(1)
000e72 93e0 031f 	STS  _vent_resurs_tx_cnt,R30
                 ; 0000 0555 if(vent_resurs_tx_cnt>3)vent_resurs_tx_cnt=0;
000e74 91a0 031f 	LDS  R26,_vent_resurs_tx_cnt
000e76 30a4      	CPI  R26,LOW(0x4)
000e77 f018      	BRLO _0x293
000e78 e0e0      	LDI  R30,LOW(0)
000e79 93e0 031f 	STS  _vent_resurs_tx_cnt,R30
                 ; 0000 0556 
                 ; 0000 0557 
                 ; 0000 0558 }
                 _0x293:
000e7b c0c8      	RJMP _0x20C0001
                 ; .FEND
                 ;
                 ;//-----------------------------------------------
                 ;void volum_u_main_drv(void)
                 ; 0000 055C {
                 _volum_u_main_drv:
                 ; .FSTART _volum_u_main_drv
                 ; 0000 055D char i;
                 ; 0000 055E 
                 ; 0000 055F if(bMAIN)
000e7c 931a      	ST   -Y,R17
                 ;	i -> R17
000e7d b5ea      	IN   R30,0x2A
000e7e ffe1      	SBRS R30,1
000e7f c0c4      	RJMP _0x294
                 ; 0000 0560 	{
                 ; 0000 0561 	if(Un<(UU_AVT-10))volum_u_main_+=5;
000e80 940e 15b7 	CALL SUBOPT_0x56
000e82 973a      	SBIW R30,10
000e83 940e 15bc 	CALL SUBOPT_0x57
000e85 f430      	BRSH _0x295
000e86 940e 15c3 	CALL SUBOPT_0x58
000e88 9635      	ADIW R30,5
000e89 940e 15c8 	CALL SUBOPT_0x59
                 ; 0000 0562 	else if(Un<(UU_AVT-1))volum_u_main_++;
000e8b c025      	RJMP _0x296
                 _0x295:
000e8c 940e 15b7 	CALL SUBOPT_0x56
000e8e 9731      	SBIW R30,1
000e8f 940e 15bc 	CALL SUBOPT_0x57
000e91 f430      	BRSH _0x297
000e92 e2a0      	LDI  R26,LOW(_volum_u_main_)
000e93 e0b3      	LDI  R27,HIGH(_volum_u_main_)
000e94 91ed      	LD   R30,X+
000e95 91fd      	LD   R31,X+
000e96 9631      	ADIW R30,1
000e97 c017      	RJMP _0x3F5
                 ; 0000 0563 	else if(Un>(UU_AVT+10))volum_u_main_-=10;
                 _0x297:
000e98 940e 15b7 	CALL SUBOPT_0x56
000e9a 963a      	ADIW R30,10
000e9b 940e 15cd 	CALL SUBOPT_0x5A
000e9d f430      	BRSH _0x299
000e9e 940e 15c3 	CALL SUBOPT_0x58
000ea0 973a      	SBIW R30,10
000ea1 940e 15c8 	CALL SUBOPT_0x59
                 ; 0000 0564 	else if(Un>(UU_AVT+1))volum_u_main_--;
000ea3 c00d      	RJMP _0x29A
                 _0x299:
000ea4 940e 15b7 	CALL SUBOPT_0x56
000ea6 9631      	ADIW R30,1
000ea7 940e 15cd 	CALL SUBOPT_0x5A
000ea9 f438      	BRSH _0x29B
000eaa e2a0      	LDI  R26,LOW(_volum_u_main_)
000eab e0b3      	LDI  R27,HIGH(_volum_u_main_)
000eac 91ed      	LD   R30,X+
000ead 91fd      	LD   R31,X+
000eae 9731      	SBIW R30,1
                 _0x3F5:
000eaf 93fe      	ST   -X,R31
000eb0 93ee      	ST   -X,R30
                 ; 0000 0565 	if(volum_u_main_>1020)volum_u_main_=1020;
                 _0x29B:
                 _0x29A:
                 _0x296:
000eb1 91a0 0320 	LDS  R26,_volum_u_main_
000eb3 91b0 0321 	LDS  R27,_volum_u_main_+1
000eb5 3fad      	CPI  R26,LOW(0x3FD)
000eb6 e0e3      	LDI  R30,HIGH(0x3FD)
000eb7 07be      	CPC  R27,R30
000eb8 f024      	BRLT _0x29C
000eb9 efec      	LDI  R30,LOW(1020)
000eba e0f3      	LDI  R31,HIGH(1020)
000ebb 940e 15c8 	CALL SUBOPT_0x59
                 ; 0000 0566 	if(volum_u_main_<0)volum_u_main_=0;
                 _0x29C:
000ebd 91a0 0321 	LDS  R26,_volum_u_main_+1
000ebf 23aa      	TST  R26
000ec0 f42a      	BRPL _0x29D
000ec1 e0e0      	LDI  R30,LOW(0)
000ec2 93e0 0320 	STS  _volum_u_main_,R30
000ec4 93e0 0321 	STS  _volum_u_main_+1,R30
                 ; 0000 0567 	//volum_u_main_=700;
                 ; 0000 0568 
                 ; 0000 0569 	i_main_sigma=0;
                 _0x29D:
000ec6 e0e0      	LDI  R30,LOW(0)
000ec7 93e0 0343 	STS  _i_main_sigma,R30
000ec9 93e0 0344 	STS  _i_main_sigma+1,R30
                 ; 0000 056A 	i_main_num_of_bps=0;
000ecb 93e0 0342 	STS  _i_main_num_of_bps,R30
                 ; 0000 056B 	for(i=0;i<6;i++)
000ecd e010      	LDI  R17,LOW(0)
                 _0x29F:
000ece 3016      	CPI  R17,6
000ecf f508      	BRSH _0x2A0
                 ; 0000 056C 		{
                 ; 0000 056D 		if(i_main_flag[i])
000ed0 940e 15d4 	CALL SUBOPT_0x5B
000ed2 81e0      	LD   R30,Z
000ed3 30e0      	CPI  R30,0
000ed4 f0b1      	BREQ _0x2A1
                 ; 0000 056E 			{
                 ; 0000 056F 			i_main_sigma+=i_main[i];
000ed5 940e 15d9 	CALL SUBOPT_0x5C
000ed7 91a0 0343 	LDS  R26,_i_main_sigma
000ed9 91b0 0344 	LDS  R27,_i_main_sigma+1
000edb 0fea      	ADD  R30,R26
000edc 1ffb      	ADC  R31,R27
000edd 93e0 0343 	STS  _i_main_sigma,R30
000edf 93f0 0344 	STS  _i_main_sigma+1,R31
                 ; 0000 0570 			i_main_flag[i]=1;
000ee1 940e 15d4 	CALL SUBOPT_0x5B
000ee3 e0a1      	LDI  R26,LOW(1)
000ee4 83a0      	STD  Z+0,R26
                 ; 0000 0571 			i_main_num_of_bps++;
000ee5 91e0 0342 	LDS  R30,_i_main_num_of_bps
000ee7 5fef      	SUBI R30,-LOW(1)
000ee8 93e0 0342 	STS  _i_main_num_of_bps,R30
                 ; 0000 0572 			}
                 ; 0000 0573 		else
000eea c004      	RJMP _0x2A2
                 _0x2A1:
                 ; 0000 0574 			{
                 ; 0000 0575 			i_main_flag[i]=0;
000eeb 940e 15d4 	CALL SUBOPT_0x5B
000eed e0a0      	LDI  R26,LOW(0)
000eee 83a0      	STD  Z+0,R26
                 ; 0000 0576 			}
                 _0x2A2:
                 ; 0000 0577 		}
000eef 5f1f      	SUBI R17,-1
000ef0 cfdd      	RJMP _0x29F
                 _0x2A0:
                 ; 0000 0578 	i_main_avg=i_main_sigma/i_main_num_of_bps;
000ef1 91e0 0342 	LDS  R30,_i_main_num_of_bps
000ef3 91a0 0343 	LDS  R26,_i_main_sigma
000ef5 91b0 0344 	LDS  R27,_i_main_sigma+1
000ef7 e0f0      	LDI  R31,0
000ef8 940e 1716 	CALL __DIVW21
000efa 93e0 0340 	STS  _i_main_avg,R30
000efc 93f0 0341 	STS  _i_main_avg+1,R31
                 ; 0000 0579 	for(i=0;i<6;i++)
000efe e010      	LDI  R17,LOW(0)
                 _0x2A4:
000eff 3016      	CPI  R17,6
000f00 f008      	BRLO PC+2
000f01 c042      	RJMP _0x2A5
                 ; 0000 057A 		{
                 ; 0000 057B 		if(i_main_flag[i])
000f02 940e 15d4 	CALL SUBOPT_0x5B
000f04 81e0      	LD   R30,Z
000f05 30e0      	CPI  R30,0
000f06 f1d9      	BREQ _0x2A6
                 ; 0000 057C 			{
                 ; 0000 057D 			if(i_main[i]<(i_main_avg-10))x[i]++;
000f07 940e 15d9 	CALL SUBOPT_0x5C
000f09 01df      	MOVW R26,R30
000f0a 91e0 0340 	LDS  R30,_i_main_avg
000f0c 91f0 0341 	LDS  R31,_i_main_avg+1
000f0e 973a      	SBIW R30,10
000f0f 17ae      	CP   R26,R30
000f10 07bf      	CPC  R27,R31
000f11 f424      	BRGE _0x2A7
000f12 940e 15e4 	CALL SUBOPT_0x5D
000f14 9631      	ADIW R30,1
000f15 c00e      	RJMP _0x3F6
                 ; 0000 057E 			else if(i_main[i]>(i_main_avg+10))x[i]--;
                 _0x2A7:
000f16 940e 15d9 	CALL SUBOPT_0x5C
000f18 01df      	MOVW R26,R30
000f19 91e0 0340 	LDS  R30,_i_main_avg
000f1b 91f0 0341 	LDS  R31,_i_main_avg+1
000f1d 963a      	ADIW R30,10
000f1e 17ea      	CP   R30,R26
000f1f 07fb      	CPC  R31,R27
000f20 f42c      	BRGE _0x2A9
000f21 940e 15e4 	CALL SUBOPT_0x5D
000f23 9731      	SBIW R30,1
                 _0x3F6:
000f24 93fe      	ST   -X,R31
000f25 93ee      	ST   -X,R30
                 ; 0000 057F 			if(x[i]>100)x[i]=100;
                 _0x2A9:
000f26 940e 15ef 	CALL SUBOPT_0x5E
000f28 940e 1766 	CALL __GETW1P
000f2a 36e5      	CPI  R30,LOW(0x65)
000f2b e0a0      	LDI  R26,HIGH(0x65)
000f2c 07fa      	CPC  R31,R26
000f2d f034      	BRLT _0x2AA
000f2e 940e 15ef 	CALL SUBOPT_0x5E
000f30 e6e4      	LDI  R30,LOW(100)
000f31 e0f0      	LDI  R31,HIGH(100)
000f32 93ed      	ST   X+,R30
000f33 93fc      	ST   X,R31
                 ; 0000 0580 			if(x[i]<-100)x[i]=-100;
                 _0x2AA:
000f34 940e 15ef 	CALL SUBOPT_0x5E
000f36 940e 1766 	CALL __GETW1P
000f38 39ec      	CPI  R30,LOW(0xFF9C)
000f39 efaf      	LDI  R26,HIGH(0xFF9C)
000f3a 07fa      	CPC  R31,R26
000f3b f434      	BRGE _0x2AB
000f3c 940e 15ef 	CALL SUBOPT_0x5E
000f3e e9ec      	LDI  R30,LOW(65436)
000f3f efff      	LDI  R31,HIGH(65436)
000f40 93ed      	ST   X+,R30
000f41 93fc      	ST   X,R31
                 ; 0000 0581 			//if()
                 ; 0000 0582 			}
                 _0x2AB:
                 ; 0000 0583 
                 ; 0000 0584 		}
                 _0x2A6:
000f42 5f1f      	SUBI R17,-1
000f43 cfbb      	RJMP _0x2A4
                 _0x2A5:
                 ; 0000 0585 	//plazma_int[2]=x[1];
                 ; 0000 0586 	}
                 ; 0000 0587 }
                 _0x294:
                 _0x20C0001:
000f44 9119      	LD   R17,Y+
000f45 9508      	RET
                 ; .FEND
                 ;
                 ;//-----------------------------------------------
                 ;//Вычисление воздействий на силу
                 ;//10Hz
                 ;void pwr_hndl(void)
                 ; 0000 058D {
                 _pwr_hndl:
                 ; .FSTART _pwr_hndl
                 ; 0000 058E if(ee_AVT_MODE==0x55)
000f46 940e 144a 	CALL SUBOPT_0x21
000f48 35e5      	CPI  R30,LOW(0x55)
000f49 e0a0      	LDI  R26,HIGH(0x55)
000f4a 07fa      	CPC  R31,R26
000f4b f4f1      	BRNE _0x2AC
                 ; 0000 058F 	{
                 ; 0000 0590 /*	if(ee_Device==0x55)
                 ; 0000 0591 		{
                 ; 0000 0592 		pwm_u=0x3ff;
                 ; 0000 0593 		pwm_i=0x3ff;
                 ; 0000 0594 		bBL=0;
                 ; 0000 0595 		}
                 ; 0000 0596 	else
                 ; 0000 0597  	if(ee_DEVICE)
                 ; 0000 0598 		{
                 ; 0000 0599 		pwm_u=0x00;
                 ; 0000 059A 		pwm_i=0x00;
                 ; 0000 059B 		bBL=1;
                 ; 0000 059C 		}
                 ; 0000 059D 	else */
                 ; 0000 059E 		{
                 ; 0000 059F 		if((flags&0b00011010)==0)
000f4c 91e0 02c3 	LDS  R30,_flags
000f4e 71ea      	ANDI R30,LOW(0x1A)
000f4f f481      	BRNE _0x2AD
                 ; 0000 05A0 			{
                 ; 0000 05A1 			pwm_u=ee_U_AVT;
000f50 940e 148f 	CALL SUBOPT_0x2A
000f52 940e 15f8 	CALL SUBOPT_0x5F
                 ; 0000 05A2 			gran(&pwm_u,0,1020);
000f54 940e 15fd 	CALL SUBOPT_0x60
                 ; 0000 05A3 		    	//pwm_i=0x3ff;
                 ; 0000 05A4 			if(pwm_i<1020)
000f56 f428      	BRSH _0x2AE
                 ; 0000 05A5 				{
                 ; 0000 05A6 				pwm_i+=30;
000f57 940e 1611 	CALL SUBOPT_0x61
                 ; 0000 05A7 				if(pwm_i>1020)pwm_i=1020;
000f59 f010      	BRLO _0x2AF
000f5a 940e 1622 	CALL SUBOPT_0x62
                 ; 0000 05A8 				}
                 _0x2AF:
                 ; 0000 05A9 			bBL=0;
                 _0x2AE:
000f5c 98f7      	CBI  0x1E,7
                 ; 0000 05AA 			bBL_IPS=0;
000f5d b5ea      	IN   R30,0x2A
000f5e 7fee      	CBR  R30,1
000f5f c008      	RJMP _0x3F7
                 ; 0000 05AB 			}
                 ; 0000 05AC 		else if(flags&0b00001010)
                 _0x2AD:
000f60 91e0 02c3 	LDS  R30,_flags
000f62 70ea      	ANDI R30,LOW(0xA)
000f63 f029      	BREQ _0x2B3
                 ; 0000 05AD 			{
                 ; 0000 05AE 			pwm_u=0;
000f64 940e 1629 	CALL SUBOPT_0x63
                 ; 0000 05AF 			pwm_i=0;
                 ; 0000 05B0 			bBL=1;
                 ; 0000 05B1 			bBL_IPS=1;
000f66 b5ea      	IN   R30,0x2A
000f67 60e1      	SBR  R30,1
                 _0x3F7:
000f68 bdea      	OUT  0x2A,R30
                 ; 0000 05B2 			}
                 ; 0000 05B3 		}
                 _0x2B3:
                 ; 0000 05B4 //pwm_u=950;
                 ; 0000 05B5 //		pwm_i=950;
                 ; 0000 05B6 	}
                 ; 0000 05B7 
                 ; 0000 05B8 else if(jp_mode==jp3)
000f69 c0e5      	RJMP _0x2B6
                 _0x2AC:
000f6a 91a0 02ec 	LDS  R26,_jp_mode
000f6c 30a3      	CPI  R26,LOW(0x3)
000f6d f4b9      	BRNE _0x2B7
                 ; 0000 05B9 	{
                 ; 0000 05BA 	if((flags&0b00001010)==0)
000f6e 91e0 02c3 	LDS  R30,_flags
000f70 70ea      	ANDI R30,LOW(0xA)
000f71 f461      	BRNE _0x2B8
                 ; 0000 05BB 		{
                 ; 0000 05BC 		pwm_u=500;
000f72 efe4      	LDI  R30,LOW(500)
000f73 e0f1      	LDI  R31,HIGH(500)
000f74 940e 1634 	CALL SUBOPT_0x64
                 ; 0000 05BD 		if(pwm_i<1020)
000f76 f428      	BRSH _0x2B9
                 ; 0000 05BE 			{
                 ; 0000 05BF 			pwm_i+=30;
000f77 940e 1611 	CALL SUBOPT_0x61
                 ; 0000 05C0 			if(pwm_i>1020)pwm_i=1020;
000f79 f010      	BRLO _0x2BA
000f7a 940e 1622 	CALL SUBOPT_0x62
                 ; 0000 05C1 			}
                 _0x2BA:
                 ; 0000 05C2 		bBL=0;
                 _0x2B9:
000f7c 98f7      	CBI  0x1E,7
                 ; 0000 05C3 		}
                 ; 0000 05C4 	else if(flags&0b00001010)
000f7d c006      	RJMP _0x2BD
                 _0x2B8:
000f7e 91e0 02c3 	LDS  R30,_flags
000f80 70ea      	ANDI R30,LOW(0xA)
000f81 f011      	BREQ _0x2BE
                 ; 0000 05C5 		{
                 ; 0000 05C6 		pwm_u=0;
000f82 940e 1629 	CALL SUBOPT_0x63
                 ; 0000 05C7 		pwm_i=0;
                 ; 0000 05C8 		bBL=1;
                 ; 0000 05C9 		}
                 ; 0000 05CA 
                 ; 0000 05CB 	}
                 _0x2BE:
                 _0x2BD:
                 ; 0000 05CC else if(jp_mode==jp2)
000f84 c0ca      	RJMP _0x2C1
                 _0x2B7:
000f85 91a0 02ec 	LDS  R26,_jp_mode
000f87 30a2      	CPI  R26,LOW(0x2)
000f88 f491      	BRNE _0x2C2
                 ; 0000 05CD 	{
                 ; 0000 05CE 	pwm_u=0;
000f89 e0e0      	LDI  R30,LOW(0)
000f8a 93e0 02e1 	STS  _pwm_u,R30
000f8c 93e0 02e2 	STS  _pwm_u+1,R30
                 ; 0000 05CF 	//pwm_i=0x3ff;
                 ; 0000 05D0 	if(pwm_i<1020)
000f8e 940e 163d 	CALL SUBOPT_0x65
000f90 3fac      	CPI  R26,LOW(0x3FC)
000f91 e0e3      	LDI  R30,HIGH(0x3FC)
000f92 07be      	CPC  R27,R30
000f93 f428      	BRSH _0x2C3
                 ; 0000 05D1 		{
                 ; 0000 05D2 		pwm_i+=30;
000f94 940e 1611 	CALL SUBOPT_0x61
                 ; 0000 05D3 		if(pwm_i>1020)pwm_i=1020;
000f96 f010      	BRLO _0x2C4
000f97 940e 1622 	CALL SUBOPT_0x62
                 ; 0000 05D4 		}
                 _0x2C4:
                 ; 0000 05D5 	bBL=0;
                 _0x2C3:
000f99 98f7      	CBI  0x1E,7
                 ; 0000 05D6 	}
                 ; 0000 05D7 else if(jp_mode==jp1)
000f9a c0b4      	RJMP _0x2C7
                 _0x2C2:
000f9b 91a0 02ec 	LDS  R26,_jp_mode
000f9d 30a1      	CPI  R26,LOW(0x1)
000f9e f461      	BRNE _0x2C8
                 ; 0000 05D8 	{
                 ; 0000 05D9 	pwm_u=0x3ff;
000f9f efef      	LDI  R30,LOW(1023)
000fa0 e0f3      	LDI  R31,HIGH(1023)
000fa1 940e 1634 	CALL SUBOPT_0x64
                 ; 0000 05DA 	//pwm_i=0x3ff;
                 ; 0000 05DB 	if(pwm_i<1020)
000fa3 f428      	BRSH _0x2C9
                 ; 0000 05DC 		{
                 ; 0000 05DD 		pwm_i+=30;
000fa4 940e 1611 	CALL SUBOPT_0x61
                 ; 0000 05DE 		if(pwm_i>1020)pwm_i=1020;
000fa6 f010      	BRLO _0x2CA
000fa7 940e 1622 	CALL SUBOPT_0x62
                 ; 0000 05DF 		}
                 _0x2CA:
                 ; 0000 05E0 	bBL=0;
                 _0x2C9:
000fa9 98f7      	CBI  0x1E,7
                 ; 0000 05E1 	}
                 ; 0000 05E2 
                 ; 0000 05E3 else if((bMAIN)&&(link==ON)/*&&(ee_AVT_MODE!=0x55)*/)
000faa c0a4      	RJMP _0x2CD
                 _0x2C8:
000fab b5ea      	IN   R30,0x2A
000fac ffe1      	SBRS R30,1
000fad c004      	RJMP _0x2CF
000fae 91a0 02da 	LDS  R26,_link
000fb0 35a5      	CPI  R26,LOW(0x55)
000fb1 f009      	BREQ _0x2D0
                 _0x2CF:
000fb2 c00e      	RJMP _0x2CE
                 _0x2D0:
                 ; 0000 05E4 	{
                 ; 0000 05E5 	pwm_u=volum_u_main_;
000fb3 940e 15c3 	CALL SUBOPT_0x58
000fb5 940e 1634 	CALL SUBOPT_0x64
                 ; 0000 05E6 	//pwm_i=0x3ff;
                 ; 0000 05E7 	if(pwm_i<1020)
000fb7 f428      	BRSH _0x2D1
                 ; 0000 05E8 		{
                 ; 0000 05E9 		pwm_i+=30;
000fb8 940e 1611 	CALL SUBOPT_0x61
                 ; 0000 05EA 		if(pwm_i>1020)pwm_i=1020;
000fba f010      	BRLO _0x2D2
000fbb 940e 1622 	CALL SUBOPT_0x62
                 ; 0000 05EB 		}
                 _0x2D2:
                 ; 0000 05EC 	bBL_IPS=0;
                 _0x2D1:
000fbd b5ea      	IN   R30,0x2A
000fbe 7fee      	CBR  R30,1
000fbf bdea      	OUT  0x2A,R30
                 ; 0000 05ED 	}
                 ; 0000 05EE 
                 ; 0000 05EF else if(link==OFF)
000fc0 c08e      	RJMP _0x2D3
                 _0x2CE:
000fc1 91a0 02da 	LDS  R26,_link
000fc3 3aaa      	CPI  R26,LOW(0xAA)
000fc4 f529      	BRNE _0x2D4
                 ; 0000 05F0 	{
                 ; 0000 05F1 /*	if(ee_Device==0x55)
                 ; 0000 05F2 		{
                 ; 0000 05F3 		pwm_u=0x3ff;
                 ; 0000 05F4 		pwm_i=0x3ff;
                 ; 0000 05F5 		bBL=0;
                 ; 0000 05F6 		}
                 ; 0000 05F7 	else*/
                 ; 0000 05F8  	if(ee_DEVICE)
000fc5 940e 145e 	CALL SUBOPT_0x25
000fc7 9730      	SBIW R30,0
000fc8 f019      	BREQ _0x2D5
                 ; 0000 05F9 		{
                 ; 0000 05FA 		pwm_u=0x00;
000fc9 940e 1629 	CALL SUBOPT_0x63
                 ; 0000 05FB 		pwm_i=0x00;
                 ; 0000 05FC 		bBL=1;
                 ; 0000 05FD 		}
                 ; 0000 05FE 	else
000fcb c01d      	RJMP _0x2D8
                 _0x2D5:
                 ; 0000 05FF 		{
                 ; 0000 0600 		if((flags&0b00011010)==0)
000fcc 91e0 02c3 	LDS  R30,_flags
000fce 71ea      	ANDI R30,LOW(0x1A)
000fcf f481      	BRNE _0x2D9
                 ; 0000 0601 			{
                 ; 0000 0602 			pwm_u=ee_U_AVT;
000fd0 940e 148f 	CALL SUBOPT_0x2A
000fd2 940e 15f8 	CALL SUBOPT_0x5F
                 ; 0000 0603 			gran(&pwm_u,0,1020);
000fd4 940e 15fd 	CALL SUBOPT_0x60
                 ; 0000 0604 		    	//pwm_i=0x3ff;
                 ; 0000 0605 			if(pwm_i<1020)
000fd6 f428      	BRSH _0x2DA
                 ; 0000 0606 				{
                 ; 0000 0607 				pwm_i+=30;
000fd7 940e 1611 	CALL SUBOPT_0x61
                 ; 0000 0608 				if(pwm_i>1020)pwm_i=1020;
000fd9 f010      	BRLO _0x2DB
000fda 940e 1622 	CALL SUBOPT_0x62
                 ; 0000 0609 				}
                 _0x2DB:
                 ; 0000 060A 			bBL=0;
                 _0x2DA:
000fdc 98f7      	CBI  0x1E,7
                 ; 0000 060B 			bBL_IPS=0;
000fdd b5ea      	IN   R30,0x2A
000fde 7fee      	CBR  R30,1
000fdf c008      	RJMP _0x3F8
                 ; 0000 060C 			}
                 ; 0000 060D 		else if(flags&0b00011010)
                 _0x2D9:
000fe0 91e0 02c3 	LDS  R30,_flags
000fe2 71ea      	ANDI R30,LOW(0x1A)
000fe3 f029      	BREQ _0x2DF
                 ; 0000 060E 			{
                 ; 0000 060F 			pwm_u=0;
000fe4 940e 1629 	CALL SUBOPT_0x63
                 ; 0000 0610 			pwm_i=0;
                 ; 0000 0611 			bBL=1;
                 ; 0000 0612 			bBL_IPS=1;
000fe6 b5ea      	IN   R30,0x2A
000fe7 60e1      	SBR  R30,1
                 _0x3F8:
000fe8 bdea      	OUT  0x2A,R30
                 ; 0000 0613 			}
                 ; 0000 0614 		}
                 _0x2DF:
                 _0x2D8:
                 ; 0000 0615 //pwm_u=950;
                 ; 0000 0616 //		pwm_i=950;
                 ; 0000 0617 	}
                 ; 0000 0618 
                 ; 0000 0619 
                 ; 0000 061A 
                 ; 0000 061B else	if(link==ON)				//если есть связьvol_i_temp_avar
000fe9 c065      	RJMP _0x2E2
                 _0x2D4:
000fea 91a0 02da 	LDS  R26,_link
000fec 35a5      	CPI  R26,LOW(0x55)
000fed f009      	BREQ PC+2
000fee c060      	RJMP _0x2E3
                 ; 0000 061C 	{
                 ; 0000 061D 	if((flags&0b00100000)==0)	//если нет блокировки извне
000fef 91e0 02c3 	LDS  R30,_flags
000ff1 72e0      	ANDI R30,LOW(0x20)
000ff2 f009      	BREQ PC+2
000ff3 c055      	RJMP _0x2E4
                 ; 0000 061E 		{
                 ; 0000 061F 		if(((flags&0b00011110)==0b00000100)) 	//если нет аварий или если они заблокированы
000ff4 91e0 02c3 	LDS  R30,_flags
000ff6 71ee      	ANDI R30,LOW(0x1E)
000ff7 30e4      	CPI  R30,LOW(0x4)
000ff8 f501      	BRNE _0x2E5
                 ; 0000 0620 			{
                 ; 0000 0621 			pwm_u=vol_u_temp+_x_;					//управление от укушки + выравнивание токов
000ff9 940e 1642 	CALL SUBOPT_0x66
                 ; 0000 0622 			if(!ee_DEVICE)
000ffb 9730      	SBIW R30,0
000ffc f4a9      	BRNE _0x2E6
                 ; 0000 0623 				{
                 ; 0000 0624 				if(pwm_i<vol_i_temp_avar)pwm_i+=vol_i_temp_avar/30;
000ffd 940e 164b 	CALL SUBOPT_0x67
000fff 940e 163d 	CALL SUBOPT_0x65
001001 17ae      	CP   R26,R30
001002 07bf      	CPC  R27,R31
001003 f438      	BRSH _0x2E7
001004 91a0 034b 	LDS  R26,_vol_i_temp_avar
001006 91b0 034c 	LDS  R27,_vol_i_temp_avar+1
001008 940e 1650 	CALL SUBOPT_0x68
00100a c002      	RJMP _0x3F9
                 ; 0000 0625 				else	pwm_i=vol_i_temp_avar;
                 _0x2E7:
00100b 940e 164b 	CALL SUBOPT_0x67
                 _0x3F9:
00100d 93e0 02e3 	STS  _pwm_i,R30
00100f 93f0 02e4 	STS  _pwm_i+1,R31
                 ; 0000 0626 				}
                 ; 0000 0627 			else pwm_i=vol_i_temp_avar;
001011 c006      	RJMP _0x2E9
                 _0x2E6:
001012 940e 164b 	CALL SUBOPT_0x67
001014 93e0 02e3 	STS  _pwm_i,R30
001016 93f0 02e4 	STS  _pwm_i+1,R31
                 ; 0000 0628 
                 ; 0000 0629 			bBL=0;
                 _0x2E9:
001018 98f7      	CBI  0x1E,7
                 ; 0000 062A 			}
                 ; 0000 062B 		if(((flags&0b00011010)==0)||(flags&0b01000000)) 	//если нет аварий или если они заблокированы
                 _0x2E5:
001019 91e0 02c3 	LDS  R30,_flags
00101b 71ea      	ANDI R30,LOW(0x1A)
00101c f021      	BREQ _0x2ED
00101d 91e0 02c3 	LDS  R30,_flags
00101f 74e0      	ANDI R30,LOW(0x40)
001020 f109      	BREQ _0x2EC
                 _0x2ED:
                 ; 0000 062C 			{
                 ; 0000 062D 			pwm_u=vol_u_temp+_x_;					//управление от укушки + выравнивание токов
001021 940e 1642 	CALL SUBOPT_0x66
                 ; 0000 062E 		    	//pwm_i=vol_i_temp;
                 ; 0000 062F 			if(!ee_DEVICE)
001023 9730      	SBIW R30,0
001024 f4a9      	BRNE _0x2EF
                 ; 0000 0630 				{
                 ; 0000 0631 				if(pwm_i<vol_i_temp)pwm_i+=vol_i_temp/30;
001025 940e 1658 	CALL SUBOPT_0x69
001027 940e 163d 	CALL SUBOPT_0x65
001029 17ae      	CP   R26,R30
00102a 07bf      	CPC  R27,R31
00102b f438      	BRSH _0x2F0
00102c 91a0 02c7 	LDS  R26,_vol_i_temp
00102e 91b0 02c8 	LDS  R27,_vol_i_temp+1
001030 940e 1650 	CALL SUBOPT_0x68
001032 c002      	RJMP _0x3FA
                 ; 0000 0632 				else	pwm_i=vol_i_temp;
                 _0x2F0:
001033 940e 1658 	CALL SUBOPT_0x69
                 _0x3FA:
001035 93e0 02e3 	STS  _pwm_i,R30
001037 93f0 02e4 	STS  _pwm_i+1,R31
                 ; 0000 0633 				}
                 ; 0000 0634 			else pwm_i=vol_i_temp;
001039 c006      	RJMP _0x2F2
                 _0x2EF:
00103a 940e 1658 	CALL SUBOPT_0x69
00103c 93e0 02e3 	STS  _pwm_i,R30
00103e 93f0 02e4 	STS  _pwm_i+1,R31
                 ; 0000 0635 			bBL=0;
                 _0x2F2:
001040 98f7      	CBI  0x1E,7
                 ; 0000 0636 			}
                 ; 0000 0637 		else if(flags&0b00011010)					//если есть аварии
001041 c006      	RJMP _0x2F5
                 _0x2EC:
001042 91e0 02c3 	LDS  R30,_flags
001044 71ea      	ANDI R30,LOW(0x1A)
001045 f011      	BREQ _0x2F6
                 ; 0000 0638 			{
                 ; 0000 0639 			pwm_u=0;								//то полный стоп
001046 940e 1629 	CALL SUBOPT_0x63
                 ; 0000 063A 			pwm_i=0;
                 ; 0000 063B 			bBL=1;
                 ; 0000 063C 			}
                 ; 0000 063D 		}
                 _0x2F6:
                 _0x2F5:
                 ; 0000 063E 	else if(flags&0b00100000)	//если заблокирован извне то полное выключение
001048 c006      	RJMP _0x2F9
                 _0x2E4:
001049 91e0 02c3 	LDS  R30,_flags
00104b 72e0      	ANDI R30,LOW(0x20)
00104c f011      	BREQ _0x2FA
                 ; 0000 063F 		{
                 ; 0000 0640 		pwm_u=0;
00104d 940e 1629 	CALL SUBOPT_0x63
                 ; 0000 0641 	    	pwm_i=0;
                 ; 0000 0642 		bBL=1;
                 ; 0000 0643 		}
                 ; 0000 0644 /*pwm_u=950;
                 ; 0000 0645 		pwm_i=950;*/
                 ; 0000 0646 	}
                 _0x2FA:
                 _0x2F9:
                 ; 0000 0647 //pwm_u=vol_u_temp;
                 ; 0000 0648 }
                 _0x2E3:
                 _0x2E2:
                 _0x2D3:
                 _0x2CD:
                 _0x2C7:
                 _0x2C1:
                 _0x2B6:
00104f 9508      	RET
                 ; .FEND
                 ;
                 ;//-----------------------------------------------
                 ;//Воздействие на силу
                 ;//5Hz
                 ;void pwr_drv(void)
                 ; 0000 064E {
                 _pwr_drv:
                 ; .FSTART _pwr_drv
                 ; 0000 064F /*GPIOB->DDR|=(1<<2);
                 ; 0000 0650 GPIOB->CR1|=(1<<2);
                 ; 0000 0651 GPIOB->CR2&=~(1<<2);*/
                 ; 0000 0652 BLOCK_INIT
001050 9a54      	SBI  0xA,4
                 ; 0000 0653 
                 ; 0000 0654 if(main_cnt1<1500)main_cnt1++;
001051 91a0 02ed 	LDS  R26,_main_cnt1
001053 91b0 02ee 	LDS  R27,_main_cnt1+1
001055 3dac      	CPI  R26,LOW(0x5DC)
001056 e0e5      	LDI  R30,HIGH(0x5DC)
001057 07be      	CPC  R27,R30
001058 f424      	BRGE _0x2FF
001059 eead      	LDI  R26,LOW(_main_cnt1)
00105a e0b2      	LDI  R27,HIGH(_main_cnt1)
00105b 940e 1489 	CALL SUBOPT_0x29
                 ; 0000 0655 
                 ; 0000 0656 if((main_cnt1<25)&&(ee_DEVICE))
                 _0x2FF:
00105d 91a0 02ed 	LDS  R26,_main_cnt1
00105f 91b0 02ee 	LDS  R27,_main_cnt1+1
001061 9759      	SBIW R26,25
001062 f424      	BRGE _0x301
001063 940e 145e 	CALL SUBOPT_0x25
001065 9730      	SBIW R30,0
001066 f409      	BRNE _0x302
                 _0x301:
001067 c003      	RJMP _0x300
                 _0x302:
                 ; 0000 0657 	{
                 ; 0000 0658 	BLOCK_ON
001068 9a5c      	SBI  0xB,4
001069 e0e1      	LDI  R30,LOW(1)
00106a c062      	RJMP _0x3FB
                 ; 0000 0659 	}
                 ; 0000 065A else if((ee_DEVICE))
                 _0x300:
00106b 940e 145e 	CALL SUBOPT_0x25
00106d 9730      	SBIW R30,0
00106e f061      	BREQ _0x306
                 ; 0000 065B 	{
                 ; 0000 065C 	if(bBL)
00106f 9bf7      	SBIS 0x1E,7
001070 c003      	RJMP _0x307
                 ; 0000 065D 		{
                 ; 0000 065E 		BLOCK_ON
001071 9a5c      	SBI  0xB,4
001072 e0e1      	LDI  R30,LOW(1)
001073 c004      	RJMP _0x3FC
                 ; 0000 065F 		}
                 ; 0000 0660 	else if(!bBL)
                 _0x307:
001074 99f7      	SBIC 0x1E,7
001075 c004      	RJMP _0x30B
                 ; 0000 0661 		{
                 ; 0000 0662 		BLOCK_OFF
001076 985c      	CBI  0xB,4
001077 e0e0      	LDI  R30,LOW(0)
                 _0x3FC:
001078 93e0 0317 	STS  _bVENT_BLOCK,R30
                 ; 0000 0663 		}
                 ; 0000 0664 	}
                 _0x30B:
                 ; 0000 0665 else if((main_cnt1<(5*ee_TZAS))&&(bps_class!=bpsIPS))
00107a c054      	RJMP _0x30E
                 _0x306:
00107b 940e 1463 	CALL SUBOPT_0x26
00107d 940e 156e 	CALL SUBOPT_0x49
00107f 17ae      	CP   R26,R30
001080 07bf      	CPC  R27,R31
001081 f424      	BRGE _0x310
001082 91a0 0314 	LDS  R26,_bps_class
001084 30a1      	CPI  R26,LOW(0x1)
001085 f409      	BRNE _0x311
                 _0x310:
001086 c003      	RJMP _0x30F
                 _0x311:
                 ; 0000 0666 	{
                 ; 0000 0667 	BLOCK_ON
001087 9a5c      	SBI  0xB,4
001088 e0e1      	LDI  R30,LOW(1)
001089 c043      	RJMP _0x3FB
                 ; 0000 0668 	//GPIOB->ODR|=(1<<2);
                 ; 0000 0669 	}
                 ; 0000 066A else if(bps_class==bpsIPS)
                 _0x30F:
00108a 91a0 0314 	LDS  R26,_bps_class
00108c 30a1      	CPI  R26,LOW(0x1)
00108d f471      	BRNE _0x315
                 ; 0000 066B 		{
                 ; 0000 066C //GPIOB->ODR|=(1<<2);
                 ; 0000 066D 		if(bBL_IPS)
00108e b5ea      	IN   R30,0x2A
00108f ffe0      	SBRS R30,0
001090 c003      	RJMP _0x316
                 ; 0000 066E 			{
                 ; 0000 066F 			 BLOCK_ON
001091 9a5c      	SBI  0xB,4
001092 e0e1      	LDI  R30,LOW(1)
001093 c005      	RJMP _0x3FD
                 ; 0000 0670 			//GPIOB->ODR|=(1<<2);
                 ; 0000 0671 			}
                 ; 0000 0672 		else if(!bBL_IPS)
                 _0x316:
001094 b5ea      	IN   R30,0x2A
001095 fde0      	SBRC R30,0
001096 c004      	RJMP _0x31A
                 ; 0000 0673 			{
                 ; 0000 0674 			  BLOCK_OFF
001097 985c      	CBI  0xB,4
001098 e0e0      	LDI  R30,LOW(0)
                 _0x3FD:
001099 93e0 0317 	STS  _bVENT_BLOCK,R30
                 ; 0000 0675 			//GPIOB->ODR&=~(1<<2);
                 ; 0000 0676 			}
                 ; 0000 0677 		}
                 _0x31A:
                 ; 0000 0678 else if(((main_cnt1>(5*ee_TZAS))&&(main_cnt1<(70+(5*ee_TZAS)))))
00109b c033      	RJMP _0x31D
                 _0x315:
00109c 940e 1463 	CALL SUBOPT_0x26
00109e 940e 156e 	CALL SUBOPT_0x49
0010a0 17ea      	CP   R30,R26
0010a1 07fb      	CPC  R31,R27
0010a2 f41c      	BRGE _0x31F
0010a3 940e 1590 	CALL SUBOPT_0x4F
0010a5 f00c      	BRLT _0x320
                 _0x31F:
0010a6 c01d      	RJMP _0x31E
                 _0x320:
                 ; 0000 0679 	{
                 ; 0000 067A 	if(bps_class==bpsIPS)
0010a7 91a0 0314 	LDS  R26,_bps_class
0010a9 30a1      	CPI  R26,LOW(0x1)
0010aa f0a1      	BREQ _0x3FE
                 ; 0000 067B 		{
                 ; 0000 067C 		  BLOCK_OFF
                 ; 0000 067D 		//GPIOB->ODR&=~(1<<2);
                 ; 0000 067E 		}
                 ; 0000 067F 	else if(bps_class==bpsIBEP)
0010ab 91e0 0314 	LDS  R30,_bps_class
0010ad 30e0      	CPI  R30,0
0010ae f4a1      	BRNE _0x325
                 ; 0000 0680 		{
                 ; 0000 0681 		if(ee_DEVICE)
0010af 940e 145e 	CALL SUBOPT_0x25
0010b1 9730      	SBIW R30,0
0010b2 f061      	BREQ _0x326
                 ; 0000 0682 			{
                 ; 0000 0683 			if(flags&0b00100000)BLOCK_ON //GPIOB->ODR|=(1<<2);
0010b3 91e0 02c3 	LDS  R30,_flags
0010b5 72e0      	ANDI R30,LOW(0x20)
0010b6 f019      	BREQ _0x327
0010b7 9a5c      	SBI  0xB,4
0010b8 e0e1      	LDI  R30,LOW(1)
0010b9 c002      	RJMP _0x3FF
                 ; 0000 0684 			else	BLOCK_OFF //GPIOB->ODR&=~(1<<2);
                 _0x327:
0010ba 985c      	CBI  0xB,4
0010bb e0e0      	LDI  R30,LOW(0)
                 _0x3FF:
0010bc 93e0 0317 	STS  _bVENT_BLOCK,R30
                 ; 0000 0685 			}
                 ; 0000 0686 		else
0010be c004      	RJMP _0x32D
                 _0x326:
                 ; 0000 0687 			{
                 ; 0000 0688 			BLOCK_OFF
                 _0x3FE:
0010bf 985c      	CBI  0xB,4
0010c0 e0e0      	LDI  R30,LOW(0)
0010c1 93e0 0317 	STS  _bVENT_BLOCK,R30
                 ; 0000 0689 			//GPIOB->ODR&=~(1<<2);
                 ; 0000 068A 			}
                 _0x32D:
                 ; 0000 068B 		}
                 ; 0000 068C 	}
                 _0x325:
                 ; 0000 068D else if(bBL)
0010c3 c00b      	RJMP _0x330
                 _0x31E:
0010c4 9bf7      	SBIS 0x1E,7
0010c5 c003      	RJMP _0x331
                 ; 0000 068E 	{
                 ; 0000 068F 	BLOCK_ON
0010c6 9a5c      	SBI  0xB,4
0010c7 e0e1      	LDI  R30,LOW(1)
0010c8 c004      	RJMP _0x3FB
                 ; 0000 0690 	//GPIOB->ODR|=(1<<2);
                 ; 0000 0691 	}
                 ; 0000 0692 else if(!bBL)
                 _0x331:
0010c9 99f7      	SBIC 0x1E,7
0010ca c004      	RJMP _0x335
                 ; 0000 0693 	{
                 ; 0000 0694 	BLOCK_OFF
0010cb 985c      	CBI  0xB,4
0010cc e0e0      	LDI  R30,LOW(0)
                 _0x3FB:
0010cd 93e0 0317 	STS  _bVENT_BLOCK,R30
                 ; 0000 0695 	//GPIOB->ODR&=~(1<<2);
                 ; 0000 0696 	}
                 ; 0000 0697 
                 ; 0000 0698 //pwm_u=800;
                 ; 0000 0699 //pwm_u=400;
                 ; 0000 069A 
                 ; 0000 069B gran(&pwm_u,1,1020);
                 _0x335:
                 _0x330:
                 _0x31D:
                 _0x30E:
0010cf eee1      	LDI  R30,LOW(_pwm_u)
0010d0 e0f2      	LDI  R31,HIGH(_pwm_u)
0010d1 940e 165d 	CALL SUBOPT_0x6A
                 ; 0000 069C gran(&pwm_i,1,1020);
0010d3 eee3      	LDI  R30,LOW(_pwm_i)
0010d4 e0f2      	LDI  R31,HIGH(_pwm_i)
0010d5 940e 165d 	CALL SUBOPT_0x6A
                 ; 0000 069D 
                 ; 0000 069E if(ee_AVT_MODE!=0x55)
0010d7 940e 144a 	CALL SUBOPT_0x21
0010d9 35e5      	CPI  R30,LOW(0x55)
0010da e0a0      	LDI  R26,HIGH(0x55)
0010db 07fa      	CPC  R31,R26
0010dc f089      	BREQ _0x338
                 ; 0000 069F     {
                 ; 0000 06A0     if((ee_DEVICE==0)&&(main_cnt1<(5*(ee_TZAS+10))))pwm_u=10;
0010dd 940e 145e 	CALL SUBOPT_0x25
0010df 9730      	SBIW R30,0
0010e0 f441      	BRNE _0x33A
0010e1 940e 1463 	CALL SUBOPT_0x26
0010e3 963a      	ADIW R30,10
0010e4 940e 156e 	CALL SUBOPT_0x49
0010e6 17ae      	CP   R26,R30
0010e7 07bf      	CPC  R27,R31
0010e8 f00c      	BRLT _0x33B
                 _0x33A:
0010e9 c004      	RJMP _0x339
                 _0x33B:
0010ea e0ea      	LDI  R30,LOW(10)
0010eb e0f0      	LDI  R31,HIGH(10)
0010ec 940e 15f8 	CALL SUBOPT_0x5F
                 ; 0000 06A1     }
                 _0x339:
                 ; 0000 06A2 
                 ; 0000 06A3 //pwm_u=1000;
                 ; 0000 06A4 //pwm_i=1000;
                 ; 0000 06A5 
                 ; 0000 06A6 //GPIOB->ODR|=(1<<3);
                 ; 0000 06A7 
                 ; 0000 06A8 //pwm_u=100;
                 ; 0000 06A9 //pwm_i=400;
                 ; 0000 06AA //vent_pwm=200;
                 ; 0000 06AB 
                 ; 0000 06AC 
                 ; 0000 06AD OCR1AH= (char)(pwm_u/256);
                 _0x338:
0010ee 91e0 02e2 	LDS  R30,_pwm_u+1
0010f0 93e0 0089 	STS  137,R30
                 ; 0000 06AE OCR1AL= (char)pwm_u;
0010f2 91e0 02e1 	LDS  R30,_pwm_u
0010f4 93e0 0088 	STS  136,R30
                 ; 0000 06AF 
                 ; 0000 06B0 OCR1BH= (char)(pwm_i/256);
0010f6 91e0 02e4 	LDS  R30,_pwm_i+1
0010f8 93e0 008b 	STS  139,R30
                 ; 0000 06B1 OCR1BL= (char)pwm_i;
0010fa 91e0 02e3 	LDS  R30,_pwm_i
0010fc 93e0 008a 	STS  138,R30
                 ; 0000 06B2 /*
                 ; 0000 06B3 TIM1->CCR1H= (char)(pwm_i/256);
                 ; 0000 06B4 TIM1->CCR1L= (char)pwm_i;
                 ; 0000 06B5 
                 ; 0000 06B6 TIM1->CCR3H= (char)(vent_pwm/256);
                 ; 0000 06B7 TIM1->CCR3L= (char)vent_pwm;*/
                 ; 0000 06B8 
                 ; 0000 06B9 //OCR1AL= 260;//pwm_u;
                 ; 0000 06BA //OCR1B= 0;//pwm_i;
                 ; 0000 06BB 
                 ; 0000 06BC OCR2B=(char)(vent_pwm/4);
0010fe 940e 15ad 	CALL SUBOPT_0x54
001100 e0e4      	LDI  R30,LOW(4)
001101 e0f0      	LDI  R31,HIGH(4)
001102 940e 1716 	CALL __DIVW21
001104 93e0 00b4 	STS  180,R30
                 ; 0000 06BD 
                 ; 0000 06BE }
001106 9508      	RET
                 ; .FEND
                 ;
                 ;//-----------------------------------------------
                 ;void pwr_hndl_(void)
                 ; 0000 06C2 {
                 ; 0000 06C3 //vol_u_temp=800;
                 ; 0000 06C4 if(jp_mode==jp3)
                 ; 0000 06C5 	{
                 ; 0000 06C6 	if((flags&0b00001010)==0)
                 ; 0000 06C7 		{
                 ; 0000 06C8 		pwm_u=500;
                 ; 0000 06C9 		//pwm_i=0x3ff;
                 ; 0000 06CA 		bBL=0;
                 ; 0000 06CB 		}
                 ; 0000 06CC 	else if(flags&0b00001010)
                 ; 0000 06CD 		{
                 ; 0000 06CE 		pwm_u=0;
                 ; 0000 06CF 		//pwm_i=0;
                 ; 0000 06D0 		bBL=1;
                 ; 0000 06D1 		}
                 ; 0000 06D2 
                 ; 0000 06D3 	}
                 ; 0000 06D4 else if(jp_mode==jp2)
                 ; 0000 06D5 	{
                 ; 0000 06D6 	pwm_u=0;
                 ; 0000 06D7 	//pwm_i=0x3ff;
                 ; 0000 06D8 	bBL=0;
                 ; 0000 06D9 	}
                 ; 0000 06DA else if(jp_mode==jp1)
                 ; 0000 06DB 	{
                 ; 0000 06DC 	pwm_u=0x3ff;
                 ; 0000 06DD 	//pwm_i=0x3ff;
                 ; 0000 06DE 	bBL=0;
                 ; 0000 06DF 	}
                 ; 0000 06E0 
                 ; 0000 06E1 else if(link==OFF)
                 ; 0000 06E2 	{
                 ; 0000 06E3 	if((flags&0b00011010)==0)
                 ; 0000 06E4 		{
                 ; 0000 06E5 		pwm_u=ee_U_AVT;
                 ; 0000 06E6 		gran(&pwm_u,0,1020);
                 ; 0000 06E7 	    //	pwm_i=0x3ff;
                 ; 0000 06E8 		bBL=0;
                 ; 0000 06E9 		}
                 ; 0000 06EA 	else if(flags&0b00011010)
                 ; 0000 06EB 		{
                 ; 0000 06EC 		pwm_u=0;
                 ; 0000 06ED 		//pwm_i=0;
                 ; 0000 06EE 		bBL=1;
                 ; 0000 06EF 		}
                 ; 0000 06F0 	}
                 ; 0000 06F1 
                 ; 0000 06F2 else	if(link==ON)
                 ; 0000 06F3 	{
                 ; 0000 06F4 	if((flags&0b00100000)==0)
                 ; 0000 06F5 		{
                 ; 0000 06F6 		if(((flags&0b00011010)==0)||(flags&0b01000000))
                 ; 0000 06F7 			{
                 ; 0000 06F8 			pwm_u=vol_u_temp+_x_;
                 ; 0000 06F9 		    //	pwm_i=0x3ff;
                 ; 0000 06FA 			bBL=0;
                 ; 0000 06FB 			}
                 ; 0000 06FC 		else if(flags&0b00011010)
                 ; 0000 06FD 			{
                 ; 0000 06FE 			pwm_u=0;
                 ; 0000 06FF 			//pwm_i=0;
                 ; 0000 0700 			bBL=1;
                 ; 0000 0701 			}
                 ; 0000 0702 		}
                 ; 0000 0703 	else if(flags&0b00100000)
                 ; 0000 0704 		{
                 ; 0000 0705 		pwm_u=0;
                 ; 0000 0706 	    //	pwm_i=0;
                 ; 0000 0707 		bBL=1;
                 ; 0000 0708 		}
                 ; 0000 0709 	}
                 ; 0000 070A //pwm_u=vol_u_temp;
                 ; 0000 070B }
                 ;
                 ;//-----------------------------------------------
                 ;void JP_drv(void)
                 ; 0000 070F {
                 _JP_drv:
                 ; .FSTART _JP_drv
                 ; 0000 0710 
                 ; 0000 0711 DDRB.6=1;
001107 9a26      	SBI  0x4,6
                 ; 0000 0712 DDRB.7=1;
001108 9a27      	SBI  0x4,7
                 ; 0000 0713 PORTB.6=1;
001109 9a2e      	SBI  0x5,6
                 ; 0000 0714 PORTB.7=1;
00110a 9a2f      	SBI  0x5,7
                 ; 0000 0715 
                 ; 0000 0716 if(PINB.6)
00110b 9b1e      	SBIS 0x3,6
00110c c00a      	RJMP _0x36D
                 ; 0000 0717 	{
                 ; 0000 0718 	if(cnt_JP0<10)
00110d 91a0 02ea 	LDS  R26,_cnt_JP0
00110f 30aa      	CPI  R26,LOW(0xA)
001110 f428      	BRSH _0x36E
                 ; 0000 0719 		{
                 ; 0000 071A 		cnt_JP0++;
001111 91e0 02ea 	LDS  R30,_cnt_JP0
001113 5fef      	SUBI R30,-LOW(1)
001114 93e0 02ea 	STS  _cnt_JP0,R30
                 ; 0000 071B 		}
                 ; 0000 071C 	}
                 _0x36E:
                 ; 0000 071D else if(!PINB.6)
001116 c009      	RJMP _0x36F
                 _0x36D:
001117 991e      	SBIC 0x3,6
001118 c007      	RJMP _0x370
                 ; 0000 071E 	{
                 ; 0000 071F 	if(cnt_JP0)
001119 91e0 02ea 	LDS  R30,_cnt_JP0
00111b 30e0      	CPI  R30,0
00111c f019      	BREQ _0x371
                 ; 0000 0720 		{
                 ; 0000 0721 		cnt_JP0--;
00111d 50e1      	SUBI R30,LOW(1)
00111e 93e0 02ea 	STS  _cnt_JP0,R30
                 ; 0000 0722 		}
                 ; 0000 0723 	}
                 _0x371:
                 ; 0000 0724 
                 ; 0000 0725 if(PINB.7)
                 _0x370:
                 _0x36F:
001120 9b1f      	SBIS 0x3,7
001121 c00a      	RJMP _0x372
                 ; 0000 0726 	{
                 ; 0000 0727 	if(cnt_JP1<10)
001122 91a0 02eb 	LDS  R26,_cnt_JP1
001124 30aa      	CPI  R26,LOW(0xA)
001125 f428      	BRSH _0x373
                 ; 0000 0728 		{
                 ; 0000 0729 		cnt_JP1++;
001126 91e0 02eb 	LDS  R30,_cnt_JP1
001128 5fef      	SUBI R30,-LOW(1)
001129 93e0 02eb 	STS  _cnt_JP1,R30
                 ; 0000 072A 		}
                 ; 0000 072B 	}
                 _0x373:
                 ; 0000 072C else if(!PINB.7)
00112b c009      	RJMP _0x374
                 _0x372:
00112c 991f      	SBIC 0x3,7
00112d c007      	RJMP _0x375
                 ; 0000 072D 	{
                 ; 0000 072E 	if(cnt_JP1)
00112e 91e0 02eb 	LDS  R30,_cnt_JP1
001130 30e0      	CPI  R30,0
001131 f019      	BREQ _0x376
                 ; 0000 072F 		{
                 ; 0000 0730 		cnt_JP1--;
001132 50e1      	SUBI R30,LOW(1)
001133 93e0 02eb 	STS  _cnt_JP1,R30
                 ; 0000 0731 		}
                 ; 0000 0732 	}
                 _0x376:
                 ; 0000 0733 
                 ; 0000 0734 
                 ; 0000 0735 if((cnt_JP0==10)&&(cnt_JP1==10))
                 _0x375:
                 _0x374:
001135 91a0 02ea 	LDS  R26,_cnt_JP0
001137 30aa      	CPI  R26,LOW(0xA)
001138 f421      	BRNE _0x378
001139 91a0 02eb 	LDS  R26,_cnt_JP1
00113b 30aa      	CPI  R26,LOW(0xA)
00113c f009      	BREQ _0x379
                 _0x378:
00113d c003      	RJMP _0x377
                 _0x379:
                 ; 0000 0736 	{
                 ; 0000 0737 	jp_mode=jp0;
00113e e0e0      	LDI  R30,LOW(0)
00113f 93e0 02ec 	STS  _jp_mode,R30
                 ; 0000 0738 	}
                 ; 0000 0739 if((cnt_JP0==0)&&(cnt_JP1==10))
                 _0x377:
001141 91a0 02ea 	LDS  R26,_cnt_JP0
001143 30a0      	CPI  R26,LOW(0x0)
001144 f421      	BRNE _0x37B
001145 91a0 02eb 	LDS  R26,_cnt_JP1
001147 30aa      	CPI  R26,LOW(0xA)
001148 f009      	BREQ _0x37C
                 _0x37B:
001149 c003      	RJMP _0x37A
                 _0x37C:
                 ; 0000 073A 	{
                 ; 0000 073B 	jp_mode=jp1;
00114a e0e1      	LDI  R30,LOW(1)
00114b 93e0 02ec 	STS  _jp_mode,R30
                 ; 0000 073C 	}
                 ; 0000 073D if((cnt_JP0==10)&&(cnt_JP1==0))
                 _0x37A:
00114d 91a0 02ea 	LDS  R26,_cnt_JP0
00114f 30aa      	CPI  R26,LOW(0xA)
001150 f421      	BRNE _0x37E
001151 91a0 02eb 	LDS  R26,_cnt_JP1
001153 30a0      	CPI  R26,LOW(0x0)
001154 f009      	BREQ _0x37F
                 _0x37E:
001155 c003      	RJMP _0x37D
                 _0x37F:
                 ; 0000 073E 	{
                 ; 0000 073F 	jp_mode=jp2;
001156 e0e2      	LDI  R30,LOW(2)
001157 93e0 02ec 	STS  _jp_mode,R30
                 ; 0000 0740 	}
                 ; 0000 0741 if((cnt_JP0==0)&&(cnt_JP1==0))
                 _0x37D:
001159 91a0 02ea 	LDS  R26,_cnt_JP0
00115b 30a0      	CPI  R26,LOW(0x0)
00115c f421      	BRNE _0x381
00115d 91a0 02eb 	LDS  R26,_cnt_JP1
00115f 30a0      	CPI  R26,LOW(0x0)
001160 f009      	BREQ _0x382
                 _0x381:
001161 c003      	RJMP _0x380
                 _0x382:
                 ; 0000 0742 	{
                 ; 0000 0743 	jp_mode=jp3;
001162 e0e3      	LDI  R30,LOW(3)
001163 93e0 02ec 	STS  _jp_mode,R30
                 ; 0000 0744 	}
                 ; 0000 0745 
                 ; 0000 0746 }
                 _0x380:
001165 9508      	RET
                 ; .FEND
                 ;
                 ;//-----------------------------------------------
                 ;void adc_hndl(void)
                 ; 0000 074A {
                 _adc_hndl:
                 ; .FSTART _adc_hndl
                 ; 0000 074B unsigned tempUI;
                 ; 0000 074C tempUI=ADCW;
001166 931a      	ST   -Y,R17
001167 930a      	ST   -Y,R16
                 ;	tempUI -> R16,R17
                +
001168 9100 0078+LDS R16 , 0 + ( 120 )
00116a 9110 0079+LDS R17 , 0 + ( 120 ) + 1
                 	__GETWRMN 16,17,0,120
                 ; 0000 074D adc_buff[adc_ch][adc_cnt]=tempUI;
00116c 940e 1667 	CALL SUBOPT_0x6B
00116e 01df      	MOVW R26,R30
00116f 91e0 02b6 	LDS  R30,_adc_cnt
001171 e0f0      	LDI  R31,0
001172 0fee      	LSL  R30
001173 1fff      	ROL  R31
001174 0fea      	ADD  R30,R26
001175 1ffb      	ADC  R31,R27
001176 8300      	ST   Z,R16
001177 8311      	STD  Z+1,R17
                 ; 0000 074E /*if(adc_ch==2)
                 ; 0000 074F 	{
                 ; 0000 0750 	if(tempUI>adc_ch_2_max)adc_ch_2_max=tempUI;
                 ; 0000 0751 	else if(tempUI<adc_ch_2_min)adc_ch_2_min=tempUI;
                 ; 0000 0752 	}  */
                 ; 0000 0753 
                 ; 0000 0754 if((adc_cnt&0x03)==0)
001178 91e0 02b6 	LDS  R30,_adc_cnt
00117a 70e3      	ANDI R30,LOW(0x3)
00117b f599      	BRNE _0x383
                 ; 0000 0755 	{
                 ; 0000 0756 	char i;
                 ; 0000 0757 	adc_buff_[adc_ch]=0;
00117c 9721      	SBIW R28,1
                 ;	i -> Y+0
00117d 940e 1671 	CALL SUBOPT_0x6C
00117f 0fae      	ADD  R26,R30
001180 1fbf      	ADC  R27,R31
001181 e0e0      	LDI  R30,LOW(0)
001182 e0f0      	LDI  R31,HIGH(0)
001183 93ed      	ST   X+,R30
001184 93fc      	ST   X,R31
                 ; 0000 0758 	for(i=0;i<16;i++)
001185 83e8      	ST   Y,R30
                 _0x385:
001186 81a8      	LD   R26,Y
001187 31a0      	CPI  R26,LOW(0x10)
001188 f4d8      	BRSH _0x386
                 ; 0000 0759 		{
                 ; 0000 075A 		adc_buff_[adc_ch]+=adc_buff[adc_ch][i];
001189 940e 1671 	CALL SUBOPT_0x6C
00118b 0fea      	ADD  R30,R26
00118c 1ffb      	ADC  R31,R27
00118d 01bf      	MOVW R22,R30
00118e 8000      	LD   R0,Z
00118f 8011      	LDD  R1,Z+1
001190 940e 1667 	CALL SUBOPT_0x6B
001192 01df      	MOVW R26,R30
001193 81e8      	LD   R30,Y
001194 e0f0      	LDI  R31,0
001195 0fee      	LSL  R30
001196 1fff      	ROL  R31
001197 0fae      	ADD  R26,R30
001198 1fbf      	ADC  R27,R31
001199 940e 1766 	CALL __GETW1P
00119b 0de0      	ADD  R30,R0
00119c 1df1      	ADC  R31,R1
00119d 01db      	MOVW R26,R22
00119e 93ed      	ST   X+,R30
00119f 93fc      	ST   X,R31
                 ; 0000 075B 		}
0011a0 81e8      	LD   R30,Y
0011a1 5fef      	SUBI R30,-LOW(1)
0011a2 83e8      	ST   Y,R30
0011a3 cfe2      	RJMP _0x385
                 _0x386:
                 ; 0000 075C 	adc_buff_[adc_ch]>>=4;
0011a4 940e 1671 	CALL SUBOPT_0x6C
0011a6 0fae      	ADD  R26,R30
0011a7 1fbf      	ADC  R27,R31
0011a8 91ed      	LD   R30,X+
0011a9 91fd      	LD   R31,X+
0011aa 940e 16c3 	CALL __LSRW4
0011ac 93fe      	ST   -X,R31
0011ad 93ee      	ST   -X,R30
                 ; 0000 075D     //adc_buff_[adc_ch]=(adc_ch+1)*100;
                 ; 0000 075E 	}
0011ae 9621      	ADIW R28,1
                 ; 0000 075F 
                 ; 0000 0760 if(++adc_ch>=5)
                 _0x383:
0011af 91a0 02b7 	LDS  R26,_adc_ch
0011b1 5faf      	SUBI R26,-LOW(1)
0011b2 93a0 02b7 	STS  _adc_ch,R26
0011b4 30a5      	CPI  R26,LOW(0x5)
0011b5 f060      	BRLO _0x387
                 ; 0000 0761 	{
                 ; 0000 0762 	adc_ch=0;
0011b6 e0e0      	LDI  R30,LOW(0)
0011b7 93e0 02b7 	STS  _adc_ch,R30
                 ; 0000 0763 	if(++adc_cnt>=16)
0011b9 91a0 02b6 	LDS  R26,_adc_cnt
0011bb 5faf      	SUBI R26,-LOW(1)
0011bc 93a0 02b6 	STS  _adc_cnt,R26
0011be 31a0      	CPI  R26,LOW(0x10)
0011bf f010      	BRLO _0x388
                 ; 0000 0764 		{
                 ; 0000 0765 		adc_cnt=0;
0011c0 93e0 02b6 	STS  _adc_cnt,R30
                 ; 0000 0766 		}
                 ; 0000 0767 	}
                 _0x388:
                 ; 0000 0768 DDRC&=0b11000000;
                 _0x387:
0011c2 b1e7      	IN   R30,0x7
0011c3 7ce0      	ANDI R30,LOW(0xC0)
0011c4 b9e7      	OUT  0x7,R30
                 ; 0000 0769 PORTC&=0b11000000;
0011c5 b1e8      	IN   R30,0x8
0011c6 7ce0      	ANDI R30,LOW(0xC0)
0011c7 b9e8      	OUT  0x8,R30
                 ; 0000 076A 
                 ; 0000 076B if(adc_ch==0)       ADMUX=0b00000001; //ток
0011c8 91e0 02b7 	LDS  R30,_adc_ch
0011ca 30e0      	CPI  R30,0
0011cb f411      	BRNE _0x389
0011cc e0e1      	LDI  R30,LOW(1)
0011cd c017      	RJMP _0x400
                 ; 0000 076C else if(adc_ch==1)  ADMUX=0b00000100; //напр ист
                 _0x389:
0011ce 91a0 02b7 	LDS  R26,_adc_ch
0011d0 30a1      	CPI  R26,LOW(0x1)
0011d1 f411      	BRNE _0x38B
0011d2 e0e4      	LDI  R30,LOW(4)
0011d3 c011      	RJMP _0x400
                 ; 0000 076D else if(adc_ch==2)  ADMUX=0b00000010; //напр нагр
                 _0x38B:
0011d4 91a0 02b7 	LDS  R26,_adc_ch
0011d6 30a2      	CPI  R26,LOW(0x2)
0011d7 f411      	BRNE _0x38D
0011d8 e0e2      	LDI  R30,LOW(2)
0011d9 c00b      	RJMP _0x400
                 ; 0000 076E else if(adc_ch==3)  ADMUX=0b00000011; //темпер
                 _0x38D:
0011da 91a0 02b7 	LDS  R26,_adc_ch
0011dc 30a3      	CPI  R26,LOW(0x3)
0011dd f411      	BRNE _0x38F
0011de e0e3      	LDI  R30,LOW(3)
0011df c005      	RJMP _0x400
                 ; 0000 076F else if(adc_ch==4)  ADMUX=0b00000101; //доп
                 _0x38F:
0011e0 91a0 02b7 	LDS  R26,_adc_ch
0011e2 30a4      	CPI  R26,LOW(0x4)
0011e3 f419      	BRNE _0x391
0011e4 e0e5      	LDI  R30,LOW(5)
                 _0x400:
0011e5 93e0 007c 	STS  124,R30
                 ; 0000 0770 
                 ; 0000 0771 
                 ; 0000 0772 ADCSRA=0b10100110;
                 _0x391:
0011e7 eae6      	LDI  R30,LOW(166)
0011e8 93e0 007a 	STS  122,R30
                 ; 0000 0773 ADCSRA|=0b01000000;
0011ea 91e0 007a 	LDS  R30,122
0011ec 64e0      	ORI  R30,0x40
0011ed 93e0 007a 	STS  122,R30
                 ; 0000 0774 
                 ; 0000 0775 }
0011ef 9109      	LD   R16,Y+
0011f0 9119      	LD   R17,Y+
0011f1 9508      	RET
                 ; .FEND
                 ;
                 ;//-----------------------------------------------
                 ;void matemat(void)
                 ; 0000 0779 {
                 _matemat:
                 ; .FSTART _matemat
                 ; 0000 077A signed long temp_SL;
                 ; 0000 077B 
                 ; 0000 077C #ifdef _220_
                 ; 0000 077D temp_SL=adc_buff_[0];
0011f2 9724      	SBIW R28,4
                 ;	temp_SL -> Y+0
0011f3 940e 1401 	CALL SUBOPT_0x12
0011f5 940e 1679 	CALL SUBOPT_0x6D
                 ; 0000 077E temp_SL-=K[0][0];
0011f7 e0a0      	LDI  R26,LOW(_K)
0011f8 e0b0      	LDI  R27,HIGH(_K)
0011f9 940e 1785 	CALL __EEPROMRDW
0011fb 940e 167e 	CALL SUBOPT_0x6E
0011fd 940e 16a4 	CALL __SUBD21
0011ff 940e 1774 	CALL __PUTD2S0
                 ; 0000 077F if(temp_SL<0) temp_SL=0;
001201 81ab      	LDD  R26,Y+3
001202 23aa      	TST  R26
001203 f412      	BRPL _0x392
001204 940e 1683 	CALL SUBOPT_0x6F
                 ; 0000 0780 temp_SL*=K[0][1];
                 _0x392:
001206 940e 140b 	CALL SUBOPT_0x14
001208 940e 167e 	CALL SUBOPT_0x6E
00120a 940e 1687 	CALL SUBOPT_0x70
                 ; 0000 0781 temp_SL/=2400;
                +
00120c e6e0     +LDI R30 , LOW ( 0x960 )
00120d e0f9     +LDI R31 , HIGH ( 0x960 )
00120e e060     +LDI R22 , BYTE3 ( 0x960 )
00120f e070     +LDI R23 , BYTE4 ( 0x960 )
                 	__GETD1N 0x960
001210 940e 168e 	CALL SUBOPT_0x71
                 ; 0000 0782 I=(signed int)temp_SL;
001212 93e0 02b8 	STS  _I,R30
001214 93f0 02b9 	STS  _I+1,R31
                 ; 0000 0783 #else
                 ; 0000 0784 
                 ; 0000 0785 #ifdef _24_
                 ; 0000 0786 temp_SL=adc_buff_[0];
                 ; 0000 0787 temp_SL-=K[0][0];
                 ; 0000 0788 if(temp_SL<0) temp_SL=0;
                 ; 0000 0789 temp_SL*=K[0][1];
                 ; 0000 078A temp_SL/=800;
                 ; 0000 078B I=(signed int)temp_SL;
                 ; 0000 078C #else
                 ; 0000 078D temp_SL=adc_buff_[0];
                 ; 0000 078E temp_SL-=K[0][0];
                 ; 0000 078F if(temp_SL<0) temp_SL=0;
                 ; 0000 0790 temp_SL*=K[0][1];
                 ; 0000 0791 temp_SL/=1200;
                 ; 0000 0792 I=(signed int)temp_SL;
                 ; 0000 0793 #endif
                 ; 0000 0794 #endif
                 ; 0000 0795 
                 ; 0000 0796 //I=adc_buff_[0];
                 ; 0000 0797 
                 ; 0000 0798 temp_SL=adc_buff_[1];
                +
001216 91e0 02ae+LDS R30 , _adc_buff_ + ( 2 )
001218 91f0 02af+LDS R31 , _adc_buff_ + ( 2 ) + 1
                 	__GETW1MN _adc_buff_,2
00121a 940e 1679 	CALL SUBOPT_0x6D
                 ; 0000 0799 //temp_SL-=K[1,0];
                 ; 0000 079A if(temp_SL<0) temp_SL=0;
00121c 81ab      	LDD  R26,Y+3
00121d 23aa      	TST  R26
00121e f412      	BRPL _0x393
00121f 940e 1683 	CALL SUBOPT_0x6F
                 ; 0000 079B temp_SL*=K[2][1];
                 _0x393:
001221 940e 1424 	CALL SUBOPT_0x19
001223 940e 167e 	CALL SUBOPT_0x6E
001225 940e 1687 	CALL SUBOPT_0x70
                 ; 0000 079C temp_SL/=1000;
001227 940e 1695 	CALL SUBOPT_0x72
                 ; 0000 079D Ui=(unsigned)temp_SL;
001229 93e0 02bc 	STS  _Ui,R30
00122b 93f0 02bd 	STS  _Ui+1,R31
                 ; 0000 079E 
                 ; 0000 079F //Ui=K[2][1];
                 ; 0000 07A0 
                 ; 0000 07A1 
                 ; 0000 07A2 temp_SL=adc_buff_[2];
                +
00122d 91e0 02b0+LDS R30 , _adc_buff_ + ( 4 )
00122f 91f0 02b1+LDS R31 , _adc_buff_ + ( 4 ) + 1
                 	__GETW1MN _adc_buff_,4
001231 940e 1679 	CALL SUBOPT_0x6D
                 ; 0000 07A3 //temp_SL-=K[2,0];
                 ; 0000 07A4 if(temp_SL<0) temp_SL=0;
001233 81ab      	LDD  R26,Y+3
001234 23aa      	TST  R26
001235 f412      	BRPL _0x394
001236 940e 1683 	CALL SUBOPT_0x6F
                 ; 0000 07A5 temp_SL*=K[1][1];
                 _0x394:
001238 940e 141f 	CALL SUBOPT_0x18
00123a 940e 167e 	CALL SUBOPT_0x6E
00123c 940e 1687 	CALL SUBOPT_0x70
                 ; 0000 07A6 temp_SL/=1000;
00123e 940e 1695 	CALL SUBOPT_0x72
                 ; 0000 07A7 Un=(unsigned)temp_SL;
001240 93e0 02ba 	STS  _Un,R30
001242 93f0 02bb 	STS  _Un+1,R31
                 ; 0000 07A8 //Un=K[1][1];
                 ; 0000 07A9 
                 ; 0000 07AA temp_SL=adc_buff_[3];
                +
001244 91e0 02b2+LDS R30 , _adc_buff_ + ( 6 )
001246 91f0 02b3+LDS R31 , _adc_buff_ + ( 6 ) + 1
                 	__GETW1MN _adc_buff_,6
001248 940e 1679 	CALL SUBOPT_0x6D
                 ; 0000 07AB temp_SL*=K[3][1];
00124a 940e 1429 	CALL SUBOPT_0x1A
00124c 940e 167e 	CALL SUBOPT_0x6E
00124e 940e 1687 	CALL SUBOPT_0x70
                 ; 0000 07AC temp_SL/=1326;
                +
001250 e2ee     +LDI R30 , LOW ( 0x52E )
001251 e0f5     +LDI R31 , HIGH ( 0x52E )
001252 e060     +LDI R22 , BYTE3 ( 0x52E )
001253 e070     +LDI R23 , BYTE4 ( 0x52E )
                 	__GETD1N 0x52E
001254 940e 168e 	CALL SUBOPT_0x71
                 ; 0000 07AD T=(signed)(temp_SL-273);
001256 51e1      	SUBI R30,LOW(273)
001257 40f1      	SBCI R31,HIGH(273)
001258 93e0 02c0 	STS  _T,R30
00125a 93f0 02c1 	STS  _T+1,R31
                 ; 0000 07AE //T=TZAS;
                 ; 0000 07AF if(T<-125)Ttr=-125;
00125c 940e 14e4 	CALL SUBOPT_0x36
00125e 38a3      	CPI  R26,LOW(0xFF83)
00125f efef      	LDI  R30,HIGH(0xFF83)
001260 07be      	CPC  R27,R30
001261 f414      	BRGE _0x395
001262 e8e3      	LDI  R30,LOW(131)
001263 c00a      	RJMP _0x401
                 ; 0000 07B0 else if(T>125)Ttr=125;
                 _0x395:
001264 940e 14e4 	CALL SUBOPT_0x36
001266 37ae      	CPI  R26,LOW(0x7E)
001267 e0e0      	LDI  R30,HIGH(0x7E)
001268 07be      	CPC  R27,R30
001269 f014      	BRLT _0x397
00126a e7ed      	LDI  R30,LOW(125)
00126b c002      	RJMP _0x401
                 ; 0000 07B1 else Ttr=(signed char)T;
                 _0x397:
00126c 91e0 02c0 	LDS  R30,_T
                 _0x401:
00126e 93e0 02c2 	STS  _Ttr,R30
                 ; 0000 07B2 Udb=flags;
001270 91e0 02c3 	LDS  R30,_flags
001272 e0f0      	LDI  R31,0
001273 93e0 02be 	STS  _Udb,R30
001275 93f0 02bf 	STS  _Udb+1,R31
                 ; 0000 07B3 
                 ; 0000 07B4 
                 ; 0000 07B5 
                 ; 0000 07B6 }
001277 9624      	ADIW R28,4
001278 9508      	RET
                 ; .FEND
                 ;
                 ;//***********************************************
                 ;//***********************************************
                 ;//***********************************************
                 ;//***********************************************
                 ;interrupt [TIM0_OVF] void timer0_ovf_isr(void)
                 ; 0000 07BD {
                 _timer0_ovf_isr:
                 ; .FSTART _timer0_ovf_isr
001279 920a      	ST   -Y,R0
00127a 921a      	ST   -Y,R1
00127b 92fa      	ST   -Y,R15
00127c 936a      	ST   -Y,R22
00127d 937a      	ST   -Y,R23
00127e 938a      	ST   -Y,R24
00127f 939a      	ST   -Y,R25
001280 93aa      	ST   -Y,R26
001281 93ba      	ST   -Y,R27
001282 93ea      	ST   -Y,R30
001283 93fa      	ST   -Y,R31
001284 b7ef      	IN   R30,SREG
001285 93ea      	ST   -Y,R30
                 ; 0000 07BE //DDRD.0=1;
                 ; 0000 07BF //PORTD.0=1;
                 ; 0000 07C0 
                 ; 0000 07C1 //PORTD.1=0;
                 ; 0000 07C2 
                 ; 0000 07C3 t0_init();
001286 940e 069c 	CALL _t0_init
                 ; 0000 07C4 
                 ; 0000 07C5 can_hndl1();
001288 940e 01f9 	CALL _can_hndl1
                 ; 0000 07C6 
                 ; 0000 07C7 if(++t0_cnt4>=10)
00128a 94b3      	INC  R11
00128b e0ea      	LDI  R30,LOW(10)
00128c 16be      	CP   R11,R30
00128d f0e8      	BRLO _0x399
                 ; 0000 07C8 	{
                 ; 0000 07C9 	t0_cnt4=0;
00128e 24bb      	CLR  R11
                 ; 0000 07CA //	b100Hz=1;
                 ; 0000 07CB 
                 ; 0000 07CC 
                 ; 0000 07CD if(++t0_cnt0>=10)
00128f 9473      	INC  R7
001290 167e      	CP   R7,R30
001291 f010      	BRLO _0x39A
                 ; 0000 07CE 	{
                 ; 0000 07CF 	t0_cnt0=0;
001292 2477      	CLR  R7
                 ; 0000 07D0 	b10Hz=1;
001293 9af3      	SBI  0x1E,3
                 ; 0000 07D1 	}
                 ; 0000 07D2 if(++t0_cnt3>=3)
                 _0x39A:
001294 9483      	INC  R8
001295 e0e3      	LDI  R30,LOW(3)
001296 168e      	CP   R8,R30
001297 f010      	BRLO _0x39D
                 ; 0000 07D3 	{
                 ; 0000 07D4 	t0_cnt3=0;
001298 2488      	CLR  R8
                 ; 0000 07D5 	b33Hz=1;
001299 9af2      	SBI  0x1E,2
                 ; 0000 07D6 	}
                 ; 0000 07D7 if(++t0_cnt1>=20)
                 _0x39D:
00129a 9463      	INC  R6
00129b e1e4      	LDI  R30,LOW(20)
00129c 166e      	CP   R6,R30
00129d f038      	BRLO _0x3A0
                 ; 0000 07D8 	{
                 ; 0000 07D9 	t0_cnt1=0;
00129e 2466      	CLR  R6
                 ; 0000 07DA 	b5Hz=1;
00129f 9af4      	SBI  0x1E,4
                 ; 0000 07DB      bFl_=!bFl_;
0012a0 9bf6      	SBIS 0x1E,6
0012a1 c002      	RJMP _0x3A3
0012a2 98f6      	CBI  0x1E,6
0012a3 c001      	RJMP _0x3A4
                 _0x3A3:
0012a4 9af6      	SBI  0x1E,6
                 _0x3A4:
                 ; 0000 07DC 	}
                 ; 0000 07DD if(++t0_cnt2>=100)
                 _0x3A0:
0012a5 9493      	INC  R9
0012a6 e6e4      	LDI  R30,LOW(100)
0012a7 169e      	CP   R9,R30
0012a8 f010      	BRLO _0x3A5
                 ; 0000 07DE 	{
                 ; 0000 07DF 	t0_cnt2=0;
0012a9 2499      	CLR  R9
                 ; 0000 07E0 	b1Hz=1;
0012aa 9af5      	SBI  0x1E,5
                 ; 0000 07E1 	}
                 ; 0000 07E2 }
                 _0x3A5:
                 ; 0000 07E3 }
                 _0x399:
0012ab 91e9      	LD   R30,Y+
0012ac bfef      	OUT  SREG,R30
0012ad 91f9      	LD   R31,Y+
0012ae 91e9      	LD   R30,Y+
0012af 91b9      	LD   R27,Y+
0012b0 91a9      	LD   R26,Y+
0012b1 9199      	LD   R25,Y+
0012b2 9189      	LD   R24,Y+
0012b3 9179      	LD   R23,Y+
0012b4 9169      	LD   R22,Y+
0012b5 90f9      	LD   R15,Y+
0012b6 9019      	LD   R1,Y+
0012b7 9009      	LD   R0,Y+
0012b8 9518      	RETI
                 ; .FEND
                 ;
                 ;
                 ;//===============================================
                 ;//===============================================
                 ;//===============================================
                 ;//===============================================
                 ;void main(void)
                 ; 0000 07EB {
                 _main:
                 ; .FSTART _main
                 ; 0000 07EC //DDRD.0=1;
                 ; 0000 07ED //PORTD.0=0;
                 ; 0000 07EE //DDRD.1=1;
                 ; 0000 07EF //PORTD.1=1;
                 ; 0000 07F0 
                 ; 0000 07F1 //while (1)
                 ; 0000 07F2 	//{
                 ; 0000 07F3     //}
                 ; 0000 07F4 
                 ; 0000 07F5 ///DDRD.2=1;
                 ; 0000 07F6 ///PORTD.2=1;
                 ; 0000 07F7 
                 ; 0000 07F8 ///DDRB.0=1;
                 ; 0000 07F9 ///PORTB.0=0;
                 ; 0000 07FA 
                 ; 0000 07FB 	PORTB.2=1;
0012b9 9a2a      	SBI  0x5,2
                 ; 0000 07FC 	DDRB.2=1;
0012ba 9a22      	SBI  0x4,2
                 ; 0000 07FD DDRB|=0b00110110;
0012bb b1e4      	IN   R30,0x4
0012bc 63e6      	ORI  R30,LOW(0x36)
0012bd b9e4      	OUT  0x4,R30
                 ; 0000 07FE 
                 ; 0000 07FF 
                 ; 0000 0800 
                 ; 0000 0801 // Timer/Counter 1 initialization
                 ; 0000 0802 // Clock source: System Clock
                 ; 0000 0803 // Clock value: 8000.000 kHz
                 ; 0000 0804 // Mode: Fast PWM top=0x03FF
                 ; 0000 0805 // OC1A output: Non-Inverted PWM
                 ; 0000 0806 // OC1B output: Non-Inverted PWM
                 ; 0000 0807 // Noise Canceler: Off
                 ; 0000 0808 // Input Capture on Falling Edge
                 ; 0000 0809 // Timer Period: 0.128 ms
                 ; 0000 080A // Output Pulse(s):
                 ; 0000 080B // OC1A Period: 0.128 ms Width: 0.032031 ms
                 ; 0000 080C // OC1B Period: 0.128 ms Width: 0.032031 ms
                 ; 0000 080D // Timer1 Overflow Interrupt: Off
                 ; 0000 080E // Input Capture Interrupt: Off
                 ; 0000 080F // Compare A Match Interrupt: Off
                 ; 0000 0810 // Compare B Match Interrupt: Off
                 ; 0000 0811 TCCR1A=(1<<COM1A1) | (0<<COM1A0) | (1<<COM1B1) | (0<<COM1B0) | (1<<WGM11) | (1<<WGM10);
0012be eae3      	LDI  R30,LOW(163)
0012bf 93e0 0080 	STS  128,R30
                 ; 0000 0812 TCCR1B=(0<<ICNC1) | (0<<ICES1) | (0<<WGM13) | (1<<WGM12) | (0<<CS12) | (0<<CS11) | (1<<CS10);
0012c1 e0e9      	LDI  R30,LOW(9)
0012c2 93e0 0081 	STS  129,R30
                 ; 0000 0813 
                 ; 0000 0814 TCNT1H=0x00;
0012c4 e0e0      	LDI  R30,LOW(0)
0012c5 93e0 0085 	STS  133,R30
                 ; 0000 0815 TCNT1L=0x00;
0012c7 93e0 0084 	STS  132,R30
                 ; 0000 0816 ICR1H=0x00;
0012c9 93e0 0087 	STS  135,R30
                 ; 0000 0817 ICR1L=0x00;
0012cb 93e0 0086 	STS  134,R30
                 ; 0000 0818 OCR1AH=0x00;
0012cd 93e0 0089 	STS  137,R30
                 ; 0000 0819 OCR1AL=0x00;
0012cf 93e0 0088 	STS  136,R30
                 ; 0000 081A OCR1BH=0x00;
0012d1 93e0 008b 	STS  139,R30
                 ; 0000 081B OCR1BL=0x00;
0012d3 93e0 008a 	STS  138,R30
                 ; 0000 081C 
                 ; 0000 081D DDRB.1=1;
0012d5 9a21      	SBI  0x4,1
                 ; 0000 081E DDRB.2=1;
0012d6 9a22      	SBI  0x4,2
                 ; 0000 081F 
                 ; 0000 0820 
                 ; 0000 0821 // Timer/Counter 2 initialization
                 ; 0000 0822 // Clock source: System Clock
                 ; 0000 0823 // Clock value: 8000.000 kHz
                 ; 0000 0824 // Mode: Fast PWM top=0xFF
                 ; 0000 0825 // OC2A output: Disconnected
                 ; 0000 0826 // OC2B output: Non-Inverted PWM
                 ; 0000 0827 // Timer Period: 0.032 ms
                 ; 0000 0828 // Output Pulse(s):
                 ; 0000 0829 // OC2B Period: 0.032 ms Width: 6.0235 us
                 ; 0000 082A ASSR=(0<<EXCLK) | (0<<AS2);
0012d7 93e0 00b6 	STS  182,R30
                 ; 0000 082B TCCR2A=(0<<COM2A1) | (0<<COM2A0) | (1<<COM2B1) | (0<<COM2B0) | (1<<WGM21) | (1<<WGM20);
0012d9 e2e3      	LDI  R30,LOW(35)
0012da 93e0 00b0 	STS  176,R30
                 ; 0000 082C TCCR2B=(0<<WGM22) | (0<<CS22) | (0<<CS21) | (1<<CS20);
0012dc e0e1      	LDI  R30,LOW(1)
0012dd 93e0 00b1 	STS  177,R30
                 ; 0000 082D TCNT2=0x00;
0012df e0e0      	LDI  R30,LOW(0)
0012e0 93e0 00b2 	STS  178,R30
                 ; 0000 082E OCR2A=0x00;
0012e2 93e0 00b3 	STS  179,R30
                 ; 0000 082F OCR2B=0x30;
0012e4 e3e0      	LDI  R30,LOW(48)
0012e5 93e0 00b4 	STS  180,R30
                 ; 0000 0830 
                 ; 0000 0831 DDRD.3=1;
0012e7 9a53      	SBI  0xA,3
                 ; 0000 0832 
                 ; 0000 0833 /*
                 ; 0000 0834 
                 ; 0000 0835 TCCR1A=0x83;
                 ; 0000 0836 TCCR1B=0x09;
                 ; 0000 0837 TCNT1H=0x00;
                 ; 0000 0838 TCNT1L=0x00;
                 ; 0000 0839 OCR1AH=0x00;
                 ; 0000 083A OCR1AL=0x00;
                 ; 0000 083B OCR1BH=0x00;
                 ; 0000 083C OCR1BL=0x00;  */
                 ; 0000 083D 
                 ; 0000 083E SPCR=0x5D;
0012e8 e5ed      	LDI  R30,LOW(93)
0012e9 bdec      	OUT  0x2C,R30
                 ; 0000 083F SPSR=0x00;
0012ea e0e0      	LDI  R30,LOW(0)
0012eb bded      	OUT  0x2D,R30
                 ; 0000 0840 /*delay_ms(100);
                 ; 0000 0841 delay_ms(100);
                 ; 0000 0842 delay_ms(100);
                 ; 0000 0843 delay_ms(100);
                 ; 0000 0844 delay_ms(100);
                 ; 0000 0845 delay_ms(100);
                 ; 0000 0846 delay_ms(100);
                 ; 0000 0847 delay_ms(100);
                 ; 0000 0848 delay_ms(100);
                 ; 0000 0849 delay_ms(100);*/
                 ; 0000 084A ///delay_ms(100);
                 ; 0000 084B ///delay_ms(100);
                 ; 0000 084C ///delay_ms(100);
                 ; 0000 084D ///delay_ms(100);
                 ; 0000 084E ///delay_ms(100);
                 ; 0000 084F ///adr_hndl();
                 ; 0000 0850 
                 ; 0000 0851 ///if(adr==100)
                 ; 0000 0852 ///	{
                 ; 0000 0853 ///	adr_hndl();
                 ; 0000 0854 ///	delay_ms(100);
                 ; 0000 0855 ///	}
                 ; 0000 0856 ///if(adr==100)
                 ; 0000 0857 ///	{
                 ; 0000 0858 ///	adr_hndl();
                 ; 0000 0859 ///	delay_ms(100);
                 ; 0000 085A ///	}
                 ; 0000 085B //adr_drv_v3();
                 ; 0000 085C //AVT_MODE=1;
                 ; 0000 085D adr_hndl_100004();
0012ec 940e 07eb 	CALL _adr_hndl_100004
                 ; 0000 085E t0_init();
0012ee 940e 069c 	CALL _t0_init
                 ; 0000 085F 
                 ; 0000 0860 
                 ; 0000 0861 
                 ; 0000 0862 link_cnt=0;
0012f0 e0e0      	LDI  R30,LOW(0)
0012f1 93e0 02db 	STS  _link_cnt,R30
0012f3 93e0 02dc 	STS  _link_cnt+1,R30
                 ; 0000 0863 if(ee_AVT_MODE!=0x55)link=ON;
0012f5 940e 144a 	CALL SUBOPT_0x21
0012f7 35e5      	CPI  R30,LOW(0x55)
0012f8 e0a0      	LDI  R26,HIGH(0x55)
0012f9 07fa      	CPC  R31,R26
0012fa f019      	BREQ _0x3B2
0012fb e5e5      	LDI  R30,LOW(85)
0012fc 93e0 02da 	STS  _link,R30
                 ; 0000 0864 /*
                 ; 0000 0865 Umax=1000;
                 ; 0000 0866 dU=100;
                 ; 0000 0867 tmax=60;
                 ; 0000 0868 tsign=50;
                 ; 0000 0869 */
                 ; 0000 086A main_cnt1=0;
                 _0x3B2:
0012fe e0e0      	LDI  R30,LOW(0)
0012ff 93e0 02ed 	STS  _main_cnt1,R30
001301 93e0 02ee 	STS  _main_cnt1+1,R30
                 ; 0000 086B //_x_ee_=20;
                 ; 0000 086C _x_=_x_ee_;
001303 e1a0      	LDI  R26,LOW(__x_ee_)
001304 e0b0      	LDI  R27,HIGH(__x_ee_)
001305 940e 1785 	CALL __EEPROMRDW
001307 93e0 02ef 	STS  __x_,R30
001309 93f0 02f0 	STS  __x_+1,R31
                 ; 0000 086D 
                 ; 0000 086E if((_x_>XMAX)||(_x_<-XMAX))_x_=0;
00130b 91a0 02ef 	LDS  R26,__x_
00130d 91b0 02f0 	LDS  R27,__x_+1
00130f 975a      	SBIW R26,26
001310 f444      	BRGE _0x3B4
001311 91a0 02ef 	LDS  R26,__x_
001313 91b0 02f0 	LDS  R27,__x_+1
001315 3ea7      	CPI  R26,LOW(0xFFE7)
001316 efef      	LDI  R30,HIGH(0xFFE7)
001317 07be      	CPC  R27,R30
001318 f42c      	BRGE _0x3B3
                 _0x3B4:
001319 e0e0      	LDI  R30,LOW(0)
00131a 93e0 02ef 	STS  __x_,R30
00131c 93e0 02f0 	STS  __x_+1,R30
                 ; 0000 086F 
                 ; 0000 0870 if(!((TZAS>=0)&&(TZAS<=3))) TZAS=3;
                 _0x3B3:
00131e e1a2      	LDI  R26,LOW(_TZAS)
00131f e0b0      	LDI  R27,HIGH(_TZAS)
001320 940e 1789 	CALL __EEPROMRDB
001322 30e0      	CPI  R30,0
001323 f010      	BRLO _0x3B7
001324 30e4      	CPI  R30,LOW(0x4)
001325 f028      	BRLO _0x3B6
                 _0x3B7:
001326 e1a2      	LDI  R26,LOW(_TZAS)
001327 e0b0      	LDI  R27,HIGH(_TZAS)
001328 e0e3      	LDI  R30,LOW(3)
001329 940e 179d 	CALL __EEPROMWRB
                 ; 0000 0871 
                 ; 0000 0872 #asm("sei")
                 _0x3B6:
00132b 9478      	sei
                 ; 0000 0873 //granee(&K[0][1],420,1100);
                 ; 0000 0874 
                 ; 0000 0875 #ifdef _220_
                 ; 0000 0876 //granee(&K[1][1],4500,5500);
                 ; 0000 0877 //granee(&K[2][1],4500,5500);
                 ; 0000 0878 #else
                 ; 0000 0879 //granee(&K[1][1],1360,1700);
                 ; 0000 087A //granee(&K[2][1],1360,1700);
                 ; 0000 087B #endif
                 ; 0000 087C 
                 ; 0000 087D 
                 ; 0000 087E //K[1][1]=123;
                 ; 0000 087F //K[2][1]=456;
                 ; 0000 0880 //granee(&K[1,1],1510,1850);
                 ; 0000 0881 //granee(&K[2,1],1510,1850);
                 ; 0000 0882 ///DDRD.2=1;
                 ; 0000 0883 ///PORTD.2=0;
                 ; 0000 0884 ///delay_ms(100);
                 ; 0000 0885 ///PORTD.2=1;
                 ; 0000 0886 can_init1();
00132c 940e 0178 	CALL _can_init1
                 ; 0000 0887 
                 ; 0000 0888 //DDRD.1=1;
                 ; 0000 0889 //PORTD.1=0;
                 ; 0000 088A DDRD.0=1;
00132e 9a50      	SBI  0xA,0
                 ; 0000 088B 
                 ; 0000 088C //ee_AVT_MODE=0x55;
                 ; 0000 088D 		pwm_u=0x00;
00132f 940e 1629 	CALL SUBOPT_0x63
                 ; 0000 088E 		pwm_i=0x00;
                 ; 0000 088F 		bBL=1;
                 ; 0000 0890 
                 ; 0000 0891 
                 ; 0000 0892 while (1)
                 _0x3BD:
                 ; 0000 0893 	{
                 ; 0000 0894 
                 ; 0000 0895     //delay_ms(100);
                 ; 0000 0896 	if(bIN1)
001331 91e0 0377 	LDS  R30,_bIN1
001333 30e0      	CPI  R30,0
001334 f029      	BREQ _0x3C0
                 ; 0000 0897 		{
                 ; 0000 0898 		bIN1=0;
001335 e0e0      	LDI  R30,LOW(0)
001336 93e0 0377 	STS  _bIN1,R30
                 ; 0000 0899 
                 ; 0000 089A 		can_in_an1();
001338 940e 026b 	CALL _can_in_an1
                 ; 0000 089B 		}
                 ; 0000 089C 
                 ; 0000 089D /*	if(b100Hz)
                 ; 0000 089E 		{
                 ; 0000 089F 		b100Hz=0;
                 ; 0000 08A0 		}*/
                 ; 0000 08A1 	if(b33Hz)
                 _0x3C0:
00133a 9bf2      	SBIS 0x1E,2
00133b c002      	RJMP _0x3C1
                 ; 0000 08A2 		{
                 ; 0000 08A3 		b33Hz=0;
00133c 98f2      	CBI  0x1E,2
                 ; 0000 08A4 
                 ; 0000 08A5         adc_hndl();
00133d de28      	RCALL _adc_hndl
                 ; 0000 08A6 		}
                 ; 0000 08A7 	if(b10Hz)
                 _0x3C1:
00133e 9bf3      	SBIS 0x1E,3
00133f c00c      	RJMP _0x3C4
                 ; 0000 08A8 		{
                 ; 0000 08A9 		b10Hz=0;
001340 98f3      	CBI  0x1E,3
                 ; 0000 08AA 
                 ; 0000 08AB 		matemat();
001341 deb0      	RCALL _matemat
                 ; 0000 08AC 		led_drv();
001342 940e 0770 	CALL _led_drv
                 ; 0000 08AD 	    link_drv();
001344 940e 08dc 	CALL _link_drv
                 ; 0000 08AE 	    pwr_hndl();		//вычисление воздействий на силу
001346 dbff      	RCALL _pwr_hndl
                 ; 0000 08AF 	    JP_drv();
001347 ddbf      	RCALL _JP_drv
                 ; 0000 08B0 	    flags_drv();
001348 940e 07b7 	CALL _flags_drv
                 ; 0000 08B1 		net_drv();
00134a 940e 0624 	CALL _net_drv
                 ; 0000 08B2 		}
                 ; 0000 08B3 	if(b5Hz)
                 _0x3C4:
00134c 9bf4      	SBIS 0x1E,4
00134d c005      	RJMP _0x3C7
                 ; 0000 08B4 		{
                 ; 0000 08B5 		b5Hz=0;
00134e 98f4      	CBI  0x1E,4
                 ; 0000 08B6 
                 ; 0000 08B7         pwr_drv();
00134f dd00      	RCALL _pwr_drv
                 ; 0000 08B8  		led_hndl();
001350 940e 0a5f 	CALL _led_hndl
                 ; 0000 08B9         vent_drv();
001352 d9c2      	RCALL _vent_drv
                 ; 0000 08BA 		}
                 ; 0000 08BB     if(b1Hz)
                 _0x3C7:
001353 9bf5      	SBIS 0x1E,5
001354 c02d      	RJMP _0x3CA
                 ; 0000 08BC 		{
                 ; 0000 08BD 		b1Hz=0;
001355 98f5      	CBI  0x1E,5
                 ; 0000 08BE 
                 ; 0000 08BF         temper_drv();			//вычисление аварий температуры
001356 940e 091a 	CALL _temper_drv
                 ; 0000 08C0 		u_drv();
001358 940e 09a1 	CALL _u_drv
                 ; 0000 08C1         x_drv();
00135a 940e 06ff 	CALL _x_drv
                 ; 0000 08C2 
                 ; 0000 08C3         if(main_cnt<1000)main_cnt++;
00135c 91a0 02f5 	LDS  R26,_main_cnt
00135e 91b0 02f6 	LDS  R27,_main_cnt+1
001360 3ea8      	CPI  R26,LOW(0x3E8)
001361 e0e3      	LDI  R30,HIGH(0x3E8)
001362 07be      	CPC  R27,R30
001363 f424      	BRGE _0x3CD
001364 efa5      	LDI  R26,LOW(_main_cnt)
001365 e0b2      	LDI  R27,HIGH(_main_cnt)
001366 940e 1489 	CALL SUBOPT_0x29
                 ; 0000 08C4   		if((link==OFF)||(jp_mode==jp3))apv_hndl();
                 _0x3CD:
001368 91a0 02da 	LDS  R26,_link
00136a 3aaa      	CPI  R26,LOW(0xAA)
00136b f021      	BREQ _0x3CF
00136c 91a0 02ec 	LDS  R26,_jp_mode
00136e 30a3      	CPI  R26,LOW(0x3)
00136f f411      	BRNE _0x3CE
                 _0x3CF:
001370 940e 087c 	CALL _apv_hndl
                 ; 0000 08C5 
                 ; 0000 08C6 		//Пересброс КАНа в случае зависания
                 ; 0000 08C7   		can_error_cnt++;
                 _0x3CE:
001372 91e0 030e 	LDS  R30,_can_error_cnt
001374 5fef      	SUBI R30,-LOW(1)
001375 93e0 030e 	STS  _can_error_cnt,R30
                 ; 0000 08C8   		if(can_error_cnt>=10)
001377 91a0 030e 	LDS  R26,_can_error_cnt
001379 30aa      	CPI  R26,LOW(0xA)
00137a f028      	BRLO _0x3D1
                 ; 0000 08C9   			{
                 ; 0000 08CA   			can_error_cnt=0;
00137b e0e0      	LDI  R30,LOW(0)
00137c 93e0 030e 	STS  _can_error_cnt,R30
                 ; 0000 08CB 			can_init1();;
00137e 940e 0178 	CALL _can_init1
                 ; 0000 08CC   			}
                 ; 0000 08CD 
                 ; 0000 08CE 		volum_u_main_drv();
                 _0x3D1:
001380 dafb      	RCALL _volum_u_main_drv
                 ; 0000 08CF 
                 ; 0000 08D0 		//pwm_stat++;
                 ; 0000 08D1 		//if(pwm_stat>=10)pwm_stat=0;
                 ; 0000 08D2         //adc_plazma_short++;
                 ; 0000 08D3 
                 ; 0000 08D4 		vent_resurs_hndl();
001381 da6e      	RCALL _vent_resurs_hndl
                 ; 0000 08D5         }
                 ; 0000 08D6      #asm("wdr")
                 _0x3CA:
001382 95a8      	wdr
                 ; 0000 08D7 	}
001383 cfad      	RJMP _0x3BD
                 ; 0000 08D8 }
                 _0x3D2:
001384 cfff      	RJMP _0x3D2
                 ; .FEND
                 ;#include "curr_version.h"
                 ;
                 ;const short HARDVARE_VERSION = 25;
                 
                 	.DSEG
                 ;const short SOFT_VERSION = 10;
                 ;const short BUILD = 7;
                 ;const short BUILD_YEAR = 2024;
                 ;const short BUILD_MONTH = 1;
                 ;const short BUILD_DAY = 18;
                 	#ifndef __SLEEP_DEFINED__
                 	#endif
                 
                 	.CSEG
                 
                 	.CSEG
                 	#ifndef __SLEEP_DEFINED__
                 	#endif
                 
                 	.CSEG
                 _spi:
                 ; .FSTART _spi
001385 93aa      	ST   -Y,R26
001386 81e8      	LD   R30,Y
001387 bdee      	OUT  0x2E,R30
                 _0x2040003:
001388 b5ed      	IN   R30,0x2D
001389 ffe7      	SBRS R30,7
00138a cffd      	RJMP _0x2040003
00138b b5ee      	IN   R30,0x2E
00138c 9621      	ADIW R28,1
00138d 9508      	RET
                 ; .FEND
                 
                 	.CSEG
                 
                 	.CSEG
                 
                 	.CSEG
                 
                 	.DSEG
                 
                 	.CSEG
                 
                 	.DSEG
                 _HARDVARE_VERSION:
000200           	.BYTE 0x2
                 _SOFT_VERSION:
000202           	.BYTE 0x2
                 _BUILD:
000204           	.BYTE 0x2
                 _BUILD_YEAR:
000206           	.BYTE 0x2
                 _BUILD_MONTH:
000208           	.BYTE 0x2
                 _BUILD_DAY:
00020a           	.BYTE 0x2
                 _adc_buff:
00020c           	.BYTE 0xA0
                 _adc_buff_:
0002ac           	.BYTE 0xA
                 _adc_cnt:
0002b6           	.BYTE 0x1
                 _adc_ch:
0002b7           	.BYTE 0x1
                 
                 	.ESEG
                 _K:
000000           	.BYTE 0x10
                 
                 	.DSEG
                 _I:
0002b8           	.BYTE 0x2
                 _Un:
0002ba           	.BYTE 0x2
                 _Ui:
0002bc           	.BYTE 0x2
                 _Udb:
0002be           	.BYTE 0x2
                 _T:
0002c0           	.BYTE 0x2
                 _Ttr:
0002c2           	.BYTE 0x1
                 _flags:
0002c3           	.BYTE 0x1
                 _flags_tu:
0002c4           	.BYTE 0x1
                 _vol_u_temp:
0002c5           	.BYTE 0x2
                 _vol_i_temp:
0002c7           	.BYTE 0x2
                 _led_red:
0002c9           	.BYTE 0x4
                 _led_green:
0002cd           	.BYTE 0x4
                 _led_drv_cnt:
0002d1           	.BYTE 0x1
                 _led_red_buff:
0002d2           	.BYTE 0x4
                 _led_green_buff:
0002d6           	.BYTE 0x4
                 _link:
0002da           	.BYTE 0x1
                 _link_cnt:
0002db           	.BYTE 0x2
                 _tsign_cnt:
0002dd           	.BYTE 0x2
                 _tmax_cnt:
0002df           	.BYTE 0x2
                 _pwm_u:
0002e1           	.BYTE 0x2
                 _pwm_i:
0002e3           	.BYTE 0x2
                 _umax_cnt:
0002e5           	.BYTE 0x2
                 _umin_cnt:
0002e7           	.BYTE 0x2
                 _flags_tu_cnt_off:
0002e9           	.BYTE 0x1
                 _cnt_JP0:
0002ea           	.BYTE 0x1
                 _cnt_JP1:
0002eb           	.BYTE 0x1
                 _jp_mode:
0002ec           	.BYTE 0x1
                 _main_cnt1:
0002ed           	.BYTE 0x2
                 __x_:
0002ef           	.BYTE 0x2
                 __x__:
0002f1           	.BYTE 0x2
                 __x_cnt:
0002f3           	.BYTE 0x2
                 
                 	.ESEG
                 __x_ee_:
000010           	.BYTE 0x2
                 
                 	.DSEG
                 _main_cnt:
0002f5           	.BYTE 0x2
                 
                 	.ESEG
                 _TZAS:
000012           	.BYTE 0x1
                 
                 	.DSEG
                 _plazma_int:
0002f7           	.BYTE 0x6
                 _adc_ch_2_max:
0002fd           	.BYTE 0x2
                 _adc_ch_2_min:
0002ff           	.BYTE 0x2
                 _adc_ch_2_delta:
000301           	.BYTE 0x1
                 _cnt_adc_ch_2_delta:
000302           	.BYTE 0x1
                 _apv_cnt:
000303           	.BYTE 0x3
                 _apv_cnt_:
000306           	.BYTE 0x2
                 _bAPV:
000308           	.BYTE 0x1
                 _cnt_apv_off:
000309           	.BYTE 0x1
                 
                 	.ESEG
                 _res_fl:
000013           	.BYTE 0x1
                 _res_fl_:
000014           	.BYTE 0x1
                 
                 	.DSEG
                 _bRES:
00030a           	.BYTE 0x1
                 _bRES_:
00030b           	.BYTE 0x1
                 _res_fl_cnt:
00030c           	.BYTE 0x1
                 _off_bp_cnt:
00030d           	.BYTE 0x1
                 _can_error_cnt:
00030e           	.BYTE 0x1
                 _adr:
00030f           	.BYTE 0x3
                 _adress:
000312           	.BYTE 0x1
                 _adress_error:
000313           	.BYTE 0x1
                 _bps_class:
000314           	.BYTE 0x1
                 
                 	.ESEG
                 _ee_TZAS:
000015           	.BYTE 0x2
                 _ee_Umax:
000017           	.BYTE 0x2
                 _ee_dU:
000019           	.BYTE 0x2
                 _ee_tmax:
00001b           	.BYTE 0x2
                 _ee_tsign:
00001d           	.BYTE 0x2
                 _ee_U_AVT:
00001f           	.BYTE 0x2
                 _ee_AVT_MODE:
000021           	.BYTE 0x2
                 _ee_DEVICE:
000023           	.BYTE 0x2
                 _ee_IMAXVENT:
000025           	.BYTE 0x2
                 
                 	.DSEG
                 _vent_pwm:
000315           	.BYTE 0x2
                 _bVENT_BLOCK:
000317           	.BYTE 0x1
                 _cnt_net_drv:
000318           	.BYTE 0x1
                 
                 	.ESEG
                 _vent_resurs:
000027           	.BYTE 0x2
                 
                 	.DSEG
                 _vent_resurs_sec_cnt:
000319           	.BYTE 0x2
                 _vent_resurs_buff:
00031b           	.BYTE 0x4
                 _vent_resurs_tx_cnt:
00031f           	.BYTE 0x1
                 
                 	.ESEG
                 _UU_AVT:
000029           	.BYTE 0x2
                 
                 	.DSEG
                 _volum_u_main_:
000320           	.BYTE 0x2
                 _x:
000322           	.BYTE 0xC
                 _i_main:
00032e           	.BYTE 0xC
                 _i_main_flag:
00033a           	.BYTE 0x6
                 _i_main_avg:
000340           	.BYTE 0x2
                 _i_main_num_of_bps:
000342           	.BYTE 0x1
                 _i_main_sigma:
000343           	.BYTE 0x2
                 _i_main_bps_cnt:
000345           	.BYTE 0x6
                 _vol_i_temp_avar:
00034b           	.BYTE 0x2
                 _can_st1:
00034d           	.BYTE 0x1
                 _can_st_old1:
00034e           	.BYTE 0x1
                 _RXBUFF1:
00034f           	.BYTE 0x28
                 _bIN1:
000377           	.BYTE 0x1
                 _can_out_buff:
000378           	.BYTE 0x20
                 _can_buff_wr_ptr:
000398           	.BYTE 0x1
                 _can_buff_rd_ptr:
000399           	.BYTE 0x1
                 _rotor_int:
00039a           	.BYTE 0x2
                 _flags_old_S000001B000:
00039c           	.BYTE 0x1
                 __seed_G105:
00039d           	.BYTE 0x4
                 
                 	.CSEG
                 ;OPTIMIZER ADDED SUBROUTINE, CALLED 6 TIMES, CODE SIZE REDUCTION:17 WORDS
                 SUBOPT_0x0:
00138e b1e4      	IN   R30,0x4
00138f 62ec      	ORI  R30,LOW(0x2C)
001390 b9e4      	OUT  0x4,R30
001391 9824      	CBI  0x4,4
001392 9a20      	SBI  0x4,0
001393 9828      	CBI  0x5,0
001394 9508      	RET
                 
                 ;OPTIMIZER ADDED SUBROUTINE, CALLED 3 TIMES, CODE SIZE REDUCTION:3 WORDS
                 SUBOPT_0x1:
001395 940e 1385 	CALL _spi
001397 81a9      	LDD  R26,Y+1
001398 940c 1385 	JMP  _spi
                 
                 ;OPTIMIZER ADDED SUBROUTINE, CALLED 7 TIMES, CODE SIZE REDUCTION:15 WORDS
                 SUBOPT_0x2:
00139a 91e0 0398 	LDS  R30,_can_buff_wr_ptr
00139c e0f0      	LDI  R31,0
00139d 0fea      	ADD  R30,R26
00139e 1ffb      	ADC  R31,R27
00139f 9508      	RET
                 
                 ;OPTIMIZER ADDED SUBROUTINE, CALLED 4 TIMES, CODE SIZE REDUCTION:3 WORDS
                 SUBOPT_0x3:
0013a0 e0aa      	LDI  R26,LOW(10)
0013a1 e0b0      	LDI  R27,0
0013a2 940c 169a 	JMP  _delay_ms
                 
                 ;OPTIMIZER ADDED SUBROUTINE, CALLED 7 TIMES, CODE SIZE REDUCTION:9 WORDS
                 SUBOPT_0x4:
0013a4 93ea      	ST   -Y,R30
0013a5 efaf      	LDI  R26,LOW(255)
0013a6 940c 00ed 	JMP  _spi_write
                 
                 ;OPTIMIZER ADDED SUBROUTINE, CALLED 4 TIMES, CODE SIZE REDUCTION:3 WORDS
                 SUBOPT_0x5:
0013a8 93ea      	ST   -Y,R30
0013a9 eca0      	LDI  R26,LOW(192)
0013aa 940c 00ed 	JMP  _spi_write
                 
                 ;OPTIMIZER ADDED SUBROUTINE, CALLED 7 TIMES, CODE SIZE REDUCTION:9 WORDS
                 SUBOPT_0x6:
0013ac 93ea      	ST   -Y,R30
0013ad e0a0      	LDI  R26,LOW(0)
0013ae 940c 00ed 	JMP  _spi_write
                 
                 ;OPTIMIZER ADDED SUBROUTINE, CALLED 3 TIMES, CODE SIZE REDUCTION:1 WORDS
                 SUBOPT_0x7:
0013b0 93ea      	ST   -Y,R30
0013b1 e3a1      	LDI  R26,LOW(49)
0013b2 940c 00ed 	JMP  _spi_write
                 
                 ;OPTIMIZER ADDED SUBROUTINE, CALLED 5 TIMES, CODE SIZE REDUCTION:9 WORDS
                 SUBOPT_0x8:
0013b4 91e0 0312 	LDS  R30,_adress
0013b6 91a0 034f 	LDS  R26,_RXBUFF1
0013b8 17ea      	CP   R30,R26
0013b9 9508      	RET
                 
                 ;OPTIMIZER ADDED SUBROUTINE, CALLED 5 TIMES, CODE SIZE REDUCTION:9 WORDS
                 SUBOPT_0x9:
                +
0013ba 91a0 0350+LDS R26 , _RXBUFF1 + ( 1 )
                 	__GETB2MN _RXBUFF1,1
0013bc 91e0 0312 	LDS  R30,_adress
0013be 17ea      	CP   R30,R26
0013bf 9508      	RET
                 
                 ;OPTIMIZER ADDED SUBROUTINE, CALLED 2 TIMES, CODE SIZE REDUCTION:2 WORDS
                 SUBOPT_0xA:
                +
0013c0 91a0 0354+LDS R26 , _RXBUFF1 + ( 5 )
                 	__GETB2MN _RXBUFF1,5
0013c2 e0b0      	LDI  R27,0
0013c3 e0e0      	LDI  R30,LOW(256)
0013c4 e0f1      	LDI  R31,HIGH(256)
0013c5 940e 16d1 	CALL __MULW12U
0013c7 9508      	RET
                 
                 ;OPTIMIZER ADDED SUBROUTINE, CALLED 8 TIMES, CODE SIZE REDUCTION:18 WORDS
                 SUBOPT_0xB:
0013c8 e0b0      	LDI  R27,0
0013c9 e0e0      	LDI  R30,LOW(256)
0013ca e0f1      	LDI  R31,HIGH(256)
0013cb 940e 16d1 	CALL __MULW12U
0013cd 9508      	RET
                 
                 ;OPTIMIZER ADDED SUBROUTINE, CALLED 2 TIMES, CODE SIZE REDUCTION:2 WORDS
                 SUBOPT_0xC:
0013ce 940e 012f 	CALL _can_transmit1
0013d0 91e0 0312 	LDS  R30,_adress
0013d2 93ea      	ST   -Y,R30
0013d3 edeb      	LDI  R30,LOW(219)
0013d4 93ea      	ST   -Y,R30
0013d5 9508      	RET
                 
                 ;OPTIMIZER ADDED SUBROUTINE, CALLED 2 TIMES, CODE SIZE REDUCTION:9 WORDS
                 SUBOPT_0xD:
0013d6 93ea      	ST   -Y,R30
0013d7 91e0 031f 	LDS  R30,_vent_resurs_tx_cnt
0013d9 e0f0      	LDI  R31,0
0013da 5ee5      	SUBI R30,LOW(-_vent_resurs_buff)
0013db 4ffc      	SBCI R31,HIGH(-_vent_resurs_buff)
0013dc 81e0      	LD   R30,Z
0013dd 93ea      	ST   -Y,R30
0013de 91e0 02c3 	LDS  R30,_flags
0013e0 93ea      	ST   -Y,R30
0013e1 91e0 02ef 	LDS  R30,__x_
0013e3 93ea      	ST   -Y,R30
0013e4 9508      	RET
                 
                 ;OPTIMIZER ADDED SUBROUTINE, CALLED 3 TIMES, CODE SIZE REDUCTION:3 WORDS
                 SUBOPT_0xE:
0013e5 93ea      	ST   -Y,R30
0013e6 e0e0      	LDI  R30,LOW(0)
0013e7 93ea      	ST   -Y,R30
0013e8 93ea      	ST   -Y,R30
0013e9 9508      	RET
                 
                 ;OPTIMIZER ADDED SUBROUTINE, CALLED 2 TIMES, CODE SIZE REDUCTION:3 WORDS
                 SUBOPT_0xF:
0013ea e0e0      	LDI  R30,LOW(0)
0013eb 93e0 02db 	STS  _link_cnt,R30
0013ed 93e0 02dc 	STS  _link_cnt+1,R30
0013ef e5e5      	LDI  R30,LOW(85)
0013f0 93e0 02da 	STS  _link,R30
0013f2 9508      	RET
                 
                 ;OPTIMIZER ADDED SUBROUTINE, CALLED 3 TIMES, CODE SIZE REDUCTION:3 WORDS
                 SUBOPT_0x10:
0013f3 e1a4      	LDI  R26,LOW(_res_fl_)
0013f4 e0b0      	LDI  R27,HIGH(_res_fl_)
0013f5 940e 1789 	CALL __EEPROMRDB
0013f7 30e0      	CPI  R30,0
0013f8 9508      	RET
                 
                 ;OPTIMIZER ADDED SUBROUTINE, CALLED 2 TIMES, CODE SIZE REDUCTION:2 WORDS
                 SUBOPT_0x11:
0013f9 e9aa      	LDI  R26,LOW(_rotor_int)
0013fa e0b3      	LDI  R27,HIGH(_rotor_int)
0013fb 91ed      	LD   R30,X+
0013fc 91fd      	LD   R31,X+
0013fd 9631      	ADIW R30,1
0013fe 93fe      	ST   -X,R31
0013ff 93ee      	ST   -X,R30
001400 9508      	RET
                 
                 ;OPTIMIZER ADDED SUBROUTINE, CALLED 3 TIMES, CODE SIZE REDUCTION:1 WORDS
                 SUBOPT_0x12:
001401 91e0 02ac 	LDS  R30,_adc_buff_
001403 91f0 02ad 	LDS  R31,_adc_buff_+1
001405 9508      	RET
                 
                 ;OPTIMIZER ADDED SUBROUTINE, CALLED 4 TIMES, CODE SIZE REDUCTION:3 WORDS
                 SUBOPT_0x13:
                +
001406 91e0 0352+LDS R30 , _RXBUFF1 + ( 3 )
                 	__GETB1MN _RXBUFF1,3
001408 70ef      	ANDI R30,LOW(0xF)
001409 30e2      	CPI  R30,LOW(0x2)
00140a 9508      	RET
                 
                 ;OPTIMIZER ADDED SUBROUTINE, CALLED 5 TIMES, CODE SIZE REDUCTION:5 WORDS
                 SUBOPT_0x14:
                +
00140b e0a2     +LDI R26 , LOW ( _K + ( 2 ) )
00140c e0b0     +LDI R27 , HIGH ( _K + ( 2 ) )
                 	__POINTW2MN _K,2
00140d 940e 1785 	CALL __EEPROMRDW
00140f 9508      	RET
                 
                 ;OPTIMIZER ADDED SUBROUTINE, CALLED 4 TIMES, CODE SIZE REDUCTION:3 WORDS
                 SUBOPT_0x15:
                +
001410 91e0 0352+LDS R30 , _RXBUFF1 + ( 3 )
                 	__GETB1MN _RXBUFF1,3
001412 70ef      	ANDI R30,LOW(0xF)
001413 30e3      	CPI  R30,LOW(0x3)
001414 9508      	RET
                 
                 ;OPTIMIZER ADDED SUBROUTINE, CALLED 4 TIMES, CODE SIZE REDUCTION:3 WORDS
                 SUBOPT_0x16:
                +
001415 91e0 0352+LDS R30 , _RXBUFF1 + ( 3 )
                 	__GETB1MN _RXBUFF1,3
001417 70ef      	ANDI R30,LOW(0xF)
001418 30e4      	CPI  R30,LOW(0x4)
001419 9508      	RET
                 
                 ;OPTIMIZER ADDED SUBROUTINE, CALLED 4 TIMES, CODE SIZE REDUCTION:3 WORDS
                 SUBOPT_0x17:
                +
00141a 91e0 0352+LDS R30 , _RXBUFF1 + ( 3 )
                 	__GETB1MN _RXBUFF1,3
00141c 70ef      	ANDI R30,LOW(0xF)
00141d 30e5      	CPI  R30,LOW(0x5)
00141e 9508      	RET
                 
                 ;OPTIMIZER ADDED SUBROUTINE, CALLED 5 TIMES, CODE SIZE REDUCTION:5 WORDS
                 SUBOPT_0x18:
                +
00141f e0a6     +LDI R26 , LOW ( _K + ( 6 ) )
001420 e0b0     +LDI R27 , HIGH ( _K + ( 6 ) )
                 	__POINTW2MN _K,6
001421 940e 1785 	CALL __EEPROMRDW
001423 9508      	RET
                 
                 ;OPTIMIZER ADDED SUBROUTINE, CALLED 5 TIMES, CODE SIZE REDUCTION:5 WORDS
                 SUBOPT_0x19:
                +
001424 e0aa     +LDI R26 , LOW ( _K + ( 10 ) )
001425 e0b0     +LDI R27 , HIGH ( _K + ( 10 ) )
                 	__POINTW2MN _K,10
001426 940e 1785 	CALL __EEPROMRDW
001428 9508      	RET
                 
                 ;OPTIMIZER ADDED SUBROUTINE, CALLED 5 TIMES, CODE SIZE REDUCTION:5 WORDS
                 SUBOPT_0x1A:
                +
001429 e0ae     +LDI R26 , LOW ( _K + ( 14 ) )
00142a e0b0     +LDI R27 , HIGH ( _K + ( 14 ) )
                 	__POINTW2MN _K,14
00142b 940e 1785 	CALL __EEPROMRDW
00142d 9508      	RET
                 
                 ;OPTIMIZER ADDED SUBROUTINE, CALLED 4 TIMES, CODE SIZE REDUCTION:3 WORDS
                 SUBOPT_0x1B:
00142e 93fa      	ST   -Y,R31
00142f 93ea      	ST   -Y,R30
001430 eea8      	LDI  R26,LOW(1000)
001431 e0b3      	LDI  R27,HIGH(1000)
001432 9508      	RET
                 
                 ;OPTIMIZER ADDED SUBROUTINE, CALLED 4 TIMES, CODE SIZE REDUCTION:3 WORDS
                 SUBOPT_0x1C:
001433 e1a7      	LDI  R26,LOW(_ee_Umax)
001434 e0b0      	LDI  R27,HIGH(_ee_Umax)
001435 940e 1785 	CALL __EEPROMRDW
001437 9508      	RET
                 
                 ;OPTIMIZER ADDED SUBROUTINE, CALLED 4 TIMES, CODE SIZE REDUCTION:3 WORDS
                 SUBOPT_0x1D:
                +
001438 91a0 0353+LDS R26 , _RXBUFF1 + ( 4 )
                 	__GETB2MN _RXBUFF1,4
00143a cf8d      	RJMP SUBOPT_0xB
                 
                 ;OPTIMIZER ADDED SUBROUTINE, CALLED 4 TIMES, CODE SIZE REDUCTION:6 WORDS
                 SUBOPT_0x1E:
                +
00143b 91a0 0352+LDS R26 , _RXBUFF1 + ( 3 )
                 	__GETB2MN _RXBUFF1,3
00143d e0b0      	LDI  R27,0
00143e 0fea      	ADD  R30,R26
00143f 1ffb      	ADC  R31,R27
001440 9508      	RET
                 
                 ;OPTIMIZER ADDED SUBROUTINE, CALLED 3 TIMES, CODE SIZE REDUCTION:1 WORDS
                 SUBOPT_0x1F:
                +
001441 91a0 0355+LDS R26 , _RXBUFF1 + ( 6 )
                 	__GETB2MN _RXBUFF1,6
001443 cf84      	RJMP SUBOPT_0xB
                 
                 ;OPTIMIZER ADDED SUBROUTINE, CALLED 4 TIMES, CODE SIZE REDUCTION:6 WORDS
                 SUBOPT_0x20:
                +
001444 91a0 0354+LDS R26 , _RXBUFF1 + ( 5 )
                 	__GETB2MN _RXBUFF1,5
001446 e0b0      	LDI  R27,0
001447 0fea      	ADD  R30,R26
001448 1ffb      	ADC  R31,R27
001449 9508      	RET
                 
                 ;OPTIMIZER ADDED SUBROUTINE, CALLED 10 TIMES, CODE SIZE REDUCTION:15 WORDS
                 SUBOPT_0x21:
00144a e2a1      	LDI  R26,LOW(_ee_AVT_MODE)
00144b e0b0      	LDI  R27,HIGH(_ee_AVT_MODE)
00144c 940e 1785 	CALL __EEPROMRDW
00144e 9508      	RET
                 
                 ;OPTIMIZER ADDED SUBROUTINE, CALLED 3 TIMES, CODE SIZE REDUCTION:1 WORDS
                 SUBOPT_0x22:
00144f e0e0      	LDI  R30,LOW(0)
001450 e0f0      	LDI  R31,HIGH(0)
001451 940e 1795 	CALL __EEPROMWRW
001453 9508      	RET
                 
                 ;OPTIMIZER ADDED SUBROUTINE, CALLED 3 TIMES, CODE SIZE REDUCTION:1 WORDS
                 SUBOPT_0x23:
001454 e1ab      	LDI  R26,LOW(_ee_tmax)
001455 e0b0      	LDI  R27,HIGH(_ee_tmax)
001456 940e 1785 	CALL __EEPROMRDW
001458 9508      	RET
                 
                 ;OPTIMIZER ADDED SUBROUTINE, CALLED 6 TIMES, CODE SIZE REDUCTION:7 WORDS
                 SUBOPT_0x24:
001459 e1ad      	LDI  R26,LOW(_ee_tsign)
00145a e0b0      	LDI  R27,HIGH(_ee_tsign)
00145b 940e 1785 	CALL __EEPROMRDW
00145d 9508      	RET
                 
                 ;OPTIMIZER ADDED SUBROUTINE, CALLED 12 TIMES, CODE SIZE REDUCTION:19 WORDS
                 SUBOPT_0x25:
00145e e2a3      	LDI  R26,LOW(_ee_DEVICE)
00145f e0b0      	LDI  R27,HIGH(_ee_DEVICE)
001460 940e 1785 	CALL __EEPROMRDW
001462 9508      	RET
                 
                 ;OPTIMIZER ADDED SUBROUTINE, CALLED 13 TIMES, CODE SIZE REDUCTION:21 WORDS
                 SUBOPT_0x26:
001463 e1a5      	LDI  R26,LOW(_ee_TZAS)
001464 e0b0      	LDI  R27,HIGH(_ee_TZAS)
001465 940e 1785 	CALL __EEPROMRDW
001467 9508      	RET
                 
                 ;OPTIMIZER ADDED SUBROUTINE, CALLED 2 TIMES, CODE SIZE REDUCTION:1 WORDS
                 SUBOPT_0x27:
001468 01df      	MOVW R26,R30
                +
001469 91e0 0356+LDS R30 , _RXBUFF1 + ( 7 )
                 	__GETB1MN _RXBUFF1,7
00146b e0f0      	LDI  R31,0
00146c 17ea      	CP   R30,R26
00146d 07fb      	CPC  R31,R27
00146e 9508      	RET
                 
                 ;OPTIMIZER ADDED SUBROUTINE, CALLED 4 TIMES, CODE SIZE REDUCTION:75 WORDS
                 SUBOPT_0x28:
00146f 91e0 02c3 	LDS  R30,_flags
001471 7ee1      	ANDI R30,LOW(0xE1)
001472 93e0 02c3 	STS  _flags,R30
001474 e0e0      	LDI  R30,LOW(0)
001475 93e0 02dd 	STS  _tsign_cnt,R30
001477 93e0 02de 	STS  _tsign_cnt+1,R30
001479 93e0 02df 	STS  _tmax_cnt,R30
00147b 93e0 02e0 	STS  _tmax_cnt+1,R30
00147d 93e0 02e5 	STS  _umax_cnt,R30
00147f 93e0 02e6 	STS  _umax_cnt+1,R30
001481 93e0 02e7 	STS  _umin_cnt,R30
001483 93e0 02e8 	STS  _umin_cnt+1,R30
001485 e1ee      	LDI  R30,LOW(30)
001486 93e0 02d1 	STS  _led_drv_cnt,R30
001488 9508      	RET
                 
                 ;OPTIMIZER ADDED SUBROUTINE, CALLED 10 TIMES, CODE SIZE REDUCTION:24 WORDS
                 SUBOPT_0x29:
001489 91ed      	LD   R30,X+
00148a 91fd      	LD   R31,X+
00148b 9631      	ADIW R30,1
00148c 93fe      	ST   -X,R31
00148d 93ee      	ST   -X,R30
00148e 9508      	RET
                 
                 ;OPTIMIZER ADDED SUBROUTINE, CALLED 3 TIMES, CODE SIZE REDUCTION:1 WORDS
                 SUBOPT_0x2A:
00148f e1af      	LDI  R26,LOW(_ee_U_AVT)
001490 e0b0      	LDI  R27,HIGH(_ee_U_AVT)
001491 940e 1785 	CALL __EEPROMRDW
001493 9508      	RET
                 
                 ;OPTIMIZER ADDED SUBROUTINE, CALLED 2 TIMES, CODE SIZE REDUCTION:5 WORDS
                 SUBOPT_0x2B:
001494 93ea      	ST   -Y,R30
001495 91e0 0318 	LDS  R30,_cnt_net_drv
001497 e2a2      	LDI  R26,LOW(_x)
001498 e0b3      	LDI  R27,HIGH(_x)
001499 e0f0      	LDI  R31,0
00149a 0fee      	LSL  R30
00149b 1fff      	ROL  R31
00149c 0fae      	ADD  R26,R30
00149d 1fbf      	ADC  R27,R31
00149e 9508      	RET
                 
                 ;OPTIMIZER ADDED SUBROUTINE, CALLED 6 TIMES, CODE SIZE REDUCTION:7 WORDS
                 SUBOPT_0x2C:
00149f 91e0 02ef 	LDS  R30,__x_
0014a1 91f0 02f0 	LDS  R31,__x_+1
0014a3 9508      	RET
                 
                 ;OPTIMIZER ADDED SUBROUTINE, CALLED 2 TIMES, CODE SIZE REDUCTION:3 WORDS
                 SUBOPT_0x2D:
0014a4 93e0 02d2 	STS  _led_red_buff,R30
0014a6 93f0 02d3 	STS  _led_red_buff+1,R31
0014a8 9360 02d4 	STS  _led_red_buff+2,R22
0014aa 9370 02d5 	STS  _led_red_buff+3,R23
0014ac 9508      	RET
                 
                 ;OPTIMIZER ADDED SUBROUTINE, CALLED 2 TIMES, CODE SIZE REDUCTION:3 WORDS
                 SUBOPT_0x2E:
0014ad 93e0 02d6 	STS  _led_green_buff,R30
0014af 93f0 02d7 	STS  _led_green_buff+1,R31
0014b1 9360 02d8 	STS  _led_green_buff+2,R22
0014b3 9370 02d9 	STS  _led_green_buff+3,R23
0014b5 9508      	RET
                 
                 ;OPTIMIZER ADDED SUBROUTINE, CALLED 3 TIMES, CODE SIZE REDUCTION:17 WORDS
                 SUBOPT_0x2F:
0014b6 93e0 007c 	STS  124,R30
0014b8 eae6      	LDI  R30,LOW(166)
0014b9 93e0 007a 	STS  122,R30
0014bb 91e0 007a 	LDS  R30,122
0014bd 64e0      	ORI  R30,0x40
0014be 93e0 007a 	STS  122,R30
0014c0 cedf      	RJMP SUBOPT_0x3
                 
                 ;OPTIMIZER ADDED SUBROUTINE, CALLED 6 TIMES, CODE SIZE REDUCTION:7 WORDS
                 SUBOPT_0x30:
0014c1 91a0 0078 	LDS  R26,120
0014c3 91b0 0079 	LDS  R27,120+1
0014c5 9508      	RET
                 
                 ;OPTIMIZER ADDED SUBROUTINE, CALLED 3 TIMES, CODE SIZE REDUCTION:7 WORDS
                 SUBOPT_0x31:
0014c6 dffa      	RCALL SUBOPT_0x30
0014c7 ece8      	LDI  R30,LOW(200)
0014c8 e0f0      	LDI  R31,HIGH(200)
0014c9 940e 1703 	CALL __DIVW21U
0014cb 018f      	MOVW R16,R30
0014cc 9508      	RET
                 
                 ;OPTIMIZER ADDED SUBROUTINE, CALLED 3 TIMES, CODE SIZE REDUCTION:9 WORDS
                 SUBOPT_0x32:
0014cd e0e0      	LDI  R30,LOW(0)
0014ce e0f0      	LDI  R31,HIGH(0)
0014cf 93fa      	ST   -Y,R31
0014d0 93ea      	ST   -Y,R30
0014d1 e0a3      	LDI  R26,LOW(3)
0014d2 e0b0      	LDI  R27,0
0014d3 940c 06c0 	JMP  _gran
                 
                 ;OPTIMIZER ADDED SUBROUTINE, CALLED 5 TIMES, CODE SIZE REDUCTION:5 WORDS
                 SUBOPT_0x33:
0014d5 91a0 02e7 	LDS  R26,_umin_cnt
0014d7 91b0 02e8 	LDS  R27,_umin_cnt+1
0014d9 9508      	RET
                 
                 ;OPTIMIZER ADDED SUBROUTINE, CALLED 3 TIMES, CODE SIZE REDUCTION:1 WORDS
                 SUBOPT_0x34:
0014da 91a0 02e5 	LDS  R26,_umax_cnt
0014dc 91b0 02e6 	LDS  R27,_umax_cnt+1
0014de 9508      	RET
                 
                 ;OPTIMIZER ADDED SUBROUTINE, CALLED 3 TIMES, CODE SIZE REDUCTION:1 WORDS
                 SUBOPT_0x35:
0014df 91a0 02db 	LDS  R26,_link_cnt
0014e1 91b0 02dc 	LDS  R27,_link_cnt+1
0014e3 9508      	RET
                 
                 ;OPTIMIZER ADDED SUBROUTINE, CALLED 6 TIMES, CODE SIZE REDUCTION:7 WORDS
                 SUBOPT_0x36:
0014e4 91a0 02c0 	LDS  R26,_T
0014e6 91b0 02c1 	LDS  R27,_T+1
0014e8 9508      	RET
                 
                 ;OPTIMIZER ADDED SUBROUTINE, CALLED 2 TIMES, CODE SIZE REDUCTION:5 WORDS
                 SUBOPT_0x37:
0014e9 93fa      	ST   -Y,R31
0014ea 93ea      	ST   -Y,R30
0014eb e0e0      	LDI  R30,LOW(0)
0014ec e0f0      	LDI  R31,HIGH(0)
0014ed 93fa      	ST   -Y,R31
0014ee 93ea      	ST   -Y,R30
0014ef e3ac      	LDI  R26,LOW(60)
0014f0 e0b0      	LDI  R27,0
0014f1 940c 06c0 	JMP  _gran
                 
                 ;OPTIMIZER ADDED SUBROUTINE, CALLED 6 TIMES, CODE SIZE REDUCTION:7 WORDS
                 SUBOPT_0x38:
0014f3 91a0 02bc 	LDS  R26,_Ui
0014f5 91b0 02bd 	LDS  R27,_Ui+1
0014f7 9508      	RET
                 
                 ;OPTIMIZER ADDED SUBROUTINE, CALLED 2 TIMES, CODE SIZE REDUCTION:10 WORDS
                 SUBOPT_0x39:
0014f8 eee5      	LDI  R30,LOW(_umax_cnt)
0014f9 e0f2      	LDI  R31,HIGH(_umax_cnt)
0014fa 93fa      	ST   -Y,R31
0014fb 93ea      	ST   -Y,R30
0014fc e0e0      	LDI  R30,LOW(0)
0014fd e0f0      	LDI  R31,HIGH(0)
0014fe 93fa      	ST   -Y,R31
0014ff 93ea      	ST   -Y,R30
001500 e0aa      	LDI  R26,LOW(10)
001501 e0b0      	LDI  R27,0
001502 940e 06c0 	CALL _gran
001504 dfd5      	RCALL SUBOPT_0x34
001505 971a      	SBIW R26,10
001506 9508      	RET
                 
                 ;OPTIMIZER ADDED SUBROUTINE, CALLED 3 TIMES, CODE SIZE REDUCTION:23 WORDS
                 SUBOPT_0x3A:
001507 eee7      	LDI  R30,LOW(_umin_cnt)
001508 e0f2      	LDI  R31,HIGH(_umin_cnt)
001509 93fa      	ST   -Y,R31
00150a 93ea      	ST   -Y,R30
00150b e0e0      	LDI  R30,LOW(0)
00150c e0f0      	LDI  R31,HIGH(0)
00150d 93fa      	ST   -Y,R31
00150e 93ea      	ST   -Y,R30
00150f e0aa      	LDI  R26,LOW(10)
001510 e0b0      	LDI  R27,0
001511 940e 06c0 	CALL _gran
001513 dfc1      	RCALL SUBOPT_0x33
001514 971a      	SBIW R26,10
001515 9508      	RET
                 
                 ;OPTIMIZER ADDED SUBROUTINE, CALLED 3 TIMES, CODE SIZE REDUCTION:3 WORDS
                 SUBOPT_0x3B:
001516 91e0 02c3 	LDS  R30,_flags
001518 61e0      	ORI  R30,0x10
001519 93e0 02c3 	STS  _flags,R30
00151b 9508      	RET
                 
                 ;OPTIMIZER ADDED SUBROUTINE, CALLED 4 TIMES, CODE SIZE REDUCTION:3 WORDS
                 SUBOPT_0x3C:
                +
00151c e5e5     +LDI R30 , LOW ( 0x55555555 )
00151d e5f5     +LDI R31 , HIGH ( 0x55555555 )
00151e e565     +LDI R22 , BYTE3 ( 0x55555555 )
00151f e575     +LDI R23 , BYTE4 ( 0x55555555 )
                 	__GETD1N 0x55555555
001520 9508      	RET
                 
                 ;OPTIMIZER ADDED SUBROUTINE, CALLED 27 TIMES, CODE SIZE REDUCTION:153 WORDS
                 SUBOPT_0x3D:
001521 93e0 02c9 	STS  _led_red,R30
001523 93f0 02ca 	STS  _led_red+1,R31
001525 9360 02cb 	STS  _led_red+2,R22
001527 9370 02cc 	STS  _led_red+3,R23
001529 9508      	RET
                 
                 ;OPTIMIZER ADDED SUBROUTINE, CALLED 19 TIMES, CODE SIZE REDUCTION:123 WORDS
                 SUBOPT_0x3E:
00152a e0e0      	LDI  R30,LOW(0)
00152b 93e0 02c9 	STS  _led_red,R30
00152d 93e0 02ca 	STS  _led_red+1,R30
00152f 93e0 02cb 	STS  _led_red+2,R30
001531 93e0 02cc 	STS  _led_red+3,R30
001533 9508      	RET
                 
                 ;OPTIMIZER ADDED SUBROUTINE, CALLED 14 TIMES, CODE SIZE REDUCTION:23 WORDS
                 SUBOPT_0x3F:
                +
001534 efef     +LDI R30 , LOW ( 0xFFFFFFFF )
001535 efff     +LDI R31 , HIGH ( 0xFFFFFFFF )
001536 ef6f     +LDI R22 , BYTE3 ( 0xFFFFFFFF )
001537 ef7f     +LDI R23 , BYTE4 ( 0xFFFFFFFF )
                 	__GETD1N 0xFFFFFFFF
001538 9508      	RET
                 
                 ;OPTIMIZER ADDED SUBROUTINE, CALLED 8 TIMES, CODE SIZE REDUCTION:39 WORDS
                 SUBOPT_0x40:
001539 93e0 02cd 	STS  _led_green,R30
00153b 93f0 02ce 	STS  _led_green+1,R31
00153d 9360 02cf 	STS  _led_green+2,R22
00153f 9370 02d0 	STS  _led_green+3,R23
001541 9508      	RET
                 
                 ;OPTIMIZER ADDED SUBROUTINE, CALLED 6 TIMES, CODE SIZE REDUCTION:7 WORDS
                 SUBOPT_0x41:
001542 91e0 02c3 	LDS  R30,_flags
001544 73ee      	ANDI R30,LOW(0x3E)
001545 30e4      	CPI  R30,LOW(0x4)
001546 9508      	RET
                 
                 ;OPTIMIZER ADDED SUBROUTINE, CALLED 12 TIMES, CODE SIZE REDUCTION:19 WORDS
                 SUBOPT_0x42:
                +
001547 e0e1     +LDI R30 , LOW ( 0x10001 )
001548 e0f0     +LDI R31 , HIGH ( 0x10001 )
001549 e061     +LDI R22 , BYTE3 ( 0x10001 )
00154a e070     +LDI R23 , BYTE4 ( 0x10001 )
                 	__GETD1N 0x10001
00154b 9508      	RET
                 
                 ;OPTIMIZER ADDED SUBROUTINE, CALLED 9 TIMES, CODE SIZE REDUCTION:13 WORDS
                 SUBOPT_0x43:
00154c dffa      	RCALL SUBOPT_0x42
00154d cfd3      	RJMP SUBOPT_0x3D
                 
                 ;OPTIMIZER ADDED SUBROUTINE, CALLED 18 TIMES, CODE SIZE REDUCTION:116 WORDS
                 SUBOPT_0x44:
00154e e0e0      	LDI  R30,LOW(0)
00154f 93e0 02cd 	STS  _led_green,R30
001551 93e0 02ce 	STS  _led_green+1,R30
001553 93e0 02cf 	STS  _led_green+2,R30
001555 93e0 02d0 	STS  _led_green+3,R30
001557 9508      	RET
                 
                 ;OPTIMIZER ADDED SUBROUTINE, CALLED 5 TIMES, CODE SIZE REDUCTION:21 WORDS
                 SUBOPT_0x45:
                +
001558 e0e9     +LDI R30 , LOW ( 0x90009 )
001559 e0f0     +LDI R31 , HIGH ( 0x90009 )
00155a e069     +LDI R22 , BYTE3 ( 0x90009 )
00155b e070     +LDI R23 , BYTE4 ( 0x90009 )
                 	__GETD1N 0x90009
00155c dfc4      	RCALL SUBOPT_0x3D
00155d cff0      	RJMP SUBOPT_0x44
                 
                 ;OPTIMIZER ADDED SUBROUTINE, CALLED 6 TIMES, CODE SIZE REDUCTION:7 WORDS
                 SUBOPT_0x46:
                +
00155e e4e9     +LDI R30 , LOW ( 0x490049 )
00155f e0f0     +LDI R31 , HIGH ( 0x490049 )
001560 e469     +LDI R22 , BYTE3 ( 0x490049 )
001561 e070     +LDI R23 , BYTE4 ( 0x490049 )
                 	__GETD1N 0x490049
001562 9508      	RET
                 
                 ;OPTIMIZER ADDED SUBROUTINE, CALLED 3 TIMES, CODE SIZE REDUCTION:5 WORDS
                 SUBOPT_0x47:
                +
001563 e3e3     +LDI R30 , LOW ( 0x33333333 )
001564 e3f3     +LDI R31 , HIGH ( 0x33333333 )
001565 e363     +LDI R22 , BYTE3 ( 0x33333333 )
001566 e373     +LDI R23 , BYTE4 ( 0x33333333 )
                 	__GETD1N 0x33333333
001567 cfd1      	RJMP SUBOPT_0x40
                 
                 ;OPTIMIZER ADDED SUBROUTINE, CALLED 3 TIMES, CODE SIZE REDUCTION:9 WORDS
                 SUBOPT_0x48:
                +
001568 ecec     +LDI R30 , LOW ( 0xCCCCCCCC )
001569 ecfc     +LDI R31 , HIGH ( 0xCCCCCCCC )
00156a ec6c     +LDI R22 , BYTE3 ( 0xCCCCCCCC )
00156b ec7c     +LDI R23 , BYTE4 ( 0xCCCCCCCC )
                 	__GETD1N 0xCCCCCCCC
00156c dfb4      	RCALL SUBOPT_0x3D
00156d cfe0      	RJMP SUBOPT_0x44
                 
                 ;OPTIMIZER ADDED SUBROUTINE, CALLED 11 TIMES, CODE SIZE REDUCTION:57 WORDS
                 SUBOPT_0x49:
00156e e0a5      	LDI  R26,LOW(5)
00156f e0b0      	LDI  R27,HIGH(5)
001570 940e 16f9 	CALL __MULW12
001572 91a0 02ed 	LDS  R26,_main_cnt1
001574 91b0 02ee 	LDS  R27,_main_cnt1+1
001576 9508      	RET
                 
                 ;OPTIMIZER ADDED SUBROUTINE, CALLED 4 TIMES, CODE SIZE REDUCTION:3 WORDS
                 SUBOPT_0x4A:
                +
001577 e0e3     +LDI R30 , LOW ( 0x3030303 )
001578 e0f3     +LDI R31 , HIGH ( 0x3030303 )
001579 e063     +LDI R22 , BYTE3 ( 0x3030303 )
00157a e073     +LDI R23 , BYTE4 ( 0x3030303 )
                 	__GETD1N 0x3030303
00157b 9508      	RET
                 
                 ;OPTIMIZER ADDED SUBROUTINE, CALLED 2 TIMES, CODE SIZE REDUCTION:3 WORDS
                 SUBOPT_0x4B:
                +
00157c e5e5     +LDI R30 , LOW ( 0x55555 )
00157d e5f5     +LDI R31 , HIGH ( 0x55555 )
00157e e065     +LDI R22 , BYTE3 ( 0x55555 )
00157f e070     +LDI R23 , BYTE4 ( 0x55555 )
                 	__GETD1N 0x55555
001580 dfa0      	RCALL SUBOPT_0x3D
001581 cfb2      	RJMP SUBOPT_0x3F
                 
                 ;OPTIMIZER ADDED SUBROUTINE, CALLED 2 TIMES, CODE SIZE REDUCTION:3 WORDS
                 SUBOPT_0x4C:
001582 59ec      	SUBI R30,LOW(-100)
001583 4fff      	SBCI R31,HIGH(-100)
001584 91a0 02ed 	LDS  R26,_main_cnt1
001586 91b0 02ee 	LDS  R27,_main_cnt1+1
001588 17ae      	CP   R26,R30
001589 07bf      	CPC  R27,R31
00158a 9508      	RET
                 
                 ;OPTIMIZER ADDED SUBROUTINE, CALLED 2 TIMES, CODE SIZE REDUCTION:1 WORDS
                 SUBOPT_0x4D:
00158b df90      	RCALL SUBOPT_0x3C
00158c df94      	RCALL SUBOPT_0x3D
00158d cfa6      	RJMP SUBOPT_0x3F
                 
                 ;OPTIMIZER ADDED SUBROUTINE, CALLED 3 TIMES, CODE SIZE REDUCTION:1 WORDS
                 SUBOPT_0x4E:
00158e dfcf      	RCALL SUBOPT_0x46
00158f cf91      	RJMP SUBOPT_0x3D
                 
                 ;OPTIMIZER ADDED SUBROUTINE, CALLED 3 TIMES, CODE SIZE REDUCTION:9 WORDS
                 SUBOPT_0x4F:
001590 5bea      	SUBI R30,LOW(-70)
001591 4fff      	SBCI R31,HIGH(-70)
001592 91a0 02ed 	LDS  R26,_main_cnt1
001594 91b0 02ee 	LDS  R27,_main_cnt1+1
001596 17ae      	CP   R26,R30
001597 07bf      	CPC  R27,R31
001598 9508      	RET
                 
                 ;OPTIMIZER ADDED SUBROUTINE, CALLED 3 TIMES, CODE SIZE REDUCTION:5 WORDS
                 SUBOPT_0x50:
                +
001599 e0e5     +LDI R30 , LOW ( 0x5 )
00159a e0f0     +LDI R31 , HIGH ( 0x5 )
00159b e060     +LDI R22 , BYTE3 ( 0x5 )
00159c e070     +LDI R23 , BYTE4 ( 0x5 )
                 	__GETD1N 0x5
00159d cf9b      	RJMP SUBOPT_0x40
                 
                 ;OPTIMIZER ADDED SUBROUTINE, CALLED 2 TIMES, CODE SIZE REDUCTION:1 WORDS
                 SUBOPT_0x51:
00159e 940e 1740 	CALL __DIVD21
                +
0015a0 83ee     +STD Y + 6 , R30
0015a1 83ff     +STD Y + 6 + 1 , R31
0015a2 8768     +STD Y + 6 + 2 , R22
0015a3 8779     +STD Y + 6 + 3 , R23
                 	__PUTD1S 6
0015a4 9508      	RET
                 
                 ;OPTIMIZER ADDED SUBROUTINE, CALLED 4 TIMES, CODE SIZE REDUCTION:3 WORDS
                 SUBOPT_0x52:
                +
0015a5 81ae     +LDD R26 , Y + 6
0015a6 81bf     +LDD R27 , Y + 6 + 1
0015a7 8588     +LDD R24 , Y + 6 + 2
0015a8 8599     +LDD R25 , Y + 6 + 3
                 	__GETD2S 6
0015a9 9508      	RET
                 
                 ;OPTIMIZER ADDED SUBROUTINE, CALLED 3 TIMES, CODE SIZE REDUCTION:1 WORDS
                 SUBOPT_0x53:
0015aa e9e0      	LDI  R30,LOW(400)
0015ab e0f1      	LDI  R31,HIGH(400)
0015ac ce81      	RJMP SUBOPT_0x1B
                 
                 ;OPTIMIZER ADDED SUBROUTINE, CALLED 3 TIMES, CODE SIZE REDUCTION:1 WORDS
                 SUBOPT_0x54:
0015ad 91a0 0315 	LDS  R26,_vent_pwm
0015af 91b0 0316 	LDS  R27,_vent_pwm+1
0015b1 9508      	RET
                 
                 ;OPTIMIZER ADDED SUBROUTINE, CALLED 6 TIMES, CODE SIZE REDUCTION:7 WORDS
                 SUBOPT_0x55:
0015b2 e2a7      	LDI  R26,LOW(_vent_resurs)
0015b3 e0b0      	LDI  R27,HIGH(_vent_resurs)
0015b4 940e 1785 	CALL __EEPROMRDW
0015b6 9508      	RET
                 
                 ;OPTIMIZER ADDED SUBROUTINE, CALLED 4 TIMES, CODE SIZE REDUCTION:3 WORDS
                 SUBOPT_0x56:
0015b7 e2a9      	LDI  R26,LOW(_UU_AVT)
0015b8 e0b0      	LDI  R27,HIGH(_UU_AVT)
0015b9 940e 1785 	CALL __EEPROMRDW
0015bb 9508      	RET
                 
                 ;OPTIMIZER ADDED SUBROUTINE, CALLED 2 TIMES, CODE SIZE REDUCTION:1 WORDS
                 SUBOPT_0x57:
0015bc 91a0 02ba 	LDS  R26,_Un
0015be 91b0 02bb 	LDS  R27,_Un+1
0015c0 17ae      	CP   R26,R30
0015c1 07bf      	CPC  R27,R31
0015c2 9508      	RET
                 
                 ;OPTIMIZER ADDED SUBROUTINE, CALLED 3 TIMES, CODE SIZE REDUCTION:1 WORDS
                 SUBOPT_0x58:
0015c3 91e0 0320 	LDS  R30,_volum_u_main_
0015c5 91f0 0321 	LDS  R31,_volum_u_main_+1
0015c7 9508      	RET
                 
                 ;OPTIMIZER ADDED SUBROUTINE, CALLED 3 TIMES, CODE SIZE REDUCTION:1 WORDS
                 SUBOPT_0x59:
0015c8 93e0 0320 	STS  _volum_u_main_,R30
0015ca 93f0 0321 	STS  _volum_u_main_+1,R31
0015cc 9508      	RET
                 
                 ;OPTIMIZER ADDED SUBROUTINE, CALLED 2 TIMES, CODE SIZE REDUCTION:1 WORDS
                 SUBOPT_0x5A:
0015cd 91a0 02ba 	LDS  R26,_Un
0015cf 91b0 02bb 	LDS  R27,_Un+1
0015d1 17ea      	CP   R30,R26
0015d2 07fb      	CPC  R31,R27
0015d3 9508      	RET
                 
                 ;OPTIMIZER ADDED SUBROUTINE, CALLED 4 TIMES, CODE SIZE REDUCTION:3 WORDS
                 SUBOPT_0x5B:
0015d4 2fe1      	MOV  R30,R17
0015d5 e0f0      	LDI  R31,0
0015d6 5ce6      	SUBI R30,LOW(-_i_main_flag)
0015d7 4ffc      	SBCI R31,HIGH(-_i_main_flag)
0015d8 9508      	RET
                 
                 ;OPTIMIZER ADDED SUBROUTINE, CALLED 3 TIMES, CODE SIZE REDUCTION:13 WORDS
                 SUBOPT_0x5C:
0015d9 2fe1      	MOV  R30,R17
0015da e2ae      	LDI  R26,LOW(_i_main)
0015db e0b3      	LDI  R27,HIGH(_i_main)
0015dc e0f0      	LDI  R31,0
0015dd 0fee      	LSL  R30
0015de 1fff      	ROL  R31
0015df 0fae      	ADD  R26,R30
0015e0 1fbf      	ADC  R27,R31
0015e1 940e 1766 	CALL __GETW1P
0015e3 9508      	RET
                 
                 ;OPTIMIZER ADDED SUBROUTINE, CALLED 2 TIMES, CODE SIZE REDUCTION:5 WORDS
                 SUBOPT_0x5D:
0015e4 2fe1      	MOV  R30,R17
0015e5 e2a2      	LDI  R26,LOW(_x)
0015e6 e0b3      	LDI  R27,HIGH(_x)
0015e7 e0f0      	LDI  R31,0
0015e8 0fee      	LSL  R30
0015e9 1fff      	ROL  R31
0015ea 0fae      	ADD  R26,R30
0015eb 1fbf      	ADC  R27,R31
0015ec 91ed      	LD   R30,X+
0015ed 91fd      	LD   R31,X+
0015ee 9508      	RET
                 
                 ;OPTIMIZER ADDED SUBROUTINE, CALLED 4 TIMES, CODE SIZE REDUCTION:15 WORDS
                 SUBOPT_0x5E:
0015ef 2fe1      	MOV  R30,R17
0015f0 e2a2      	LDI  R26,LOW(_x)
0015f1 e0b3      	LDI  R27,HIGH(_x)
0015f2 e0f0      	LDI  R31,0
0015f3 0fee      	LSL  R30
0015f4 1fff      	ROL  R31
0015f5 0fae      	ADD  R26,R30
0015f6 1fbf      	ADC  R27,R31
0015f7 9508      	RET
                 
                 ;OPTIMIZER ADDED SUBROUTINE, CALLED 8 TIMES, CODE SIZE REDUCTION:11 WORDS
                 SUBOPT_0x5F:
0015f8 93e0 02e1 	STS  _pwm_u,R30
0015fa 93f0 02e2 	STS  _pwm_u+1,R31
0015fc 9508      	RET
                 
                 ;OPTIMIZER ADDED SUBROUTINE, CALLED 2 TIMES, CODE SIZE REDUCTION:14 WORDS
                 SUBOPT_0x60:
0015fd eee1      	LDI  R30,LOW(_pwm_u)
0015fe e0f2      	LDI  R31,HIGH(_pwm_u)
0015ff 93fa      	ST   -Y,R31
001600 93ea      	ST   -Y,R30
001601 e0e0      	LDI  R30,LOW(0)
001602 e0f0      	LDI  R31,HIGH(0)
001603 93fa      	ST   -Y,R31
001604 93ea      	ST   -Y,R30
001605 efac      	LDI  R26,LOW(1020)
001606 e0b3      	LDI  R27,HIGH(1020)
001607 940e 06c0 	CALL _gran
001609 91a0 02e3 	LDS  R26,_pwm_i
00160b 91b0 02e4 	LDS  R27,_pwm_i+1
00160d 3fac      	CPI  R26,LOW(0x3FC)
00160e e0e3      	LDI  R30,HIGH(0x3FC)
00160f 07be      	CPC  R27,R30
001610 9508      	RET
                 
                 ;OPTIMIZER ADDED SUBROUTINE, CALLED 6 TIMES, CODE SIZE REDUCTION:67 WORDS
                 SUBOPT_0x61:
001611 91e0 02e3 	LDS  R30,_pwm_i
001613 91f0 02e4 	LDS  R31,_pwm_i+1
001615 967e      	ADIW R30,30
001616 93e0 02e3 	STS  _pwm_i,R30
001618 93f0 02e4 	STS  _pwm_i+1,R31
00161a 91a0 02e3 	LDS  R26,_pwm_i
00161c 91b0 02e4 	LDS  R27,_pwm_i+1
00161e 3fad      	CPI  R26,LOW(0x3FD)
00161f e0e3      	LDI  R30,HIGH(0x3FD)
001620 07be      	CPC  R27,R30
001621 9508      	RET
                 
                 ;OPTIMIZER ADDED SUBROUTINE, CALLED 6 TIMES, CODE SIZE REDUCTION:17 WORDS
                 SUBOPT_0x62:
001622 efec      	LDI  R30,LOW(1020)
001623 e0f3      	LDI  R31,HIGH(1020)
001624 93e0 02e3 	STS  _pwm_i,R30
001626 93f0 02e4 	STS  _pwm_i+1,R31
001628 9508      	RET
                 
                 ;OPTIMIZER ADDED SUBROUTINE, CALLED 7 TIMES, CODE SIZE REDUCTION:51 WORDS
                 SUBOPT_0x63:
001629 e0e0      	LDI  R30,LOW(0)
00162a 93e0 02e1 	STS  _pwm_u,R30
00162c 93e0 02e2 	STS  _pwm_u+1,R30
00162e 93e0 02e3 	STS  _pwm_i,R30
001630 93e0 02e4 	STS  _pwm_i+1,R30
001632 9af7      	SBI  0x1E,7
001633 9508      	RET
                 
                 ;OPTIMIZER ADDED SUBROUTINE, CALLED 3 TIMES, CODE SIZE REDUCTION:11 WORDS
                 SUBOPT_0x64:
001634 dfc3      	RCALL SUBOPT_0x5F
001635 91a0 02e3 	LDS  R26,_pwm_i
001637 91b0 02e4 	LDS  R27,_pwm_i+1
001639 3fac      	CPI  R26,LOW(0x3FC)
00163a e0e3      	LDI  R30,HIGH(0x3FC)
00163b 07be      	CPC  R27,R30
00163c 9508      	RET
                 
                 ;OPTIMIZER ADDED SUBROUTINE, CALLED 5 TIMES, CODE SIZE REDUCTION:5 WORDS
                 SUBOPT_0x65:
00163d 91a0 02e3 	LDS  R26,_pwm_i
00163f 91b0 02e4 	LDS  R27,_pwm_i+1
001641 9508      	RET
                 
                 ;OPTIMIZER ADDED SUBROUTINE, CALLED 2 TIMES, CODE SIZE REDUCTION:7 WORDS
                 SUBOPT_0x66:
001642 de5c      	RCALL SUBOPT_0x2C
001643 91a0 02c5 	LDS  R26,_vol_u_temp
001645 91b0 02c6 	LDS  R27,_vol_u_temp+1
001647 0fea      	ADD  R30,R26
001648 1ffb      	ADC  R31,R27
001649 dfae      	RCALL SUBOPT_0x5F
00164a ce13      	RJMP SUBOPT_0x25
                 
                 ;OPTIMIZER ADDED SUBROUTINE, CALLED 3 TIMES, CODE SIZE REDUCTION:1 WORDS
                 SUBOPT_0x67:
00164b 91e0 034b 	LDS  R30,_vol_i_temp_avar
00164d 91f0 034c 	LDS  R31,_vol_i_temp_avar+1
00164f 9508      	RET
                 
                 ;OPTIMIZER ADDED SUBROUTINE, CALLED 2 TIMES, CODE SIZE REDUCTION:3 WORDS
                 SUBOPT_0x68:
001650 e1ee      	LDI  R30,LOW(30)
001651 e0f0      	LDI  R31,HIGH(30)
001652 940e 1703 	CALL __DIVW21U
001654 dfe8      	RCALL SUBOPT_0x65
001655 0fea      	ADD  R30,R26
001656 1ffb      	ADC  R31,R27
001657 9508      	RET
                 
                 ;OPTIMIZER ADDED SUBROUTINE, CALLED 3 TIMES, CODE SIZE REDUCTION:1 WORDS
                 SUBOPT_0x69:
001658 91e0 02c7 	LDS  R30,_vol_i_temp
00165a 91f0 02c8 	LDS  R31,_vol_i_temp+1
00165c 9508      	RET
                 
                 ;OPTIMIZER ADDED SUBROUTINE, CALLED 2 TIMES, CODE SIZE REDUCTION:5 WORDS
                 SUBOPT_0x6A:
00165d 93fa      	ST   -Y,R31
00165e 93ea      	ST   -Y,R30
00165f e0e1      	LDI  R30,LOW(1)
001660 e0f0      	LDI  R31,HIGH(1)
001661 93fa      	ST   -Y,R31
001662 93ea      	ST   -Y,R30
001663 efac      	LDI  R26,LOW(1020)
001664 e0b3      	LDI  R27,HIGH(1020)
001665 940c 06c0 	JMP  _gran
                 
                 ;OPTIMIZER ADDED SUBROUTINE, CALLED 2 TIMES, CODE SIZE REDUCTION:4 WORDS
                 SUBOPT_0x6B:
001667 91e0 02b7 	LDS  R30,_adc_ch
001669 e0f0      	LDI  R31,0
00166a 0fee      	LSL  R30
00166b 1fff      	ROL  R31
00166c 940e 16b5 	CALL __LSLW4
00166e 5fe4      	SUBI R30,LOW(-_adc_buff)
00166f 4ffd      	SBCI R31,HIGH(-_adc_buff)
001670 9508      	RET
                 
                 ;OPTIMIZER ADDED SUBROUTINE, CALLED 3 TIMES, CODE SIZE REDUCTION:7 WORDS
                 SUBOPT_0x6C:
001671 91e0 02b7 	LDS  R30,_adc_ch
001673 eaac      	LDI  R26,LOW(_adc_buff_)
001674 e0b2      	LDI  R27,HIGH(_adc_buff_)
001675 e0f0      	LDI  R31,0
001676 0fee      	LSL  R30
001677 1fff      	ROL  R31
001678 9508      	RET
                 
                 ;OPTIMIZER ADDED SUBROUTINE, CALLED 4 TIMES, CODE SIZE REDUCTION:9 WORDS
                 SUBOPT_0x6D:
001679 2766      	CLR  R22
00167a 2777      	CLR  R23
00167b 940e 176f 	CALL __PUTD1S0
00167d 9508      	RET
                 
                 ;OPTIMIZER ADDED SUBROUTINE, CALLED 5 TIMES, CODE SIZE REDUCTION:13 WORDS
                 SUBOPT_0x6E:
00167e 940e 176a 	CALL __GETD2S0
001680 940e 16cc 	CALL __CWD1
001682 9508      	RET
                 
                 ;OPTIMIZER ADDED SUBROUTINE, CALLED 3 TIMES, CODE SIZE REDUCTION:3 WORDS
                 SUBOPT_0x6F:
001683 e0e0      	LDI  R30,LOW(0)
001684 940e 1779 	CALL __CLRD1S0
001686 9508      	RET
                 
                 ;OPTIMIZER ADDED SUBROUTINE, CALLED 4 TIMES, CODE SIZE REDUCTION:21 WORDS
                 SUBOPT_0x70:
001687 940e 16fe 	CALL __MULD12
001689 940e 176f 	CALL __PUTD1S0
00168b 940e 176a 	CALL __GETD2S0
00168d 9508      	RET
                 
                 ;OPTIMIZER ADDED SUBROUTINE, CALLED 4 TIMES, CODE SIZE REDUCTION:15 WORDS
                 SUBOPT_0x71:
00168e 940e 1740 	CALL __DIVD21
001690 940e 176f 	CALL __PUTD1S0
001692 81e8      	LD   R30,Y
001693 81f9      	LDD  R31,Y+1
001694 9508      	RET
                 
                 ;OPTIMIZER ADDED SUBROUTINE, CALLED 2 TIMES, CODE SIZE REDUCTION:1 WORDS
                 SUBOPT_0x72:
                +
001695 eee8     +LDI R30 , LOW ( 0x3E8 )
001696 e0f3     +LDI R31 , HIGH ( 0x3E8 )
001697 e060     +LDI R22 , BYTE3 ( 0x3E8 )
001698 e070     +LDI R23 , BYTE4 ( 0x3E8 )
                 	__GETD1N 0x3E8
001699 cff4      	RJMP SUBOPT_0x71
                 
                 
                 	.CSEG
                 _delay_ms:
00169a 9610      	adiw r26,0
00169b f039      	breq __delay_ms1
                 __delay_ms0:
                +
00169c ed80     +LDI R24 , LOW ( 0x7D0 )
00169d e097     +LDI R25 , HIGH ( 0x7D0 )
                +__DELAY_USW_LOOP :
00169e 9701     +SBIW R24 , 1
00169f f7f1     +BRNE __DELAY_USW_LOOP
                 	__DELAY_USW 0x7D0
0016a0 95a8      	wdr
0016a1 9711      	sbiw r26,1
0016a2 f7c9      	brne __delay_ms0
                 __delay_ms1:
0016a3 9508      	ret
                 
                 __SUBD21:
0016a4 1bae      	SUB  R26,R30
0016a5 0bbf      	SBC  R27,R31
0016a6 0b86      	SBC  R24,R22
0016a7 0b97      	SBC  R25,R23
0016a8 9508      	RET
                 
                 __ANEGW1:
0016a9 95f1      	NEG  R31
0016aa 95e1      	NEG  R30
0016ab 40f0      	SBCI R31,0
0016ac 9508      	RET
                 
                 __ANEGD1:
0016ad 95f0      	COM  R31
0016ae 9560      	COM  R22
0016af 9570      	COM  R23
0016b0 95e1      	NEG  R30
0016b1 4fff      	SBCI R31,-1
0016b2 4f6f      	SBCI R22,-1
0016b3 4f7f      	SBCI R23,-1
0016b4 9508      	RET
                 
                 __LSLW4:
0016b5 0fee      	LSL  R30
0016b6 1fff      	ROL  R31
                 __LSLW3:
0016b7 0fee      	LSL  R30
0016b8 1fff      	ROL  R31
                 __LSLW2:
0016b9 0fee      	LSL  R30
0016ba 1fff      	ROL  R31
0016bb 0fee      	LSL  R30
0016bc 1fff      	ROL  R31
0016bd 9508      	RET
                 
                 __ASRD1:
0016be 9575      	ASR  R23
0016bf 9567      	ROR  R22
0016c0 95f7      	ROR  R31
0016c1 95e7      	ROR  R30
0016c2 9508      	RET
                 
                 __LSRW4:
0016c3 95f6      	LSR  R31
0016c4 95e7      	ROR  R30
                 __LSRW3:
0016c5 95f6      	LSR  R31
0016c6 95e7      	ROR  R30
                 __LSRW2:
0016c7 95f6      	LSR  R31
0016c8 95e7      	ROR  R30
0016c9 95f6      	LSR  R31
0016ca 95e7      	ROR  R30
0016cb 9508      	RET
                 
                 __CWD1:
0016cc 2f6f      	MOV  R22,R31
0016cd 0f66      	ADD  R22,R22
0016ce 0b66      	SBC  R22,R22
0016cf 2f76      	MOV  R23,R22
0016d0 9508      	RET
                 
                 __MULW12U:
0016d1 9ffa      	MUL  R31,R26
0016d2 2df0      	MOV  R31,R0
0016d3 9feb      	MUL  R30,R27
0016d4 0df0      	ADD  R31,R0
0016d5 9fea      	MUL  R30,R26
0016d6 2de0      	MOV  R30,R0
0016d7 0df1      	ADD  R31,R1
0016d8 9508      	RET
                 
                 __MULD12U:
0016d9 9f7a      	MUL  R23,R26
0016da 2d70      	MOV  R23,R0
0016db 9f6b      	MUL  R22,R27
0016dc 0d70      	ADD  R23,R0
0016dd 9ff8      	MUL  R31,R24
0016de 0d70      	ADD  R23,R0
0016df 9fe9      	MUL  R30,R25
0016e0 0d70      	ADD  R23,R0
0016e1 9f6a      	MUL  R22,R26
0016e2 2d60      	MOV  R22,R0
0016e3 0d71      	ADD  R23,R1
0016e4 9ffb      	MUL  R31,R27
0016e5 0d60      	ADD  R22,R0
0016e6 1d71      	ADC  R23,R1
0016e7 9fe8      	MUL  R30,R24
0016e8 0d60      	ADD  R22,R0
0016e9 1d71      	ADC  R23,R1
0016ea 2788      	CLR  R24
0016eb 9ffa      	MUL  R31,R26
0016ec 2df0      	MOV  R31,R0
0016ed 0d61      	ADD  R22,R1
0016ee 1f78      	ADC  R23,R24
0016ef 9feb      	MUL  R30,R27
0016f0 0df0      	ADD  R31,R0
0016f1 1d61      	ADC  R22,R1
0016f2 1f78      	ADC  R23,R24
0016f3 9fea      	MUL  R30,R26
0016f4 2de0      	MOV  R30,R0
0016f5 0df1      	ADD  R31,R1
0016f6 1f68      	ADC  R22,R24
0016f7 1f78      	ADC  R23,R24
0016f8 9508      	RET
                 
                 __MULW12:
0016f9 d04b      	RCALL __CHKSIGNW
0016fa dfd6      	RCALL __MULW12U
0016fb f40e      	BRTC __MULW121
0016fc dfac      	RCALL __ANEGW1
                 __MULW121:
0016fd 9508      	RET
                 
                 __MULD12:
0016fe d054      	RCALL __CHKSIGND
0016ff dfd9      	RCALL __MULD12U
001700 f40e      	BRTC __MULD121
001701 dfab      	RCALL __ANEGD1
                 __MULD121:
001702 9508      	RET
                 
                 __DIVW21U:
001703 2400      	CLR  R0
001704 2411      	CLR  R1
001705 e190      	LDI  R25,16
                 __DIVW21U1:
001706 0faa      	LSL  R26
001707 1fbb      	ROL  R27
001708 1c00      	ROL  R0
001709 1c11      	ROL  R1
00170a 1a0e      	SUB  R0,R30
00170b 0a1f      	SBC  R1,R31
00170c f418      	BRCC __DIVW21U2
00170d 0e0e      	ADD  R0,R30
00170e 1e1f      	ADC  R1,R31
00170f c001      	RJMP __DIVW21U3
                 __DIVW21U2:
001710 60a1      	SBR  R26,1
                 __DIVW21U3:
001711 959a      	DEC  R25
001712 f799      	BRNE __DIVW21U1
001713 01fd      	MOVW R30,R26
001714 01d0      	MOVW R26,R0
001715 9508      	RET
                 
                 __DIVW21:
001716 d02e      	RCALL __CHKSIGNW
001717 dfeb      	RCALL __DIVW21U
001718 f40e      	BRTC __DIVW211
001719 df8f      	RCALL __ANEGW1
                 __DIVW211:
00171a 9508      	RET
                 
                 __DIVD21U:
00171b 933f      	PUSH R19
00171c 934f      	PUSH R20
00171d 935f      	PUSH R21
00171e 2400      	CLR  R0
00171f 2411      	CLR  R1
001720 2744      	CLR  R20
001721 2755      	CLR  R21
001722 e230      	LDI  R19,32
                 __DIVD21U1:
001723 0faa      	LSL  R26
001724 1fbb      	ROL  R27
001725 1f88      	ROL  R24
001726 1f99      	ROL  R25
001727 1c00      	ROL  R0
001728 1c11      	ROL  R1
001729 1f44      	ROL  R20
00172a 1f55      	ROL  R21
00172b 1a0e      	SUB  R0,R30
00172c 0a1f      	SBC  R1,R31
00172d 0b46      	SBC  R20,R22
00172e 0b57      	SBC  R21,R23
00172f f428      	BRCC __DIVD21U2
001730 0e0e      	ADD  R0,R30
001731 1e1f      	ADC  R1,R31
001732 1f46      	ADC  R20,R22
001733 1f57      	ADC  R21,R23
001734 c001      	RJMP __DIVD21U3
                 __DIVD21U2:
001735 60a1      	SBR  R26,1
                 __DIVD21U3:
001736 953a      	DEC  R19
001737 f759      	BRNE __DIVD21U1
001738 01fd      	MOVW R30,R26
001739 01bc      	MOVW R22,R24
00173a 01d0      	MOVW R26,R0
00173b 01ca      	MOVW R24,R20
00173c 915f      	POP  R21
00173d 914f      	POP  R20
00173e 913f      	POP  R19
00173f 9508      	RET
                 
                 __DIVD21:
001740 d012      	RCALL __CHKSIGND
001741 dfd9      	RCALL __DIVD21U
001742 f40e      	BRTC __DIVD211
001743 df69      	RCALL __ANEGD1
                 __DIVD211:
001744 9508      	RET
                 
                 __CHKSIGNW:
001745 94e8      	CLT
001746 fff7      	SBRS R31,7
001747 c002      	RJMP __CHKSW1
001748 df60      	RCALL __ANEGW1
001749 9468      	SET
                 __CHKSW1:
00174a ffb7      	SBRS R27,7
00174b c006      	RJMP __CHKSW2
00174c 95a0      	COM  R26
00174d 95b0      	COM  R27
00174e 9611      	ADIW R26,1
00174f f800      	BLD  R0,0
001750 9403      	INC  R0
001751 fa00      	BST  R0,0
                 __CHKSW2:
001752 9508      	RET
                 
                 __CHKSIGND:
001753 94e8      	CLT
001754 ff77      	SBRS R23,7
001755 c002      	RJMP __CHKSD1
001756 df56      	RCALL __ANEGD1
001757 9468      	SET
                 __CHKSD1:
001758 ff97      	SBRS R25,7
001759 c00b      	RJMP __CHKSD2
00175a 2400      	CLR  R0
00175b 95a0      	COM  R26
00175c 95b0      	COM  R27
00175d 9580      	COM  R24
00175e 9590      	COM  R25
00175f 9611      	ADIW R26,1
001760 1d80      	ADC  R24,R0
001761 1d90      	ADC  R25,R0
001762 f800      	BLD  R0,0
001763 9403      	INC  R0
001764 fa00      	BST  R0,0
                 __CHKSD2:
001765 9508      	RET
                 
                 __GETW1P:
001766 91ed      	LD   R30,X+
001767 91fc      	LD   R31,X
001768 9711      	SBIW R26,1
001769 9508      	RET
                 
                 __GETD2S0:
00176a 81a8      	LD   R26,Y
00176b 81b9      	LDD  R27,Y+1
00176c 818a      	LDD  R24,Y+2
00176d 819b      	LDD  R25,Y+3
00176e 9508      	RET
                 
                 __PUTD1S0:
00176f 83e8      	ST   Y,R30
001770 83f9      	STD  Y+1,R31
001771 836a      	STD  Y+2,R22
001772 837b      	STD  Y+3,R23
001773 9508      	RET
                 
                 __PUTD2S0:
001774 83a8      	ST   Y,R26
001775 83b9      	STD  Y+1,R27
001776 838a      	STD  Y+2,R24
001777 839b      	STD  Y+3,R25
001778 9508      	RET
                 
                 __CLRD1S0:
001779 83e8      	ST   Y,R30
00177a 83e9      	STD  Y+1,R30
00177b 83ea      	STD  Y+2,R30
00177c 83eb      	STD  Y+3,R30
00177d 9508      	RET
                 
                 __SWAPW12:
00177e 2e1b      	MOV  R1,R27
00177f 2fbf      	MOV  R27,R31
001780 2df1      	MOV  R31,R1
                 
                 __SWAPB12:
001781 2e1a      	MOV  R1,R26
001782 2fae      	MOV  R26,R30
001783 2de1      	MOV  R30,R1
001784 9508      	RET
                 
                 __EEPROMRDW:
001785 9611      	ADIW R26,1
001786 d002      	RCALL __EEPROMRDB
001787 2ffe      	MOV  R31,R30
001788 9711      	SBIW R26,1
                 
                 __EEPROMRDB:
001789 99f9      	SBIC EECR,EEWE
00178a cffe      	RJMP __EEPROMRDB
00178b 93ff      	PUSH R31
00178c b7ff      	IN   R31,SREG
00178d 94f8      	CLI
00178e bda1      	OUT  EEARL,R26
00178f bdb2      	OUT  EEARH,R27
001790 9af8      	SBI  EECR,EERE
001791 b5e0      	IN   R30,EEDR
001792 bfff      	OUT  SREG,R31
001793 91ff      	POP  R31
001794 9508      	RET
                 
                 __EEPROMWRW:
001795 d007      	RCALL __EEPROMWRB
001796 9611      	ADIW R26,1
001797 93ef      	PUSH R30
001798 2fef      	MOV  R30,R31
001799 d003      	RCALL __EEPROMWRB
00179a 91ef      	POP  R30
00179b 9711      	SBIW R26,1
00179c 9508      	RET
                 
                 __EEPROMWRB:
00179d 9bf9      	SBIS EECR,EEWE
00179e c002      	RJMP __EEPROMWRB1
00179f 95a8      	WDR
0017a0 cffc      	RJMP __EEPROMWRB
                 __EEPROMWRB1:
0017a1 b79f      	IN   R25,SREG
0017a2 94f8      	CLI
0017a3 bda1      	OUT  EEARL,R26
0017a4 bdb2      	OUT  EEARH,R27
0017a5 9af8      	SBI  EECR,EERE
0017a6 b580      	IN   R24,EEDR
0017a7 17e8      	CP   R30,R24
0017a8 f019      	BREQ __EEPROMWRB0
0017a9 bde0      	OUT  EEDR,R30
0017aa 9afa      	SBI  EECR,EEMWE
0017ab 9af9      	SBI  EECR,EEWE
                 __EEPROMWRB0:
0017ac bf9f      	OUT  SREG,R25
0017ad 9508      	RET
                 
                 __CPW02:
0017ae 2400      	CLR  R0
0017af 160a      	CP   R0,R26
0017b0 060b      	CPC  R0,R27
0017b1 9508      	RET
                 
                 __CPD12:
0017b2 17ea      	CP   R30,R26
0017b3 07fb      	CPC  R31,R27
0017b4 0768      	CPC  R22,R24
0017b5 0779      	CPC  R23,R25
0017b6 9508      	RET
                 
                 __CPD21:
0017b7 17ae      	CP   R26,R30
0017b8 07bf      	CPC  R27,R31
0017b9 0786      	CPC  R24,R22
0017ba 0797      	CPC  R25,R23
0017bb 9508      	RET
                 
                 __SAVELOCR6:
0017bc 935a      	ST   -Y,R21
                 __SAVELOCR5:
0017bd 934a      	ST   -Y,R20
                 __SAVELOCR4:
0017be 933a      	ST   -Y,R19
                 __SAVELOCR3:
0017bf 932a      	ST   -Y,R18
                 __SAVELOCR2:
0017c0 931a      	ST   -Y,R17
0017c1 930a      	ST   -Y,R16
0017c2 9508      	RET
                 
                 __LOADLOCR6:
0017c3 815d      	LDD  R21,Y+5
                 __LOADLOCR5:
0017c4 814c      	LDD  R20,Y+4
                 __LOADLOCR4:
0017c5 813b      	LDD  R19,Y+3
                 __LOADLOCR3:
0017c6 812a      	LDD  R18,Y+2
                 __LOADLOCR2:
0017c7 8119      	LDD  R17,Y+1
0017c8 8108      	LD   R16,Y
0017c9 9508      	RET
                 
                 ;END OF CODE MARKER
                 __END_OF_CODE:


RESOURCE USE INFORMATION
------------------------

Notice:
The register and instruction counts are symbol table hit counts,
and hence implicitly used resources are not counted, eg, the
'lpm' instruction without operands implicitly uses r0 and z,
none of which are counted.

x,y,z are separate entities in the symbol table and are
counted separately from r26..r31 here.

.dseg memory usage only counts static data declared with .byte

ATmega168 register use summary:
r0 :  54 r1 :  25 r2 :   0 r3 :   0 r4 :   0 r5 :   0 r6 :   3 r7 :   3 
r8 :   3 r9 :   3 r10:   0 r11:   3 r12:   0 r13:   0 r14:   0 r15:   2 
r16:  31 r17:  54 r18:  10 r19:  12 r20:  17 r21:  13 r22:  87 r23:  75 
r24:  39 r25:  24 r26: 722 r27: 271 r28:  23 r29:   1 r30:1418 r31: 382 
x  :  73 y  : 318 z  :  31 
Registers used: 27 out of 35 (77.1%)

ATmega168 instruction use summary:
.lds  :   0 .lds.l:   0 .sts  :   0 .sts.l:   0 adc   :  35 add   :  39 
adiw  :  44 and   :   0 andi  :  97 asr   :   1 bclr  :   0 bld   :   2 
brbc  :   0 brbs  :   0 brcc  :   2 brcs  :   0 break :   0 breq  : 117 
brge  :  35 brhc  :   0 brhs  :   0 brid  :   0 brie  :   0 brlo  :  29 
brlt  :  26 brmi  :   0 brne  : 171 brpl  :   4 brsh  :  27 brtc  :   4 
brts  :   0 brvc  :   0 brvs  :   0 bset  :   0 bst   :   2 call  : 610 
cbi   :  21 cbr   :   5 clc   :   0 clh   :   0 cli   :  10 cln   :   0 
clr   :  22 cls   :   0 clt   :   2 clv   :   0 clz   :   0 com   :   9 
cp    :  56 cpc   :  89 cpi   : 210 cpse  :   0 dec   :   5 des   :   0 
eor   :   3 fmul  :   0 fmuls :   0 fmulsu:   0 icall :   0 ijmp  :   0 
in    :  39 inc   :   7 jmp   :  36 ld    :  78 ldd   :  78 ldi   : 703 
lds   : 458 lpm   :   7 lsl   :  18 lsr   :   6 mov   :  36 movw  :  43 
mul   :  16 muls  :   0 mulsu :   0 neg   :   3 nop   :   8 or    :   5 
ori   :  14 out   :  33 pop   :  17 push  :  17 rcall :  71 ret   : 154 
reti  :   1 rjmp  : 282 rol   :  22 ror   :   7 sbc   :  10 sbci  :  20 
sbi   :  38 sbic  :   5 sbis  :  14 sbiw  :  69 sbr   :   5 sbrc  :   1 
sbrs  :  14 sec   :   0 seh   :   0 sei   :   8 sen   :   0 ser   :   0 
ses   :   0 set   :   2 sev   :   0 sez   :   0 sleep :   0 spm   :   0 
st    : 219 std   :  40 sts   : 283 sub   :   5 subi  :  41 swap  :   1 
tst   :   4 wdr   :   4 
Instructions used: 73 out of 116 (62.9%)

ATmega168 memory use summary [bytes]:
Segment   Begin    End      Code   Data   Used    Size   Use%
---------------------------------------------------------------
[.cseg] 0x000000 0x002f94  12012    168  12180   16384  74.3%
[.dseg] 0x000100 0x0003a1      0    417    417    1024  40.7%
[.eseg] 0x000000 0x00002b      0     43     43     512   8.4%

Assembly complete, 0 errors, 19 warnings
