
AVRASM ver. 2.1.30  E:\USERS\PAL\DEVICES\BPS1000.06\SOFT\Release\List\BPS.asm Tue Sep 26 16:36:11 2023

E:\USERS\PAL\DEVICES\BPS1000.06\SOFT\Release\List\BPS.asm(1092): warning: Register r3 already defined by the .DEF directive
E:\USERS\PAL\DEVICES\BPS1000.06\SOFT\Release\List\BPS.asm(1093): warning: Register r2 already defined by the .DEF directive
E:\USERS\PAL\DEVICES\BPS1000.06\SOFT\Release\List\BPS.asm(1094): warning: Register r5 already defined by the .DEF directive
E:\USERS\PAL\DEVICES\BPS1000.06\SOFT\Release\List\BPS.asm(1095): warning: Register r4 already defined by the .DEF directive
E:\USERS\PAL\DEVICES\BPS1000.06\SOFT\Release\List\BPS.asm(1096): warning: Register r7 already defined by the .DEF directive
E:\USERS\PAL\DEVICES\BPS1000.06\SOFT\Release\List\BPS.asm(1097): warning: Register r6 already defined by the .DEF directive
E:\USERS\PAL\DEVICES\BPS1000.06\SOFT\Release\List\BPS.asm(1098): warning: Register r9 already defined by the .DEF directive
E:\USERS\PAL\DEVICES\BPS1000.06\SOFT\Release\List\BPS.asm(1099): warning: Register r8 already defined by the .DEF directive
E:\USERS\PAL\DEVICES\BPS1000.06\SOFT\Release\List\BPS.asm(1100): warning: Register r11 already defined by the .DEF directive
E:\USERS\PAL\DEVICES\BPS1000.06\SOFT\Release\List\BPS.asm(1101): warning: Register r10 already defined by the .DEF directive
E:\USERS\PAL\DEVICES\BPS1000.06\SOFT\Release\List\BPS.asm(1102): warning: Register r13 already defined by the .DEF directive
E:\USERS\PAL\DEVICES\BPS1000.06\SOFT\Release\List\BPS.asm(1103): warning: Register r12 already defined by the .DEF directive
                 
                 
                 ;CodeVisionAVR C Compiler V3.12 Advanced
                 ;(C) Copyright 1998-2014 Pavel Haiduc, HP InfoTech s.r.l.
                 ;http://www.hpinfotech.com
                 
                 ;Build configuration    : Release
                 ;Chip type              : ATmega168
                 ;Program type           : Application
                 ;Clock frequency        : 8,000000 MHz
                 ;Memory model           : Small
                 ;Optimize for           : Size
                 ;(s)printf features     : int, width
                 ;(s)scanf features      : int, width
                 ;External RAM size      : 0
                 ;Data Stack size        : 256 byte(s)
                 ;Heap size              : 0 byte(s)
                 ;Promote 'char' to 'int': No
                 ;'char' is unsigned     : Yes
                 ;8 bit enums            : Yes
                 ;Global 'const' stored in FLASH: No
                 ;Enhanced function parameter passing: Yes
                 ;Enhanced core instructions: On
                 ;Automatic register allocation for global variables: On
                 ;Smart register allocation: On
                 
                 	#define _MODEL_SMALL_
                 
                 	#pragma AVRPART ADMIN PART_NAME ATmega168
                 	#pragma AVRPART MEMORY PROG_FLASH 16384
                 	#pragma AVRPART MEMORY EEPROM 512
                 	#pragma AVRPART MEMORY INT_SRAM SIZE 1024
                 	#pragma AVRPART MEMORY INT_SRAM START_ADDR 0x100
                 
                 	#define CALL_SUPPORTED 1
                 
                 	.LISTMAC
                 	.EQU EERE=0x0
                 	.EQU EEWE=0x1
                 	.EQU EEMWE=0x2
                 	.EQU UDRE=0x5
                 	.EQU RXC=0x7
                 	.EQU EECR=0x1F
                 	.EQU EEDR=0x20
                 	.EQU EEARL=0x21
                 	.EQU EEARH=0x22
                 	.EQU SPSR=0x2D
                 	.EQU SPDR=0x2E
                 	.EQU SMCR=0x33
                 	.EQU MCUSR=0x34
                 	.EQU MCUCR=0x35
                 	.EQU WDTCSR=0x60
                 	.EQU UCSR0A=0xC0
                 	.EQU UDR0=0xC6
                 	.EQU SPL=0x3D
                 	.EQU SPH=0x3E
                 	.EQU SREG=0x3F
                 	.EQU GPIOR0=0x1E
                 	.EQU GPIOR1=0x2A
                 	.EQU GPIOR2=0x2B
                 
                 	.DEF R0X0=R0
                 	.DEF R0X1=R1
                 	.DEF R0X2=R2
                 	.DEF R0X3=R3
                 	.DEF R0X4=R4
                 	.DEF R0X5=R5
                 	.DEF R0X6=R6
                 	.DEF R0X7=R7
                 	.DEF R0X8=R8
                 	.DEF R0X9=R9
                 	.DEF R0XA=R10
                 	.DEF R0XB=R11
                 	.DEF R0XC=R12
                 	.DEF R0XD=R13
                 	.DEF R0XE=R14
                 	.DEF R0XF=R15
                 	.DEF R0X10=R16
                 	.DEF R0X11=R17
                 	.DEF R0X12=R18
                 	.DEF R0X13=R19
                 	.DEF R0X14=R20
                 	.DEF R0X15=R21
                 	.DEF R0X16=R22
                 	.DEF R0X17=R23
                 	.DEF R0X18=R24
                 	.DEF R0X19=R25
                 	.DEF R0X1A=R26
                 	.DEF R0X1B=R27
                 	.DEF R0X1C=R28
                 	.DEF R0X1D=R29
                 	.DEF R0X1E=R30
                 	.DEF R0X1F=R31
                 
                 	.EQU __SRAM_START=0x0100
                 	.EQU __SRAM_END=0x04FF
                 	.EQU __DSTACK_SIZE=0x0100
                 	.EQU __HEAP_SIZE=0x0000
                 	.EQU __CLEAR_SRAM_SIZE=__SRAM_END-__SRAM_START+1
                 
                 	.MACRO __CPD1N
                 	CPI  R30,LOW(@0)
                 	LDI  R26,HIGH(@0)
                 	CPC  R31,R26
                 	LDI  R26,BYTE3(@0)
                 	CPC  R22,R26
                 	LDI  R26,BYTE4(@0)
                 	CPC  R23,R26
                 	.ENDM
                 
                 	.MACRO __CPD2N
                 	CPI  R26,LOW(@0)
                 	LDI  R30,HIGH(@0)
                 	CPC  R27,R30
                 	LDI  R30,BYTE3(@0)
                 	CPC  R24,R30
                 	LDI  R30,BYTE4(@0)
                 	CPC  R25,R30
                 	.ENDM
                 
                 	.MACRO __CPWRR
                 	CP   R@0,R@2
                 	CPC  R@1,R@3
                 	.ENDM
                 
                 	.MACRO __CPWRN
                 	CPI  R@0,LOW(@2)
                 	LDI  R30,HIGH(@2)
                 	CPC  R@1,R30
                 	.ENDM
                 
                 	.MACRO __ADDB1MN
                 	SUBI R30,LOW(-@0-(@1))
                 	.ENDM
                 
                 	.MACRO __ADDB2MN
                 	SUBI R26,LOW(-@0-(@1))
                 	.ENDM
                 
                 	.MACRO __ADDW1MN
                 	SUBI R30,LOW(-@0-(@1))
                 	SBCI R31,HIGH(-@0-(@1))
                 	.ENDM
                 
                 	.MACRO __ADDW2MN
                 	SUBI R26,LOW(-@0-(@1))
                 	SBCI R27,HIGH(-@0-(@1))
                 	.ENDM
                 
                 	.MACRO __ADDW1FN
                 	SUBI R30,LOW(-2*@0-(@1))
                 	SBCI R31,HIGH(-2*@0-(@1))
                 	.ENDM
                 
                 	.MACRO __ADDD1FN
                 	SUBI R30,LOW(-2*@0-(@1))
                 	SBCI R31,HIGH(-2*@0-(@1))
                 	SBCI R22,BYTE3(-2*@0-(@1))
                 	.ENDM
                 
                 	.MACRO __ADDD1N
                 	SUBI R30,LOW(-@0)
                 	SBCI R31,HIGH(-@0)
                 	SBCI R22,BYTE3(-@0)
                 	SBCI R23,BYTE4(-@0)
                 	.ENDM
                 
                 	.MACRO __ADDD2N
                 	SUBI R26,LOW(-@0)
                 	SBCI R27,HIGH(-@0)
                 	SBCI R24,BYTE3(-@0)
                 	SBCI R25,BYTE4(-@0)
                 	.ENDM
                 
                 	.MACRO __SUBD1N
                 	SUBI R30,LOW(@0)
                 	SBCI R31,HIGH(@0)
                 	SBCI R22,BYTE3(@0)
                 	SBCI R23,BYTE4(@0)
                 	.ENDM
                 
                 	.MACRO __SUBD2N
                 	SUBI R26,LOW(@0)
                 	SBCI R27,HIGH(@0)
                 	SBCI R24,BYTE3(@0)
                 	SBCI R25,BYTE4(@0)
                 	.ENDM
                 
                 	.MACRO __ANDBMNN
                 	LDS  R30,@0+(@1)
                 	ANDI R30,LOW(@2)
                 	STS  @0+(@1),R30
                 	.ENDM
                 
                 	.MACRO __ANDWMNN
                 	LDS  R30,@0+(@1)
                 	ANDI R30,LOW(@2)
                 	STS  @0+(@1),R30
                 	LDS  R30,@0+(@1)+1
                 	ANDI R30,HIGH(@2)
                 	STS  @0+(@1)+1,R30
                 	.ENDM
                 
                 	.MACRO __ANDD1N
                 	ANDI R30,LOW(@0)
                 	ANDI R31,HIGH(@0)
                 	ANDI R22,BYTE3(@0)
                 	ANDI R23,BYTE4(@0)
                 	.ENDM
                 
                 	.MACRO __ANDD2N
                 	ANDI R26,LOW(@0)
                 	ANDI R27,HIGH(@0)
                 	ANDI R24,BYTE3(@0)
                 	ANDI R25,BYTE4(@0)
                 	.ENDM
                 
                 	.MACRO __ORBMNN
                 	LDS  R30,@0+(@1)
                 	ORI  R30,LOW(@2)
                 	STS  @0+(@1),R30
                 	.ENDM
                 
                 	.MACRO __ORWMNN
                 	LDS  R30,@0+(@1)
                 	ORI  R30,LOW(@2)
                 	STS  @0+(@1),R30
                 	LDS  R30,@0+(@1)+1
                 	ORI  R30,HIGH(@2)
                 	STS  @0+(@1)+1,R30
                 	.ENDM
                 
                 	.MACRO __ORD1N
                 	ORI  R30,LOW(@0)
                 	ORI  R31,HIGH(@0)
                 	ORI  R22,BYTE3(@0)
                 	ORI  R23,BYTE4(@0)
                 	.ENDM
                 
                 	.MACRO __ORD2N
                 	ORI  R26,LOW(@0)
                 	ORI  R27,HIGH(@0)
                 	ORI  R24,BYTE3(@0)
                 	ORI  R25,BYTE4(@0)
                 	.ENDM
                 
                 	.MACRO __DELAY_USB
                 	LDI  R24,LOW(@0)
                 __DELAY_USB_LOOP:
                 	DEC  R24
                 	BRNE __DELAY_USB_LOOP
                 	.ENDM
                 
                 	.MACRO __DELAY_USW
                 	LDI  R24,LOW(@0)
                 	LDI  R25,HIGH(@0)
                 __DELAY_USW_LOOP:
                 	SBIW R24,1
                 	BRNE __DELAY_USW_LOOP
                 	.ENDM
                 
                 	.MACRO __GETD1S
                 	LDD  R30,Y+@0
                 	LDD  R31,Y+@0+1
                 	LDD  R22,Y+@0+2
                 	LDD  R23,Y+@0+3
                 	.ENDM
                 
                 	.MACRO __GETD2S
                 	LDD  R26,Y+@0
                 	LDD  R27,Y+@0+1
                 	LDD  R24,Y+@0+2
                 	LDD  R25,Y+@0+3
                 	.ENDM
                 
                 	.MACRO __PUTD1S
                 	STD  Y+@0,R30
                 	STD  Y+@0+1,R31
                 	STD  Y+@0+2,R22
                 	STD  Y+@0+3,R23
                 	.ENDM
                 
                 	.MACRO __PUTD2S
                 	STD  Y+@0,R26
                 	STD  Y+@0+1,R27
                 	STD  Y+@0+2,R24
                 	STD  Y+@0+3,R25
                 	.ENDM
                 
                 	.MACRO __PUTDZ2
                 	STD  Z+@0,R26
                 	STD  Z+@0+1,R27
                 	STD  Z+@0+2,R24
                 	STD  Z+@0+3,R25
                 	.ENDM
                 
                 	.MACRO __CLRD1S
                 	STD  Y+@0,R30
                 	STD  Y+@0+1,R30
                 	STD  Y+@0+2,R30
                 	STD  Y+@0+3,R30
                 	.ENDM
                 
                 	.MACRO __POINTB1MN
                 	LDI  R30,LOW(@0+(@1))
                 	.ENDM
                 
                 	.MACRO __POINTW1MN
                 	LDI  R30,LOW(@0+(@1))
                 	LDI  R31,HIGH(@0+(@1))
                 	.ENDM
                 
                 	.MACRO __POINTD1M
                 	LDI  R30,LOW(@0)
                 	LDI  R31,HIGH(@0)
                 	LDI  R22,BYTE3(@0)
                 	LDI  R23,BYTE4(@0)
                 	.ENDM
                 
                 	.MACRO __POINTW1FN
                 	LDI  R30,LOW(2*@0+(@1))
                 	LDI  R31,HIGH(2*@0+(@1))
                 	.ENDM
                 
                 	.MACRO __POINTD1FN
                 	LDI  R30,LOW(2*@0+(@1))
                 	LDI  R31,HIGH(2*@0+(@1))
                 	LDI  R22,BYTE3(2*@0+(@1))
                 	LDI  R23,BYTE4(2*@0+(@1))
                 	.ENDM
                 
                 	.MACRO __POINTB2MN
                 	LDI  R26,LOW(@0+(@1))
                 	.ENDM
                 
                 	.MACRO __POINTW2MN
                 	LDI  R26,LOW(@0+(@1))
                 	LDI  R27,HIGH(@0+(@1))
                 	.ENDM
                 
                 	.MACRO __POINTW2FN
                 	LDI  R26,LOW(2*@0+(@1))
                 	LDI  R27,HIGH(2*@0+(@1))
                 	.ENDM
                 
                 	.MACRO __POINTD2FN
                 	LDI  R26,LOW(2*@0+(@1))
                 	LDI  R27,HIGH(2*@0+(@1))
                 	LDI  R24,BYTE3(2*@0+(@1))
                 	LDI  R25,BYTE4(2*@0+(@1))
                 	.ENDM
                 
                 	.MACRO __POINTBRM
                 	LDI  R@0,LOW(@1)
                 	.ENDM
                 
                 	.MACRO __POINTWRM
                 	LDI  R@0,LOW(@2)
                 	LDI  R@1,HIGH(@2)
                 	.ENDM
                 
                 	.MACRO __POINTBRMN
                 	LDI  R@0,LOW(@1+(@2))
                 	.ENDM
                 
                 	.MACRO __POINTWRMN
                 	LDI  R@0,LOW(@2+(@3))
                 	LDI  R@1,HIGH(@2+(@3))
                 	.ENDM
                 
                 	.MACRO __POINTWRFN
                 	LDI  R@0,LOW(@2*2+(@3))
                 	LDI  R@1,HIGH(@2*2+(@3))
                 	.ENDM
                 
                 	.MACRO __GETD1N
                 	LDI  R30,LOW(@0)
                 	LDI  R31,HIGH(@0)
                 	LDI  R22,BYTE3(@0)
                 	LDI  R23,BYTE4(@0)
                 	.ENDM
                 
                 	.MACRO __GETD2N
                 	LDI  R26,LOW(@0)
                 	LDI  R27,HIGH(@0)
                 	LDI  R24,BYTE3(@0)
                 	LDI  R25,BYTE4(@0)
                 	.ENDM
                 
                 	.MACRO __GETB1MN
                 	LDS  R30,@0+(@1)
                 	.ENDM
                 
                 	.MACRO __GETB1HMN
                 	LDS  R31,@0+(@1)
                 	.ENDM
                 
                 	.MACRO __GETW1MN
                 	LDS  R30,@0+(@1)
                 	LDS  R31,@0+(@1)+1
                 	.ENDM
                 
                 	.MACRO __GETD1MN
                 	LDS  R30,@0+(@1)
                 	LDS  R31,@0+(@1)+1
                 	LDS  R22,@0+(@1)+2
                 	LDS  R23,@0+(@1)+3
                 	.ENDM
                 
                 	.MACRO __GETBRMN
                 	LDS  R@0,@1+(@2)
                 	.ENDM
                 
                 	.MACRO __GETWRMN
                 	LDS  R@0,@2+(@3)
                 	LDS  R@1,@2+(@3)+1
                 	.ENDM
                 
                 	.MACRO __GETWRZ
                 	LDD  R@0,Z+@2
                 	LDD  R@1,Z+@2+1
                 	.ENDM
                 
                 	.MACRO __GETD2Z
                 	LDD  R26,Z+@0
                 	LDD  R27,Z+@0+1
                 	LDD  R24,Z+@0+2
                 	LDD  R25,Z+@0+3
                 	.ENDM
                 
                 	.MACRO __GETB2MN
                 	LDS  R26,@0+(@1)
                 	.ENDM
                 
                 	.MACRO __GETW2MN
                 	LDS  R26,@0+(@1)
                 	LDS  R27,@0+(@1)+1
                 	.ENDM
                 
                 	.MACRO __GETD2MN
                 	LDS  R26,@0+(@1)
                 	LDS  R27,@0+(@1)+1
                 	LDS  R24,@0+(@1)+2
                 	LDS  R25,@0+(@1)+3
                 	.ENDM
                 
                 	.MACRO __PUTB1MN
                 	STS  @0+(@1),R30
                 	.ENDM
                 
                 	.MACRO __PUTW1MN
                 	STS  @0+(@1),R30
                 	STS  @0+(@1)+1,R31
                 	.ENDM
                 
                 	.MACRO __PUTD1MN
                 	STS  @0+(@1),R30
                 	STS  @0+(@1)+1,R31
                 	STS  @0+(@1)+2,R22
                 	STS  @0+(@1)+3,R23
                 	.ENDM
                 
                 	.MACRO __PUTB1EN
                 	LDI  R26,LOW(@0+(@1))
                 	LDI  R27,HIGH(@0+(@1))
                 	CALL __EEPROMWRB
                 	.ENDM
                 
                 	.MACRO __PUTW1EN
                 	LDI  R26,LOW(@0+(@1))
                 	LDI  R27,HIGH(@0+(@1))
                 	CALL __EEPROMWRW
                 	.ENDM
                 
                 	.MACRO __PUTD1EN
                 	LDI  R26,LOW(@0+(@1))
                 	LDI  R27,HIGH(@0+(@1))
                 	CALL __EEPROMWRD
                 	.ENDM
                 
                 	.MACRO __PUTBR0MN
                 	STS  @0+(@1),R0
                 	.ENDM
                 
                 	.MACRO __PUTBMRN
                 	STS  @0+(@1),R@2
                 	.ENDM
                 
                 	.MACRO __PUTWMRN
                 	STS  @0+(@1),R@2
                 	STS  @0+(@1)+1,R@3
                 	.ENDM
                 
                 	.MACRO __PUTBZR
                 	STD  Z+@1,R@0
                 	.ENDM
                 
                 	.MACRO __PUTWZR
                 	STD  Z+@2,R@0
                 	STD  Z+@2+1,R@1
                 	.ENDM
                 
                 	.MACRO __GETW1R
                 	MOV  R30,R@0
                 	MOV  R31,R@1
                 	.ENDM
                 
                 	.MACRO __GETW2R
                 	MOV  R26,R@0
                 	MOV  R27,R@1
                 	.ENDM
                 
                 	.MACRO __GETWRN
                 	LDI  R@0,LOW(@2)
                 	LDI  R@1,HIGH(@2)
                 	.ENDM
                 
                 	.MACRO __PUTW1R
                 	MOV  R@0,R30
                 	MOV  R@1,R31
                 	.ENDM
                 
                 	.MACRO __PUTW2R
                 	MOV  R@0,R26
                 	MOV  R@1,R27
                 	.ENDM
                 
                 	.MACRO __ADDWRN
                 	SUBI R@0,LOW(-@2)
                 	SBCI R@1,HIGH(-@2)
                 	.ENDM
                 
                 	.MACRO __ADDWRR
                 	ADD  R@0,R@2
                 	ADC  R@1,R@3
                 	.ENDM
                 
                 	.MACRO __SUBWRN
                 	SUBI R@0,LOW(@2)
                 	SBCI R@1,HIGH(@2)
                 	.ENDM
                 
                 	.MACRO __SUBWRR
                 	SUB  R@0,R@2
                 	SBC  R@1,R@3
                 	.ENDM
                 
                 	.MACRO __ANDWRN
                 	ANDI R@0,LOW(@2)
                 	ANDI R@1,HIGH(@2)
                 	.ENDM
                 
                 	.MACRO __ANDWRR
                 	AND  R@0,R@2
                 	AND  R@1,R@3
                 	.ENDM
                 
                 	.MACRO __ORWRN
                 	ORI  R@0,LOW(@2)
                 	ORI  R@1,HIGH(@2)
                 	.ENDM
                 
                 	.MACRO __ORWRR
                 	OR   R@0,R@2
                 	OR   R@1,R@3
                 	.ENDM
                 
                 	.MACRO __EORWRR
                 	EOR  R@0,R@2
                 	EOR  R@1,R@3
                 	.ENDM
                 
                 	.MACRO __GETWRS
                 	LDD  R@0,Y+@2
                 	LDD  R@1,Y+@2+1
                 	.ENDM
                 
                 	.MACRO __PUTBSR
                 	STD  Y+@1,R@0
                 	.ENDM
                 
                 	.MACRO __PUTWSR
                 	STD  Y+@2,R@0
                 	STD  Y+@2+1,R@1
                 	.ENDM
                 
                 	.MACRO __MOVEWRR
                 	MOV  R@0,R@2
                 	MOV  R@1,R@3
                 	.ENDM
                 
                 	.MACRO __INWR
                 	IN   R@0,@2
                 	IN   R@1,@2+1
                 	.ENDM
                 
                 	.MACRO __OUTWR
                 	OUT  @2+1,R@1
                 	OUT  @2,R@0
                 	.ENDM
                 
                 	.MACRO __CALL1MN
                 	LDS  R30,@0+(@1)
                 	LDS  R31,@0+(@1)+1
                 	ICALL
                 	.ENDM
                 
                 	.MACRO __CALL1FN
                 	LDI  R30,LOW(2*@0+(@1))
                 	LDI  R31,HIGH(2*@0+(@1))
                 	CALL __GETW1PF
                 	ICALL
                 	.ENDM
                 
                 	.MACRO __CALL2EN
                 	PUSH R26
                 	PUSH R27
                 	LDI  R26,LOW(@0+(@1))
                 	LDI  R27,HIGH(@0+(@1))
                 	CALL __EEPROMRDW
                 	POP  R27
                 	POP  R26
                 	ICALL
                 	.ENDM
                 
                 	.MACRO __CALL2EX
                 	SUBI R26,LOW(-@0)
                 	SBCI R27,HIGH(-@0)
                 	CALL __EEPROMRDD
                 	ICALL
                 	.ENDM
                 
                 	.MACRO __GETW1STACK
                 	IN   R30,SPL
                 	IN   R31,SPH
                 	ADIW R30,@0+1
                 	LD   R0,Z+
                 	LD   R31,Z
                 	MOV  R30,R0
                 	.ENDM
                 
                 	.MACRO __GETD1STACK
                 	IN   R30,SPL
                 	IN   R31,SPH
                 	ADIW R30,@0+1
                 	LD   R0,Z+
                 	LD   R1,Z+
                 	LD   R22,Z
                 	MOVW R30,R0
                 	.ENDM
                 
                 	.MACRO __NBST
                 	BST  R@0,@1
                 	IN   R30,SREG
                 	LDI  R31,0x40
                 	EOR  R30,R31
                 	OUT  SREG,R30
                 	.ENDM
                 
                 
                 	.MACRO __PUTB1SN
                 	LDD  R26,Y+@0
                 	LDD  R27,Y+@0+1
                 	SUBI R26,LOW(-@1)
                 	SBCI R27,HIGH(-@1)
                 	ST   X,R30
                 	.ENDM
                 
                 	.MACRO __PUTW1SN
                 	LDD  R26,Y+@0
                 	LDD  R27,Y+@0+1
                 	SUBI R26,LOW(-@1)
                 	SBCI R27,HIGH(-@1)
                 	ST   X+,R30
                 	ST   X,R31
                 	.ENDM
                 
                 	.MACRO __PUTD1SN
                 	LDD  R26,Y+@0
                 	LDD  R27,Y+@0+1
                 	SUBI R26,LOW(-@1)
                 	SBCI R27,HIGH(-@1)
                 	CALL __PUTDP1
                 	.ENDM
                 
                 	.MACRO __PUTB1SNS
                 	LDD  R26,Y+@0
                 	LDD  R27,Y+@0+1
                 	ADIW R26,@1
                 	ST   X,R30
                 	.ENDM
                 
                 	.MACRO __PUTW1SNS
                 	LDD  R26,Y+@0
                 	LDD  R27,Y+@0+1
                 	ADIW R26,@1
                 	ST   X+,R30
                 	ST   X,R31
                 	.ENDM
                 
                 	.MACRO __PUTD1SNS
                 	LDD  R26,Y+@0
                 	LDD  R27,Y+@0+1
                 	ADIW R26,@1
                 	CALL __PUTDP1
                 	.ENDM
                 
                 	.MACRO __PUTB1PMN
                 	LDS  R26,@0
                 	LDS  R27,@0+1
                 	SUBI R26,LOW(-@1)
                 	SBCI R27,HIGH(-@1)
                 	ST   X,R30
                 	.ENDM
                 
                 	.MACRO __PUTW1PMN
                 	LDS  R26,@0
                 	LDS  R27,@0+1
                 	SUBI R26,LOW(-@1)
                 	SBCI R27,HIGH(-@1)
                 	ST   X+,R30
                 	ST   X,R31
                 	.ENDM
                 
                 	.MACRO __PUTD1PMN
                 	LDS  R26,@0
                 	LDS  R27,@0+1
                 	SUBI R26,LOW(-@1)
                 	SBCI R27,HIGH(-@1)
                 	CALL __PUTDP1
                 	.ENDM
                 
                 	.MACRO __PUTB1PMNS
                 	LDS  R26,@0
                 	LDS  R27,@0+1
                 	ADIW R26,@1
                 	ST   X,R30
                 	.ENDM
                 
                 	.MACRO __PUTW1PMNS
                 	LDS  R26,@0
                 	LDS  R27,@0+1
                 	ADIW R26,@1
                 	ST   X+,R30
                 	ST   X,R31
                 	.ENDM
                 
                 	.MACRO __PUTD1PMNS
                 	LDS  R26,@0
                 	LDS  R27,@0+1
                 	ADIW R26,@1
                 	CALL __PUTDP1
                 	.ENDM
                 
                 	.MACRO __PUTB1RN
                 	MOVW R26,R@0
                 	SUBI R26,LOW(-@1)
                 	SBCI R27,HIGH(-@1)
                 	ST   X,R30
                 	.ENDM
                 
                 	.MACRO __PUTW1RN
                 	MOVW R26,R@0
                 	SUBI R26,LOW(-@1)
                 	SBCI R27,HIGH(-@1)
                 	ST   X+,R30
                 	ST   X,R31
                 	.ENDM
                 
                 	.MACRO __PUTD1RN
                 	MOVW R26,R@0
                 	SUBI R26,LOW(-@1)
                 	SBCI R27,HIGH(-@1)
                 	CALL __PUTDP1
                 	.ENDM
                 
                 	.MACRO __PUTB1RNS
                 	MOVW R26,R@0
                 	ADIW R26,@1
                 	ST   X,R30
                 	.ENDM
                 
                 	.MACRO __PUTW1RNS
                 	MOVW R26,R@0
                 	ADIW R26,@1
                 	ST   X+,R30
                 	ST   X,R31
                 	.ENDM
                 
                 	.MACRO __PUTD1RNS
                 	MOVW R26,R@0
                 	ADIW R26,@1
                 	CALL __PUTDP1
                 	.ENDM
                 
                 	.MACRO __PUTB1RON
                 	MOV  R26,R@0
                 	MOV  R27,R@1
                 	SUBI R26,LOW(-@2)
                 	SBCI R27,HIGH(-@2)
                 	ST   X,R30
                 	.ENDM
                 
                 	.MACRO __PUTW1RON
                 	MOV  R26,R@0
                 	MOV  R27,R@1
                 	SUBI R26,LOW(-@2)
                 	SBCI R27,HIGH(-@2)
                 	ST   X+,R30
                 	ST   X,R31
                 	.ENDM
                 
                 	.MACRO __PUTD1RON
                 	MOV  R26,R@0
                 	MOV  R27,R@1
                 	SUBI R26,LOW(-@2)
                 	SBCI R27,HIGH(-@2)
                 	CALL __PUTDP1
                 	.ENDM
                 
                 	.MACRO __PUTB1RONS
                 	MOV  R26,R@0
                 	MOV  R27,R@1
                 	ADIW R26,@2
                 	ST   X,R30
                 	.ENDM
                 
                 	.MACRO __PUTW1RONS
                 	MOV  R26,R@0
                 	MOV  R27,R@1
                 	ADIW R26,@2
                 	ST   X+,R30
                 	ST   X,R31
                 	.ENDM
                 
                 	.MACRO __PUTD1RONS
                 	MOV  R26,R@0
                 	MOV  R27,R@1
                 	ADIW R26,@2
                 	CALL __PUTDP1
                 	.ENDM
                 
                 
                 	.MACRO __GETB1SX
                 	MOVW R30,R28
                 	SUBI R30,LOW(-@0)
                 	SBCI R31,HIGH(-@0)
                 	LD   R30,Z
                 	.ENDM
                 
                 	.MACRO __GETB1HSX
                 	MOVW R30,R28
                 	SUBI R30,LOW(-@0)
                 	SBCI R31,HIGH(-@0)
                 	LD   R31,Z
                 	.ENDM
                 
                 	.MACRO __GETW1SX
                 	MOVW R30,R28
                 	SUBI R30,LOW(-@0)
                 	SBCI R31,HIGH(-@0)
                 	LD   R0,Z+
                 	LD   R31,Z
                 	MOV  R30,R0
                 	.ENDM
                 
                 	.MACRO __GETD1SX
                 	MOVW R30,R28
                 	SUBI R30,LOW(-@0)
                 	SBCI R31,HIGH(-@0)
                 	LD   R0,Z+
                 	LD   R1,Z+
                 	LD   R22,Z+
                 	LD   R23,Z
                 	MOVW R30,R0
                 	.ENDM
                 
                 	.MACRO __GETB2SX
                 	MOVW R26,R28
                 	SUBI R26,LOW(-@0)
                 	SBCI R27,HIGH(-@0)
                 	LD   R26,X
                 	.ENDM
                 
                 	.MACRO __GETW2SX
                 	MOVW R26,R28
                 	SUBI R26,LOW(-@0)
                 	SBCI R27,HIGH(-@0)
                 	LD   R0,X+
                 	LD   R27,X
                 	MOV  R26,R0
                 	.ENDM
                 
                 	.MACRO __GETD2SX
                 	MOVW R26,R28
                 	SUBI R26,LOW(-@0)
                 	SBCI R27,HIGH(-@0)
                 	LD   R0,X+
                 	LD   R1,X+
                 	LD   R24,X+
                 	LD   R25,X
                 	MOVW R26,R0
                 	.ENDM
                 
                 	.MACRO __GETBRSX
                 	MOVW R30,R28
                 	SUBI R30,LOW(-@1)
                 	SBCI R31,HIGH(-@1)
                 	LD   R@0,Z
                 	.ENDM
                 
                 	.MACRO __GETWRSX
                 	MOVW R30,R28
                 	SUBI R30,LOW(-@2)
                 	SBCI R31,HIGH(-@2)
                 	LD   R@0,Z+
                 	LD   R@1,Z
                 	.ENDM
                 
                 	.MACRO __GETBRSX2
                 	MOVW R26,R28
                 	SUBI R26,LOW(-@1)
                 	SBCI R27,HIGH(-@1)
                 	LD   R@0,X
                 	.ENDM
                 
                 	.MACRO __GETWRSX2
                 	MOVW R26,R28
                 	SUBI R26,LOW(-@2)
                 	SBCI R27,HIGH(-@2)
                 	LD   R@0,X+
                 	LD   R@1,X
                 	.ENDM
                 
                 	.MACRO __LSLW8SX
                 	MOVW R30,R28
                 	SUBI R30,LOW(-@0)
                 	SBCI R31,HIGH(-@0)
                 	LD   R31,Z
                 	CLR  R30
                 	.ENDM
                 
                 	.MACRO __PUTB1SX
                 	MOVW R26,R28
                 	SUBI R26,LOW(-@0)
                 	SBCI R27,HIGH(-@0)
                 	ST   X,R30
                 	.ENDM
                 
                 	.MACRO __PUTW1SX
                 	MOVW R26,R28
                 	SUBI R26,LOW(-@0)
                 	SBCI R27,HIGH(-@0)
                 	ST   X+,R30
                 	ST   X,R31
                 	.ENDM
                 
                 	.MACRO __PUTD1SX
                 	MOVW R26,R28
                 	SUBI R26,LOW(-@0)
                 	SBCI R27,HIGH(-@0)
                 	ST   X+,R30
                 	ST   X+,R31
                 	ST   X+,R22
                 	ST   X,R23
                 	.ENDM
                 
                 	.MACRO __CLRW1SX
                 	MOVW R26,R28
                 	SUBI R26,LOW(-@0)
                 	SBCI R27,HIGH(-@0)
                 	ST   X+,R30
                 	ST   X,R30
                 	.ENDM
                 
                 	.MACRO __CLRD1SX
                 	MOVW R26,R28
                 	SUBI R26,LOW(-@0)
                 	SBCI R27,HIGH(-@0)
                 	ST   X+,R30
                 	ST   X+,R30
                 	ST   X+,R30
                 	ST   X,R30
                 	.ENDM
                 
                 	.MACRO __PUTB2SX
                 	MOVW R30,R28
                 	SUBI R30,LOW(-@0)
                 	SBCI R31,HIGH(-@0)
                 	ST   Z,R26
                 	.ENDM
                 
                 	.MACRO __PUTW2SX
                 	MOVW R30,R28
                 	SUBI R30,LOW(-@0)
                 	SBCI R31,HIGH(-@0)
                 	ST   Z+,R26
                 	ST   Z,R27
                 	.ENDM
                 
                 	.MACRO __PUTD2SX
                 	MOVW R30,R28
                 	SUBI R30,LOW(-@0)
                 	SBCI R31,HIGH(-@0)
                 	ST   Z+,R26
                 	ST   Z+,R27
                 	ST   Z+,R24
                 	ST   Z,R25
                 	.ENDM
                 
                 	.MACRO __PUTBSRX
                 	MOVW R30,R28
                 	SUBI R30,LOW(-@1)
                 	SBCI R31,HIGH(-@1)
                 	ST   Z,R@0
                 	.ENDM
                 
                 	.MACRO __PUTWSRX
                 	MOVW R30,R28
                 	SUBI R30,LOW(-@2)
                 	SBCI R31,HIGH(-@2)
                 	ST   Z+,R@0
                 	ST   Z,R@1
                 	.ENDM
                 
                 	.MACRO __PUTB1SNX
                 	MOVW R26,R28
                 	SUBI R26,LOW(-@0)
                 	SBCI R27,HIGH(-@0)
                 	LD   R0,X+
                 	LD   R27,X
                 	MOV  R26,R0
                 	SUBI R26,LOW(-@1)
                 	SBCI R27,HIGH(-@1)
                 	ST   X,R30
                 	.ENDM
                 
                 	.MACRO __PUTW1SNX
                 	MOVW R26,R28
                 	SUBI R26,LOW(-@0)
                 	SBCI R27,HIGH(-@0)
                 	LD   R0,X+
                 	LD   R27,X
                 	MOV  R26,R0
                 	SUBI R26,LOW(-@1)
                 	SBCI R27,HIGH(-@1)
                 	ST   X+,R30
                 	ST   X,R31
                 	.ENDM
                 
                 	.MACRO __PUTD1SNX
                 	MOVW R26,R28
                 	SUBI R26,LOW(-@0)
                 	SBCI R27,HIGH(-@0)
                 	LD   R0,X+
                 	LD   R27,X
                 	MOV  R26,R0
                 	SUBI R26,LOW(-@1)
                 	SBCI R27,HIGH(-@1)
                 	ST   X+,R30
                 	ST   X+,R31
                 	ST   X+,R22
                 	ST   X,R23
                 	.ENDM
                 
                 	.MACRO __MULBRR
                 	MULS R@0,R@1
                 	MOVW R30,R0
                 	.ENDM
                 
                 	.MACRO __MULBRRU
                 	MUL  R@0,R@1
                 	MOVW R30,R0
                 	.ENDM
                 
                 	.MACRO __MULBRR0
                 	MULS R@0,R@1
                 	.ENDM
                 
                 	.MACRO __MULBRRU0
                 	MUL  R@0,R@1
                 	.ENDM
                 
                 	.MACRO __MULBNWRU
                 	LDI  R26,@2
                 	MUL  R26,R@0
                 	MOVW R30,R0
                 	MUL  R26,R@1
                 	ADD  R31,R0
                 	.ENDM
                 
                 ;NAME DEFINITIONS FOR GLOBAL VARIABLES ALLOCATED TO REGISTERS
                 	.DEF _t0_cnt0=R3
                 	.DEF _t0_cnt1=R2
                 	.DEF _t0_cnt2=R5
                 	.DEF _t0_cnt3=R4
                 	.DEF _t0_cnt4=R7
                 	.DEF _cnt_ind=R6
                 	.DEF _adc_cnt0=R9
                 	.DEF _adc_cnt1=R8
                 	.DEF _lcd_flash0=R11
                 	.DEF _lcd_flashx0=R10
                 	.DEF _lcd_flashy0=R13
                 	.DEF _volum=R12
                 
                 ;GPIOR0-GPIOR2 INITIALIZATION VALUES
                 	.EQU __GPIOR0_INIT=0x00
                 	.EQU __GPIOR1_INIT=0x00
                 	.EQU __GPIOR2_INIT=0x00
                 
                 	.CSEG
                 	.ORG 0x00
                 
                 ;START OF CODE MARKER
                 __START_OF_CODE:
                 
                 ;INTERRUPT VECTORS
000000 940c 008f 	JMP  __RESET
000002 940c 0000 	JMP  0x00
000004 940c 0000 	JMP  0x00
000006 940c 0000 	JMP  0x00
000008 940c 0000 	JMP  0x00
00000a 940c 0000 	JMP  0x00
00000c 940c 0000 	JMP  0x00
00000e 940c 0000 	JMP  0x00
000010 940c 0000 	JMP  0x00
000012 940c 0000 	JMP  0x00
000014 940c 0000 	JMP  0x00
000016 940c 0000 	JMP  0x00
000018 940c 0000 	JMP  0x00
00001a 940c 0000 	JMP  0x00
00001c 940c 0000 	JMP  0x00
00001e 940c 0000 	JMP  0x00
000020 940c 0f87 	JMP  _timer0_ovf_isr
000022 940c 0000 	JMP  0x00
000024 940c 0000 	JMP  0x00
000026 940c 0000 	JMP  0x00
000028 940c 0000 	JMP  0x00
00002a 940c 0000 	JMP  0x00
00002c 940c 0000 	JMP  0x00
00002e 940c 0000 	JMP  0x00
000030 940c 0000 	JMP  0x00
000032 940c 0000 	JMP  0x00
                 
                 _tbl10_G100:
000034 2710
000035 03e8
000036 0064
000037 000a      	.DB  0x10,0x27,0xE8,0x3,0x64,0x0,0xA,0x0
000038 0001      	.DB  0x1,0x0
                 _tbl16_G100:
000039 1000
00003a 0100
00003b 0010
00003c 0001      	.DB  0x0,0x10,0x0,0x1,0x10,0x0,0x1,0x0
                 
                 ;GLOBAL REGISTER VARIABLES INITIALIZATION
                 __REG_VARS:
00003d 0000
00003e 0000      	.DB  0x0,0x0,0x0,0x0
                 
                 _0x3:
00003f 0000
000040 0048
000041 007d
000042 00b1      	.DB  0x0,0x0,0x48,0x0,0x7D,0x0,0xB1,0x0
000043 00d9
000044 00fe
000045 011e
000046 013e      	.DB  0xD9,0x0,0xFE,0x0,0x1E,0x1,0x3E,0x1
000047 015a
000048 0174
000049 0190
00004a 01ab      	.DB  0x5A,0x1,0x74,0x1,0x90,0x1,0xAB,0x1
00004b 01c5
00004c 01de
00004d 01f6
00004e 020d      	.DB  0xC5,0x1,0xDE,0x1,0xF6,0x1,0xD,0x2
                 _0x4:
00004f 5550
000050 5555      	.DB  0x50,0x55,0x55,0x55
                 _0x5:
000051 aaaa
000052 aaaa      	.DB  0xAA,0xAA,0xAA,0xAA
                 _0x6:
E:\USERS\PAL\DEVICES\BPS1000.06\SOFT\Release\List\BPS.asm(1164): warning: .cseg .db misalignment - padding zero byte
000053 001e      	.DB  0x1E
                 _0x7:
E:\USERS\PAL\DEVICES\BPS1000.06\SOFT\Release\List\BPS.asm(1166): warning: .cseg .db misalignment - padding zero byte
000054 0032      	.DB  0x32
                 _0x8:
E:\USERS\PAL\DEVICES\BPS1000.06\SOFT\Release\List\BPS.asm(1168): warning: .cseg .db misalignment - padding zero byte
000055 0032      	.DB  0x32
                 _0x9:
E:\USERS\PAL\DEVICES\BPS1000.06\SOFT\Release\List\BPS.asm(1170): warning: .cseg .db misalignment - padding zero byte
000056 000d      	.DB  0xD
                 _0x47:
E:\USERS\PAL\DEVICES\BPS1000.06\SOFT\Release\List\BPS.asm(1172): warning: .cseg .db misalignment - padding zero byte
000057 007b      	.DB  0x7B
                 _0x20003:
E:\USERS\PAL\DEVICES\BPS1000.06\SOFT\Release\List\BPS.asm(1174): warning: .cseg .db misalignment - padding zero byte
000058 0015      	.DB  0x15
                 _0x20004:
E:\USERS\PAL\DEVICES\BPS1000.06\SOFT\Release\List\BPS.asm(1176): warning: .cseg .db misalignment - padding zero byte
000059 0009      	.DB  0x9
                 _0x20005:
E:\USERS\PAL\DEVICES\BPS1000.06\SOFT\Release\List\BPS.asm(1178): warning: .cseg .db misalignment - padding zero byte
00005a 0009      	.DB  0x9
                 _0x20006:
00005b 07e7      	.DB  0xE7,0x7
                 _0x20007:
E:\USERS\PAL\DEVICES\BPS1000.06\SOFT\Release\List\BPS.asm(1182): warning: .cseg .db misalignment - padding zero byte
00005c 0009      	.DB  0x9
                 _0x20008:
E:\USERS\PAL\DEVICES\BPS1000.06\SOFT\Release\List\BPS.asm(1184): warning: .cseg .db misalignment - padding zero byte
00005d 001a      	.DB  0x1A
                 _0x20A0060:
E:\USERS\PAL\DEVICES\BPS1000.06\SOFT\Release\List\BPS.asm(1186): warning: .cseg .db misalignment - padding zero byte
00005e 0001      	.DB  0x1
                 _0x20A0000:
00005f 4e2d
000060 4e41
000061 4900
000062 464e      	.DB  0x2D,0x4E,0x41,0x4E,0x0,0x49,0x4E,0x46
E:\USERS\PAL\DEVICES\BPS1000.06\SOFT\Release\List\BPS.asm(1189): warning: .cseg .db misalignment - padding zero byte
000063 0000      	.DB  0x0
                 
                 __GLOBAL_INI_TBL:
000064 0004      	.DW  0x04
000065 000a      	.DW  0x0A
000066 007a      	.DW  __REG_VARS*2
                 
000067 0004      	.DW  0x04
000068 029a      	.DW  _led_red
000069 009e      	.DW  _0x4*2
                 
00006a 0004      	.DW  0x04
00006b 029e      	.DW  _led_green
00006c 00a2      	.DW  _0x5*2
                 
00006d 0001      	.DW  0x01
00006e 02a4      	.DW  _led_drv_cnt
00006f 00a6      	.DW  _0x6*2
                 
000070 0001      	.DW  0x01
000071 02a9      	.DW  _pwm_u
000072 00a8      	.DW  _0x7*2
                 
000073 0001      	.DW  0x01
000074 02b5      	.DW  __x_
000075 00ac      	.DW  _0x9*2
                 
000076 0001      	.DW  0x01
000077 0328      	.DW  _rotor_int
000078 00ae      	.DW  _0x47*2
                 
000079 0001      	.DW  0x01
00007a 02cf      	.DW  _HARDVARE_VERSION
00007b 00b0      	.DW  _0x20003*2
                 
00007c 0001      	.DW  0x01
00007d 02d1      	.DW  _SOFT_VERSION
00007e 00b2      	.DW  _0x20004*2
                 
00007f 0001      	.DW  0x01
000080 02d3      	.DW  _BUILD
000081 00b4      	.DW  _0x20005*2
                 
000082 0002      	.DW  0x02
000083 02d5      	.DW  _BUILD_YEAR
000084 00b6      	.DW  _0x20006*2
                 
000085 0001      	.DW  0x01
000086 02d7      	.DW  _BUILD_MONTH
000087 00b8      	.DW  _0x20007*2
                 
000088 0001      	.DW  0x01
000089 02d9      	.DW  _BUILD_DAY
00008a 00ba      	.DW  _0x20008*2
                 
00008b 0001      	.DW  0x01
00008c 0333      	.DW  __seed_G105
00008d 00bc      	.DW  _0x20A0060*2
                 
                 _0xFFFFFFFF:
00008e 0000      	.DW  0
                 
                 #define __GLOBAL_INI_TBL_PRESENT 1
                 
                 __RESET:
00008f 94f8      	CLI
000090 27ee      	CLR  R30
000091 bbef      	OUT  EECR,R30
                 
                 ;INTERRUPT VECTORS ARE PLACED
                 ;AT THE START OF FLASH
000092 e0f1      	LDI  R31,1
000093 bff5      	OUT  MCUCR,R31
000094 bfe5      	OUT  MCUCR,R30
                 
                 ;DISABLE WATCHDOG
000095 e1f8      	LDI  R31,0x18
000096 95a8      	WDR
000097 b7a4      	IN   R26,MCUSR
000098 7fa7      	CBR  R26,8
000099 bfa4      	OUT  MCUSR,R26
00009a 93f0 0060 	STS  WDTCSR,R31
00009c 93e0 0060 	STS  WDTCSR,R30
                 
                 ;CLEAR R2-R14
00009e e08d      	LDI  R24,(14-2)+1
00009f e0a2      	LDI  R26,2
0000a0 27bb      	CLR  R27
                 __CLEAR_REG:
0000a1 93ed      	ST   X+,R30
0000a2 958a      	DEC  R24
0000a3 f7e9      	BRNE __CLEAR_REG
                 
                 ;CLEAR SRAM
0000a4 e080      	LDI  R24,LOW(__CLEAR_SRAM_SIZE)
0000a5 e094      	LDI  R25,HIGH(__CLEAR_SRAM_SIZE)
0000a6 e0a0      	LDI  R26,LOW(__SRAM_START)
0000a7 e0b1      	LDI  R27,HIGH(__SRAM_START)
                 __CLEAR_SRAM:
0000a8 93ed      	ST   X+,R30
0000a9 9701      	SBIW R24,1
0000aa f7e9      	BRNE __CLEAR_SRAM
                 
                 ;GLOBAL VARIABLES INITIALIZATION
0000ab ece8      	LDI  R30,LOW(__GLOBAL_INI_TBL*2)
0000ac e0f0      	LDI  R31,HIGH(__GLOBAL_INI_TBL*2)
                 __GLOBAL_INI_NEXT:
0000ad 9185      	LPM  R24,Z+
0000ae 9195      	LPM  R25,Z+
0000af 9700      	SBIW R24,0
0000b0 f061      	BREQ __GLOBAL_INI_END
0000b1 91a5      	LPM  R26,Z+
0000b2 91b5      	LPM  R27,Z+
0000b3 9005      	LPM  R0,Z+
0000b4 9015      	LPM  R1,Z+
0000b5 01bf      	MOVW R22,R30
0000b6 01f0      	MOVW R30,R0
                 __GLOBAL_INI_LOOP:
0000b7 9005      	LPM  R0,Z+
0000b8 920d      	ST   X+,R0
0000b9 9701      	SBIW R24,1
0000ba f7e1      	BRNE __GLOBAL_INI_LOOP
0000bb 01fb      	MOVW R30,R22
0000bc cff0      	RJMP __GLOBAL_INI_NEXT
                 __GLOBAL_INI_END:
                 
                 ;GPIOR0-GPIOR2 INITIALIZATION
0000bd e0e0      	LDI  R30,__GPIOR0_INIT
0000be bbee      	OUT  GPIOR0,R30
                 	;__GPIOR1_INIT = __GPIOR0_INIT
0000bf bdea      	OUT  GPIOR1,R30
                 	;__GPIOR2_INIT = __GPIOR0_INIT
0000c0 bdeb      	OUT  GPIOR2,R30
                 
                 ;HARDWARE STACK POINTER INITIALIZATION
0000c1 efef      	LDI  R30,LOW(__SRAM_END-__HEAP_SIZE)
0000c2 bfed      	OUT  SPL,R30
0000c3 e0e4      	LDI  R30,HIGH(__SRAM_END-__HEAP_SIZE)
0000c4 bfee      	OUT  SPH,R30
                 
                 ;DATA STACK POINTER INITIALIZATION
0000c5 e0c0      	LDI  R28,LOW(__SRAM_START+__DSTACK_SIZE)
0000c6 e0d2      	LDI  R29,HIGH(__SRAM_START+__DSTACK_SIZE)
                 
0000c7 940c 0fd1 	JMP  _main
                 
                 	.ESEG
                 	.ORG 0
                 
                 	.DSEG
                 	.ORG 0x200
                 
                 	.CSEG
                 ;#define F_REF 8000000L
                 ;#define F_COMP 10000L
                 ;#include <Mega168.h>
                 	#ifndef __SLEEP_DEFINED__
                 	#define __SLEEP_DEFINED__
                 	.EQU __se_bit=0x01
                 	.EQU __sm_mask=0x0E
                 	.EQU __sm_adc_noise_red=0x02
                 	.EQU __sm_powerdown=0x04
                 	.EQU __sm_powersave=0x06
                 	.EQU __sm_standby=0x0C
                 	.SET power_ctrl_reg=smcr
                 	#endif
                 ;#include <delay.h>
                 ;
                 ;//#define KAN_XTAL	8
                 ;#define KAN_XTAL	10
                 ;//#define KAN_XTAL	20
                 ;#include "cmd.c"
                 ;//-----------------------------------------------
                 ;// Символы передач
                 ;#define REGU 0xf5
                 ;#define REGI 0xf6
                 ;#define GetTemp 0xfc
                 ;#define TVOL0 0x75
                 ;#define TVOL1 0x76
                 ;#define TVOL2 0x77
                 ;#define TTEMPER	0x7c
                 ;#define CSTART  0x1a
                 ;#define CMND	0x16
                 ;#define Blok_flip	0x57
                 ;#define END 	0x0A
                 ;#define QWEST	0x25
                 ;#define IM	0x52
                 ;#define Add_kf 0x60
                 ;#define Sub_kf 0x61
                 ;#define ALRM_RES 0x63
                 ;#define Zero_kf2 0x64
                 ;#define MEM_KF 0x62
                 ;#define MEM_KF1 0x26
                 ;#define MEM_KF2 0x27
                 ;#define BLKON 0x80
                 ;#define BLKOFF 0x81
                 ;//#define Put_reg 0x90
                 ;#define GETID 0x90
                 ;#define PUTID 0x91
                 ;#define PUTTM1 0xDA
                 ;#define PUTTM2 0xDB
                 ;#define PUTTM3 0xDC
                 ;#define PUTTM 0xDE
                 ;#define PUTTM31 	0xDD
                 ;#define PUTTM32 	0xD5
                 ;#define GETTM 0xED
                 ;#define GETTM1 	0xEb
                 ;#define GETTM2	0xEc
                 ;#define KLBR 0xEE
                 ;#define XMAX 25
                 ;
                 ;#include <stdio.h>
                 ;#include <math.h>
                 ;
                 ;#define ON 0x55
                 ;#define OFF 0xaa
                 ;
                 ;//#define _220_
                 ;#define _24_
                 ;//#define _110_
                 ;//#define _48/60_
                 ;
                 ;bit bJP; //джампер одет
                 ;bit b100Hz;
                 ;bit b33Hz;
                 ;bit b10Hz;
                 ;bit b5Hz;
                 ;bit b1Hz;
                 ;bit bFl_;
                 ;bit bBL;
                 ;
                 ;char t0_cnt0,t0_cnt1,t0_cnt2,t0_cnt3,t0_cnt4,cnt_ind,adc_cnt0,adc_cnt1;
                 ;/*bit l_but;	//идет длинное нажатие на кнопку
                 ;bit n_but=0;     //произошло нажатие
                 ;bit speed;	//разрешение ускорения перебора
                 ;bit bFl_;
                 ;
                 ;bit zero_on;
                 ;bit bFr_ch=0;
                 ;bit bR;
                 ;bit bT1;
                 ;
                 ;enum char {iH,iT,iPrl,iK,iSet}ind;
                 ;signed char sub_ind;
                 ;unsigned int adc_bank[4][16],adc_bank_[4];
                 ;bit bCh;*/
                 ;
                 ;signed int tabl[]={0/*0*/,72/*40*/,125/*80*/,177/*120*/,217/*160*/,254/*200*/,286/*240*/,318/*280*/,346/*320*/,372/*360* ...
                 
                 	.DSEG
                 ;
                 ;eeprom int freq;
                 ;eeprom char stereo,p_out;
                 ;
                 ;char lcd_flash0=0;
                 ;char lcd_flashx0=0;
                 ;char lcd_flashy0=0;
                 ;//char lcd_flash1=0;
                 ;//char lcd_flashx1=0;
                 ;//char lcd_flashy1=0;
                 ;unsigned char volum;
                 ;eeprom unsigned char volum_ee;
                 ;
                 ;
                 ;int vol_u,vol_i;
                 ;
                 ;unsigned int adc_buff[4][16],adc_buff_[4];
                 ;char adc_cnt,adc_ch;
                 ;
                 ;eeprom signed int K[4][2];
                 ;
                 ;unsigned int I,Un,Ui,Udb;
                 ;signed T;
                 ;char flags=0; // состояние источника
                 ;// 0 -  если одет джампер то 0, если нет то 1
                 ;// 1 -  авария по Tmax (1-активн.);
                 ;// 2 -  авария по Tsign (1-активн.);
                 ;// 3 -  авария по Umax (1-активн.);
                 ;// 4 -  авария по Umin (1-активн.);
                 ;// 5 -  блокировка извне (1-активн.);
                 ;// 6 -  блокировка извне защит(1-активн.);
                 ;
                 ;char flags_tu; // управляющее слово от хоста
                 ;// 0 -  блокировка, если 1 то заблокировать
                 ;// 1 -  блокировка извне защит(1-активн.);
                 ;
                 ;unsigned int  vol_u_temp,vol_i_temp=0;
                 ;long led_red=0x55555550L,led_green=0xaaaaaaaaL;
                 ;char link,link_cnt;
                 ;char led_drv_cnt=30;
                 ;eeprom signed int Umax,dU,tmax,tsign;
                 ;signed tsign_cnt,tmax_cnt;
                 ;unsigned int pwm_u=50,pwm_i=50;
                 ;signed umax_cnt,umin_cnt;
                 ;char flags_tu_cnt_on,flags_tu_cnt_off;
                 ;char adr_new,adr_old,adr_temp,adr_cnt;
                 ;eeprom char adr;
                 ;char cnt_JP0,cnt_JP1;
                 ;enum {jp0,jp1,jp2,jp3} jp_mode;
                 ;int main_cnt1;
                 ;signed _x_=13,_x__;
                 ;int _x_cnt;
                 ;eeprom signed _x_ee_;
                 ;eeprom int U_AVT;
                 ;eeprom char U_AVT_ON;
                 ;
                 ;int main_cnt;
                 ;eeprom char TZAS;
                 ;char plazma;
                 ;int plazma_int[3];
                 ;int adc_ch_2_max,adc_ch_2_min;
                 ;char adc_ch_2_delta;
                 ;char cnt_adc_ch_2_delta;
                 ;char apv_cnt[3];
                 ;int apv_cnt_;
                 ;bit bAPV;
                 ;char cnt_apv_off;
                 ;
                 ;eeprom char res_fl,res_fl_;
                 ;bit bRES=0;
                 ;bit bRES_=0;
                 ;char res_fl_cnt;
                 ;char off_bp_cnt;
                 ;//eeprom char adr_ee;
                 ;
                 ;flash char CONST_ADR[]={0b00000111,0b00000111,0b00000111,0b00000010,0b00000011,0b00000001,0b00000000,0b00000111};
                 ;
                 ;char can_error_cnt;
                 ;char link_cnt63;
                 ;
                 ;#include "can_slave.c"
                 ;#define CS_DDR	DDRB.0
                 ;#define CS	PORTB.0
                 ;#define SPI_PORT_INIT  DDRB|=0b00101100;DDRB.4=0;
                 ;//#define _220_
                 ;//#define _24_
                 ;#include "mcp2510.h"
                 
                 	.CSEG
                 _mcp_reset:
                 ; .FSTART _mcp_reset
0000c9 94f8      	cli
0000ca 940e 10f2 	CALL SUBOPT_0x0
0000cc 9a28      	SBI  0x5,0
0000cd 9478      	sei
0000ce 9508      	RET
                 ; .FEND
                 _spi_read:
                 ; .FSTART _spi_read
0000cf 93aa      	ST   -Y,R26
0000d0 931a      	ST   -Y,R17
                 ;	addr -> Y+1
                 ;	temp -> R17
0000d1 94f8      	cli
0000d2 940e 10f2 	CALL SUBOPT_0x0
                +
0000d4 e18b     +LDI R24 , LOW ( 27 )
                +__DELAY_USB_LOOP :
0000d5 958a     +DEC R24
0000d6 f7f1     +BRNE __DELAY_USB_LOOP
                 	__DELAY_USB 27
0000d7 e0a3      	LDI  R26,LOW(3)
0000d8 940e 10f9 	CALL SUBOPT_0x1
0000da e5a5      	LDI  R26,LOW(85)
0000db 940e 10e8 	CALL _spi
0000dd 2f1e      	MOV  R17,R30
0000de 9a28      	SBI  0x5,0
0000df 9478      	sei
0000e0 2fe1      	MOV  R30,R17
0000e1 8118      	LDD  R17,Y+0
0000e2 9622      	ADIW R28,2
0000e3 9508      	RET
                 ; .FEND
                 _spi_bit_modify:
                 ; .FSTART _spi_bit_modify
0000e4 93aa      	ST   -Y,R26
                 ;	addr -> Y+2
                 ;	mask -> Y+1
                 ;	data -> Y+0
0000e5 94f8      	cli
0000e6 940e 10f2 	CALL SUBOPT_0x0
0000e8 e0a5      	LDI  R26,LOW(5)
0000e9 940e 10e8 	CALL _spi
0000eb 81aa      	LDD  R26,Y+2
0000ec 940e 10f9 	CALL SUBOPT_0x1
0000ee 81a8      	LD   R26,Y
0000ef 940e 10e8 	CALL _spi
0000f1 9a28      	SBI  0x5,0
0000f2 9478      	sei
0000f3 9623      	ADIW R28,3
0000f4 9508      	RET
                 ; .FEND
                 _spi_write:
                 ; .FSTART _spi_write
0000f5 93aa      	ST   -Y,R26
0000f6 931a      	ST   -Y,R17
                 ;	addr -> Y+2
                 ;	in -> Y+1
                 ;	temp -> R17
0000f7 94f8      	cli
0000f8 940e 10f2 	CALL SUBOPT_0x0
0000fa e0a2      	LDI  R26,LOW(2)
0000fb 940e 10e8 	CALL _spi
0000fd 81aa      	LDD  R26,Y+2
0000fe 940e 10f9 	CALL SUBOPT_0x1
000100 9a28      	SBI  0x5,0
000101 9478      	sei
000102 2fe1      	MOV  R30,R17
000103 8118      	LDD  R17,Y+0
000104 9623      	ADIW R28,3
000105 9508      	RET
                 ; .FEND
                 _spi_read_status:
                 ; .FSTART _spi_read_status
000106 931a      	ST   -Y,R17
                 ;	temp -> R17
000107 94f8      	cli
000108 940e 10f2 	CALL SUBOPT_0x0
00010a 0000      	nop
00010b 0000      	nop
00010c 0000      	nop
00010d 0000      	nop
00010e 0000      	nop
00010f 0000      	nop
000110 0000      	nop
000111 0000      	nop
000112 eaa0      	LDI  R26,LOW(160)
000113 940e 10e8 	CALL _spi
000115 e5a5      	LDI  R26,LOW(85)
000116 940e 10e8 	CALL _spi
000118 2f1e      	MOV  R17,R30
000119 9a28      	SBI  0x5,0
00011a 9478      	sei
00011b 2fe1      	MOV  R30,R17
00011c 9119      	LD   R17,Y+
00011d 9508      	RET
                 ; .FEND
                 ;	in -> Y+0
                 _spi_rts:
                 ; .FSTART _spi_rts
00011e 93aa      	ST   -Y,R26
                 ;	in -> Y+0
00011f 94f8      	cli
000120 940e 10f2 	CALL SUBOPT_0x0
000122 81e8      	LD   R30,Y
000123 30e0      	CPI  R30,0
000124 f011      	BREQ PC+3
000125 940c 012a 	JMP _0x40
000127 e8e1      	LDI  R30,LOW(129)
000128 83e8      	ST   Y,R30
000129 c00f      	RJMP _0x41
                 _0x40:
00012a 81a8      	LD   R26,Y
00012b 30a1      	CPI  R26,LOW(0x1)
00012c f011      	BREQ PC+3
00012d 940c 0132 	JMP _0x42
00012f e8e2      	LDI  R30,LOW(130)
000130 83e8      	ST   Y,R30
000131 c007      	RJMP _0x43
                 _0x42:
000132 81a8      	LD   R26,Y
000133 30a2      	CPI  R26,LOW(0x2)
000134 f011      	BREQ PC+3
000135 940c 0139 	JMP _0x44
000137 e8e4      	LDI  R30,LOW(132)
000138 83e8      	ST   Y,R30
                 _0x44:
                 _0x43:
                 _0x41:
000139 81a8      	LD   R26,Y
00013a 940e 10e8 	CALL _spi
00013c 9a28      	SBI  0x5,0
00013d 9478      	sei
00013e 9621      	ADIW R28,1
00013f 9508      	RET
                 ; .FEND
                 ;	in -> Y+1
                 ;	temp -> R17
                 ;	in -> Y+1
                 ;	temp -> R17
                 ;	in -> Y+1
                 ;	temp -> R17
                 ;	in -> Y+1
                 ;	temp -> R17
                 ;	sidh -> Y+7
                 ;	sidl -> Y+6
                 ;	eid8 -> Y+5
                 ;	eid0 -> Y+4
                 ;	temp -> Y+0
                 ;#include "curr_version.h"
                 ;
                 ;extern flash char Table87[];
                 ;extern flash char Table95[];
                 ;extern void gran(signed int *adr, signed int min, signed int max);
                 ;/*
                 ;
                 ;
                 ;char cob1[10],cib1[20];
                 ;
                 ;char ch_cnt1;
                 ;bit bch_1Hz1;
                 ;bit bADRISON1,bADRISRQWST1;
                 ;char random1[4];
                 ;char tr_buff1[8];
                 ;
                 ;
                 ;
                 ;
                 ;
                 ;char bd1[25];
                 ;*/
                 ;//#define CNF1_init	0b00000100  //tq=500ns   //20MHz
                 ;/*
                 ;#define CNF1_init	0b11000000  //tq=500ns   //8MHz
                 ;#define CNF2_init	0b11110001  //Ps1=7tq,Pr=2tq
                 ;#define CNF3_init	0b00000010  //Ps2=6tq */
                 ;
                 ;#if(KAN_XTAL==8)
                 ;#define CNF1_init	0b11000011  //tq=500ns   //8MHz
                 ;#define CNF2_init	0b11111011  //Ps1=7tq,Pr=2tq
                 ;#define CNF3_init	0b00000010  //Ps2=6tq
                 ;#elif(KAN_XTAL==10)
                 ;#define CNF1_init	0b11000011  //tq=500ns   //10MHz
                 ;#define CNF2_init	0b11111110  //Ps1=7tq,Pr=2tq
                 ;#define CNF3_init	0b00000011  //Ps2=6tq
                 ;#elif(KAN_XTAL==20)
                 ;#define CNF1_init	0b11000111  //tq=500ns   //20MHz
                 ;#define CNF2_init	0b11111110  //Ps1=7tq,Pr=2tq
                 ;#define CNF3_init	0b00000011  //Ps2=6tq
                 ;#endif
                 ;
                 ;char can_st1,can_st_old1;
                 ;char RXBUFF1[40],RXBUFF_1[40],TXBUFF1[40];
                 ;char bR1,bIN1,bOUT11;
                 ;char bR_cnt1,TX_len1;
                 ;char cnt_rcpt1,cnt_trsmt1;
                 ;char bOUT_free1;
                 ;bit bOUT1;
                 ;
                 ;
                 ;char can_out_buff[8][4];
                 ;char can_buff_wr_ptr;
                 ;char can_buff_rd_ptr;
                 ;
                 ;extern void granee(eeprom signed int *adr, signed int min, signed int max);
                 ;signed rotor_int=123;
                 
                 	.DSEG
                 ;//-----------------------------------------------
                 ;void can_transmit1(char data0,char data1,char data2,char data3,char data4,char data5,char data6,char data7)
                 ; 0000 0081 {
                 
                 	.CSEG
                 _can_transmit1:
                 ; .FSTART _can_transmit1
                 ;if((can_buff_wr_ptr<0)||(can_buff_wr_ptr>3))can_buff_wr_ptr=0;
000140 93aa      	ST   -Y,R26
                 ;	data0 -> Y+7
                 ;	data1 -> Y+6
                 ;	data2 -> Y+5
                 ;	data3 -> Y+4
                 ;	data4 -> Y+3
                 ;	data5 -> Y+2
                 ;	data6 -> Y+1
                 ;	data7 -> Y+0
000141 91a0 0326 	LDS  R26,_can_buff_wr_ptr
000143 30a0      	CPI  R26,0
000144 f410      	BRSH PC+3
000145 940c 014c 	JMP _0x49
000147 30a4      	CPI  R26,LOW(0x4)
000148 f010      	BRLO PC+3
000149 940c 014c 	JMP _0x49
00014b c003      	RJMP _0x48
                 _0x49:
00014c e0e0      	LDI  R30,LOW(0)
00014d 93e0 0326 	STS  _can_buff_wr_ptr,R30
                 ;
                 ;can_out_buff[0][can_buff_wr_ptr]=data0;
                 _0x48:
00014f 91e0 0326 	LDS  R30,_can_buff_wr_ptr
000151 e0f0      	LDI  R31,0
000152 5fea      	SUBI R30,LOW(-_can_out_buff)
000153 4ffc      	SBCI R31,HIGH(-_can_out_buff)
000154 81af      	LDD  R26,Y+7
000155 83a0      	STD  Z+0,R26
                 ;can_out_buff[1][can_buff_wr_ptr]=data1;
                +
000156 e0aa     +LDI R26 , LOW ( _can_out_buff + ( 4 ) )
000157 e0b3     +LDI R27 , HIGH ( _can_out_buff + ( 4 ) )
                 	__POINTW2MN _can_out_buff,4
000158 940e 10fe 	CALL SUBOPT_0x2
00015a 81ae      	LDD  R26,Y+6
00015b 83a0      	STD  Z+0,R26
                 ;can_out_buff[2][can_buff_wr_ptr]=data2;
                +
00015c e0ae     +LDI R26 , LOW ( _can_out_buff + ( 8 ) )
00015d e0b3     +LDI R27 , HIGH ( _can_out_buff + ( 8 ) )
                 	__POINTW2MN _can_out_buff,8
00015e 940e 10fe 	CALL SUBOPT_0x2
000160 81ad      	LDD  R26,Y+5
000161 83a0      	STD  Z+0,R26
                 ;can_out_buff[3][can_buff_wr_ptr]=data3;
                +
000162 e1a2     +LDI R26 , LOW ( _can_out_buff + ( 12 ) )
000163 e0b3     +LDI R27 , HIGH ( _can_out_buff + ( 12 ) )
                 	__POINTW2MN _can_out_buff,12
000164 940e 10fe 	CALL SUBOPT_0x2
000166 81ac      	LDD  R26,Y+4
000167 83a0      	STD  Z+0,R26
                 ;can_out_buff[4][can_buff_wr_ptr]=data4;
                +
000168 e1a6     +LDI R26 , LOW ( _can_out_buff + ( 16 ) )
000169 e0b3     +LDI R27 , HIGH ( _can_out_buff + ( 16 ) )
                 	__POINTW2MN _can_out_buff,16
00016a 940e 10fe 	CALL SUBOPT_0x2
00016c 81ab      	LDD  R26,Y+3
00016d 83a0      	STD  Z+0,R26
                 ;can_out_buff[5][can_buff_wr_ptr]=data5;
                +
00016e e1aa     +LDI R26 , LOW ( _can_out_buff + ( 20 ) )
00016f e0b3     +LDI R27 , HIGH ( _can_out_buff + ( 20 ) )
                 	__POINTW2MN _can_out_buff,20
000170 940e 10fe 	CALL SUBOPT_0x2
000172 81aa      	LDD  R26,Y+2
000173 83a0      	STD  Z+0,R26
                 ;can_out_buff[6][can_buff_wr_ptr]=data6;
                +
000174 e1ae     +LDI R26 , LOW ( _can_out_buff + ( 24 ) )
000175 e0b3     +LDI R27 , HIGH ( _can_out_buff + ( 24 ) )
                 	__POINTW2MN _can_out_buff,24
000176 940e 10fe 	CALL SUBOPT_0x2
000178 81a9      	LDD  R26,Y+1
000179 83a0      	STD  Z+0,R26
                 ;can_out_buff[7][can_buff_wr_ptr]=data7;
                +
00017a e2a2     +LDI R26 , LOW ( _can_out_buff + ( 28 ) )
00017b e0b3     +LDI R27 , HIGH ( _can_out_buff + ( 28 ) )
                 	__POINTW2MN _can_out_buff,28
00017c 940e 10fe 	CALL SUBOPT_0x2
00017e 81a8      	LD   R26,Y
00017f 83a0      	STD  Z+0,R26
                 ;
                 ;can_buff_wr_ptr++;
000180 91e0 0326 	LDS  R30,_can_buff_wr_ptr
000182 5fef      	SUBI R30,-LOW(1)
000183 93e0 0326 	STS  _can_buff_wr_ptr,R30
                 ;if(can_buff_wr_ptr>3)can_buff_wr_ptr=0;
000185 91a0 0326 	LDS  R26,_can_buff_wr_ptr
000187 30a4      	CPI  R26,LOW(0x4)
000188 f410      	BRSH PC+3
000189 940c 018e 	JMP _0x4B
00018b e0e0      	LDI  R30,LOW(0)
00018c 93e0 0326 	STS  _can_buff_wr_ptr,R30
                 ;}
                 _0x4B:
00018e 9628      	ADIW R28,8
00018f 9508      	RET
                 ; .FEND
                 ;//-----------------------------------------------
                 ;void can_init1(void)
                 ;{
                 _can_init1:
                 ; .FSTART _can_init1
                 ;char spi_temp;
                 ;
                 ;mcp_reset();
000190 931a      	ST   -Y,R17
                 ;	spi_temp -> R17
000191 940e 00c9 	CALL _mcp_reset
                 ;spi_temp=spi_read(CANSTAT);
000193 e0ae      	LDI  R26,LOW(14)
000194 940e 00cf 	CALL _spi_read
000196 2f1e      	MOV  R17,R30
                 ;if((spi_temp&0xe0)!=0x80)
000197 7ee0      	ANDI R30,LOW(0xE0)
000198 38e0      	CPI  R30,LOW(0x80)
000199 f411      	BRNE PC+3
00019a 940c 01a3 	JMP _0x4C
                 ;    {
                 ;    spi_bit_modify(CANCTRL,0xe0,0x80);
00019c e0ef      	LDI  R30,LOW(15)
00019d 93ea      	ST   -Y,R30
00019e eee0      	LDI  R30,LOW(224)
00019f 93ea      	ST   -Y,R30
0001a0 e8a0      	LDI  R26,LOW(128)
0001a1 940e 00e4 	CALL _spi_bit_modify
                 ;    }
                 ;delay_us(10);
                 _0x4C:
                +
0001a3 e18b     +LDI R24 , LOW ( 27 )
                +__DELAY_USB_LOOP :
0001a4 958a     +DEC R24
0001a5 f7f1     +BRNE __DELAY_USB_LOOP
                 	__DELAY_USB 27
                 ;spi_write(CNF1,CNF1_init);
0001a6 e2ea      	LDI  R30,LOW(42)
0001a7 93ea      	ST   -Y,R30
0001a8 eca3      	LDI  R26,LOW(195)
0001a9 940e 00f5 	CALL _spi_write
                 ;spi_write(CNF2,CNF2_init);
0001ab e2e9      	LDI  R30,LOW(41)
0001ac 93ea      	ST   -Y,R30
0001ad efae      	LDI  R26,LOW(254)
0001ae 940e 00f5 	CALL _spi_write
                 ;spi_write(CNF3,CNF3_init);
0001b0 e2e8      	LDI  R30,LOW(40)
0001b1 93ea      	ST   -Y,R30
0001b2 e0a3      	LDI  R26,LOW(3)
0001b3 940e 00f5 	CALL _spi_write
                 ;
                 ;spi_write(RXB0CTRL,0b00100000);
0001b5 e6e0      	LDI  R30,LOW(96)
0001b6 93ea      	ST   -Y,R30
0001b7 e2a0      	LDI  R26,LOW(32)
0001b8 940e 00f5 	CALL _spi_write
                 ;spi_write(RXB1CTRL,0b00100000);
0001ba e7e0      	LDI  R30,LOW(112)
0001bb 93ea      	ST   -Y,R30
0001bc e2a0      	LDI  R26,LOW(32)
0001bd 940e 00f5 	CALL _spi_write
                 ;
                 ;delay_ms(10);
0001bf 940e 1104 	CALL SUBOPT_0x3
                 ;
                 ;spi_write(RXM0SIDH, 0xFF);
0001c1 e2e0      	LDI  R30,LOW(32)
0001c2 940e 1108 	CALL SUBOPT_0x4
                 ;spi_write(RXM0SIDL, 0xFF);
0001c4 e2e1      	LDI  R30,LOW(33)
0001c5 940e 1108 	CALL SUBOPT_0x4
                 ;spi_write(RXF0SIDH, 0xFF);
0001c7 e0e0      	LDI  R30,LOW(0)
0001c8 940e 1108 	CALL SUBOPT_0x4
                 ;spi_write(RXF0SIDL, 0xFF);
0001ca e0e1      	LDI  R30,LOW(1)
0001cb 940e 1108 	CALL SUBOPT_0x4
                 ;spi_write(RXF1SIDH, 0xFF);
0001cd e0e4      	LDI  R30,LOW(4)
0001ce 940e 1108 	CALL SUBOPT_0x4
                 ;spi_write(RXF1SIDL, 0xFF);
0001d0 e0e5      	LDI  R30,LOW(5)
0001d1 940e 1108 	CALL SUBOPT_0x4
                 ;
                 ;spi_write(RXM1SIDH, 0xff);
0001d3 e2e4      	LDI  R30,LOW(36)
0001d4 940e 1108 	CALL SUBOPT_0x4
                 ;spi_write(RXM1SIDL, 0xe0);
0001d6 e2e5      	LDI  R30,LOW(37)
0001d7 93ea      	ST   -Y,R30
0001d8 eea0      	LDI  R26,LOW(224)
0001d9 940e 00f5 	CALL _spi_write
                 ;
                 ;spi_write(RXF2SIDH, 0x13);
0001db e0e8      	LDI  R30,LOW(8)
0001dc 93ea      	ST   -Y,R30
0001dd e1a3      	LDI  R26,LOW(19)
0001de 940e 00f5 	CALL _spi_write
                 ;spi_write(RXF2SIDL, 0xc0);
0001e0 e0e9      	LDI  R30,LOW(9)
0001e1 940e 110c 	CALL SUBOPT_0x5
                 ;
                 ;spi_write(RXF3SIDH, 0x00);
0001e3 e1e0      	LDI  R30,LOW(16)
0001e4 940e 1110 	CALL SUBOPT_0x6
                 ;spi_write(RXF3SIDL, 0x00);
0001e6 e1e1      	LDI  R30,LOW(17)
0001e7 940e 1110 	CALL SUBOPT_0x6
                 ;
                 ;spi_write(RXF4SIDH, 0x00);
0001e9 e1e4      	LDI  R30,LOW(20)
0001ea 940e 1110 	CALL SUBOPT_0x6
                 ;spi_write(RXF4SIDL, 0x00);
0001ec e1e5      	LDI  R30,LOW(21)
0001ed 940e 1110 	CALL SUBOPT_0x6
                 ;
                 ;spi_write(RXF5SIDH, 0x00);
0001ef e1e8      	LDI  R30,LOW(24)
0001f0 940e 1110 	CALL SUBOPT_0x6
                 ;spi_write(RXF5SIDL, 0x00);
0001f2 e1e9      	LDI  R30,LOW(25)
0001f3 940e 1110 	CALL SUBOPT_0x6
                 ;
                 ;spi_write(TXB2SIDH, 0x31);
0001f5 e5e1      	LDI  R30,LOW(81)
0001f6 940e 1114 	CALL SUBOPT_0x7
                 ;spi_write(TXB2SIDL, 0xc0);
0001f8 e5e2      	LDI  R30,LOW(82)
0001f9 940e 110c 	CALL SUBOPT_0x5
                 ;
                 ;spi_write(TXB1SIDH, 0x31);
0001fb e4e1      	LDI  R30,LOW(65)
0001fc 940e 1114 	CALL SUBOPT_0x7
                 ;spi_write(TXB1SIDL, 0xc0);
0001fe e4e2      	LDI  R30,LOW(66)
0001ff 940e 110c 	CALL SUBOPT_0x5
                 ;
                 ;spi_write(TXB0SIDH, 0x31);
000201 e3e1      	LDI  R30,LOW(49)
000202 940e 1114 	CALL SUBOPT_0x7
                 ;spi_write(TXB0SIDL, 0xc0);
000204 e3e2      	LDI  R30,LOW(50)
000205 940e 110c 	CALL SUBOPT_0x5
                 ;
                 ;
                 ;
                 ;spi_bit_modify(CANCTRL,0xe7,0b00000101);
000207 e0ef      	LDI  R30,LOW(15)
000208 93ea      	ST   -Y,R30
000209 eee7      	LDI  R30,LOW(231)
00020a 93ea      	ST   -Y,R30
00020b e0a5      	LDI  R26,LOW(5)
00020c 940e 00e4 	CALL _spi_bit_modify
                 ;
                 ;spi_write(CANINTE,0b00000110);
00020e e2eb      	LDI  R30,LOW(43)
00020f 93ea      	ST   -Y,R30
000210 e0a6      	LDI  R26,LOW(6)
000211 940e 00f5 	CALL _spi_write
                 ;delay_ms(100);
000213 940e 1118 	CALL SUBOPT_0x8
                 ;spi_write(BFPCTRL,0b00000000);
000215 e0ec      	LDI  R30,LOW(12)
000216 940e 1110 	CALL SUBOPT_0x6
                 ;
                 ;}
000218 9119      	LD   R17,Y+
000219 9508      	RET
                 ; .FEND
                 ;
                 ;
                 ;
                 ;//-----------------------------------------------
                 ;void can_hndl1(void)
                 ;{
                 _can_hndl1:
                 ; .FSTART _can_hndl1
                 ;unsigned char temp,j,temp_index,c_temp;
                 ;static char ch_cnt;
                 ;#asm("cli")
00021a 940e 143d 	CALL __SAVELOCR4
                 ;	temp -> R17
                 ;	j -> R16
                 ;	temp_index -> R19
                 ;	c_temp -> R18
00021c 94f8      	cli
                 ;
                 ;can_st1=spi_read_status();
00021d 940e 0106 	CALL _spi_read_status
00021f 93e0 02db 	STS  _can_st1,R30
                 ;can_st_old1|=can_st1;
000221 91a0 02dc 	LDS  R26,_can_st_old1
000223 2bea      	OR   R30,R26
000224 93e0 02dc 	STS  _can_st_old1,R30
                 ;
                 ;if(can_st1&0b00000010)
000226 91e0 02db 	LDS  R30,_can_st1
000228 70e2      	ANDI R30,LOW(0x2)
000229 f411      	BRNE PC+3
00022a 940c 024b 	JMP _0x4D
                 ;    {
                 ;
                 ;    for(j=0;j<8;j++)
00022c e000      	LDI  R16,LOW(0)
                 _0x4F:
00022d 3008      	CPI  R16,8
00022e f010      	BRLO PC+3
00022f 940c 0240 	JMP _0x50
                 ;        {
                 ;        RXBUFF1[j]=spi_read(RXB1D0+j);
000231 2fe0      	MOV  R30,R16
000232 e0f0      	LDI  R31,0
000233 52e3      	SUBI R30,LOW(-_RXBUFF1)
000234 4ffd      	SBCI R31,HIGH(-_RXBUFF1)
000235 93ff      	PUSH R31
000236 93ef      	PUSH R30
000237 2fa0      	MOV  R26,R16
000238 58aa      	SUBI R26,-LOW(118)
000239 940e 00cf 	CALL _spi_read
00023b 91af      	POP  R26
00023c 91bf      	POP  R27
00023d 93ec      	ST   X,R30
                 ;        }
                 _0x4E:
00023e 5f0f      	SUBI R16,-1
00023f cfed      	RJMP _0x4F
                 _0x50:
                 ;
                 ;    spi_bit_modify(CANINTF,0b00000010,0x00);
000240 e2ec      	LDI  R30,LOW(44)
000241 93ea      	ST   -Y,R30
000242 e0e2      	LDI  R30,LOW(2)
000243 93ea      	ST   -Y,R30
000244 e0a0      	LDI  R26,LOW(0)
000245 940e 00e4 	CALL _spi_bit_modify
                 ;     bIN1=1;
000247 e0e1      	LDI  R30,LOW(1)
000248 93e0 0305 	STS  _bIN1,R30
                 ;    }
                 ;
                 ;
                 ;else if(/*(can_st1&0b10101000)&&*/(!(can_st1&0b01010100)))
00024a c04b      	RJMP _0x51
                 _0x4D:
00024b 91e0 02db 	LDS  R30,_can_st1
00024d 75e4      	ANDI R30,LOW(0x54)
00024e f011      	BREQ PC+3
00024f 940c 0296 	JMP _0x52
                 ;    {
                 ;    char n;
                 ;     spi_bit_modify(CANINTF,0b00011100,0x00);
000251 9721      	SBIW R28,1
                 ;	n -> Y+0
000252 e2ec      	LDI  R30,LOW(44)
000253 93ea      	ST   -Y,R30
000254 e1ec      	LDI  R30,LOW(28)
000255 93ea      	ST   -Y,R30
000256 e0a0      	LDI  R26,LOW(0)
000257 940e 00e4 	CALL _spi_bit_modify
                 ;
                 ;     if(can_buff_rd_ptr!=can_buff_wr_ptr)
000259 91e0 0326 	LDS  R30,_can_buff_wr_ptr
00025b 91a0 0327 	LDS  R26,_can_buff_rd_ptr
00025d 17ea      	CP   R30,R26
00025e f411      	BRNE PC+3
00025f 940c 0295 	JMP _0x53
                 ;         {
                 ;             for(n=0;n<8;n++)
000261 e0e0      	LDI  R30,LOW(0)
000262 83e8      	ST   Y,R30
                 _0x55:
000263 81a8      	LD   R26,Y
000264 30a8      	CPI  R26,LOW(0x8)
000265 f010      	BRLO PC+3
000266 940c 027f 	JMP _0x56
                 ;            {
                 ;            spi_write(TXB0D0+n,can_out_buff[n][can_buff_rd_ptr]);
000268 81e8      	LD   R30,Y
000269 5cea      	SUBI R30,-LOW(54)
00026a 93ea      	ST   -Y,R30
00026b 81e9      	LDD  R30,Y+1
00026c e0a6      	LDI  R26,LOW(_can_out_buff)
00026d e0b3      	LDI  R27,HIGH(_can_out_buff)
00026e e0f0      	LDI  R31,0
00026f 940e 135a 	CALL __LSLW2
000271 0fae      	ADD  R26,R30
000272 1fbf      	ADC  R27,R31
000273 91e0 0327 	LDS  R30,_can_buff_rd_ptr
000275 e0f0      	LDI  R31,0
000276 0fae      	ADD  R26,R30
000277 1fbf      	ADC  R27,R31
000278 91ac      	LD   R26,X
000279 940e 00f5 	CALL _spi_write
                 ;            }
                 _0x54:
00027b 81e8      	LD   R30,Y
00027c 5fef      	SUBI R30,-LOW(1)
00027d 83e8      	ST   Y,R30
00027e cfe4      	RJMP _0x55
                 _0x56:
                 ;            spi_write(TXB0DLC,8);
00027f e3e5      	LDI  R30,LOW(53)
000280 93ea      	ST   -Y,R30
000281 e0a8      	LDI  R26,LOW(8)
000282 940e 00f5 	CALL _spi_write
                 ;            spi_rts(0);
000284 e0a0      	LDI  R26,LOW(0)
000285 940e 011e 	CALL _spi_rts
                 ;
                 ;            can_buff_rd_ptr++;
000287 91e0 0327 	LDS  R30,_can_buff_rd_ptr
000289 5fef      	SUBI R30,-LOW(1)
00028a 93e0 0327 	STS  _can_buff_rd_ptr,R30
                 ;            if(can_buff_rd_ptr>3)can_buff_rd_ptr=0;
00028c 91a0 0327 	LDS  R26,_can_buff_rd_ptr
00028e 30a4      	CPI  R26,LOW(0x4)
00028f f410      	BRSH PC+3
000290 940c 0295 	JMP _0x57
000292 e0e0      	LDI  R30,LOW(0)
000293 93e0 0327 	STS  _can_buff_rd_ptr,R30
                 ;            }
                 _0x57:
                 ;     }
                 _0x53:
000295 9621      	ADIW R28,1
                 ;
                 ;#asm("sei")
                 _0x52:
                 _0x51:
000296 9478      	sei
                 ;}
000297 940e 1444 	CALL __LOADLOCR4
000299 9624      	ADIW R28,4
00029a 9508      	RET
                 ; .FEND
                 ;
                 ;
                 ;
                 ;
                 ;//-----------------------------------------------
                 ;void can_in_an1(void)
                 ;{
                 _can_in_an1:
                 ; .FSTART _can_in_an1
                 ;char temp,i;
                 ;signed temp_S;
                 ;int tempI;
                 ;
                 ;
                 ;
                 ;if((RXBUFF1[0]==1)&&(RXBUFF1[1]==2)&&(RXBUFF1[2]==3)&&(RXBUFF1[3]==4)&&(RXBUFF1[4]==5)&&(RXBUFF1[5]==6)&&(RXBUFF1[6]==7) ...
00029b 940e 143b 	CALL __SAVELOCR6
                 ;	temp -> R17
                 ;	i -> R16
                 ;	temp_S -> R18,R19
                 ;	tempI -> R20,R21
00029d 91a0 02dd 	LDS  R26,_RXBUFF1
00029f 30a1      	CPI  R26,LOW(0x1)
0002a0 f011      	BREQ PC+3
0002a1 940c 02ce 	JMP _0x59
                +
0002a3 91a0 02de+LDS R26 , _RXBUFF1 + ( 1 )
                 	__GETB2MN _RXBUFF1,1
0002a5 30a2      	CPI  R26,LOW(0x2)
0002a6 f011      	BREQ PC+3
0002a7 940c 02ce 	JMP _0x59
                +
0002a9 91a0 02df+LDS R26 , _RXBUFF1 + ( 2 )
                 	__GETB2MN _RXBUFF1,2
0002ab 30a3      	CPI  R26,LOW(0x3)
0002ac f011      	BREQ PC+3
0002ad 940c 02ce 	JMP _0x59
                +
0002af 91a0 02e0+LDS R26 , _RXBUFF1 + ( 3 )
                 	__GETB2MN _RXBUFF1,3
0002b1 30a4      	CPI  R26,LOW(0x4)
0002b2 f011      	BREQ PC+3
0002b3 940c 02ce 	JMP _0x59
                +
0002b5 91a0 02e1+LDS R26 , _RXBUFF1 + ( 4 )
                 	__GETB2MN _RXBUFF1,4
0002b7 30a5      	CPI  R26,LOW(0x5)
0002b8 f011      	BREQ PC+3
0002b9 940c 02ce 	JMP _0x59
                +
0002bb 91a0 02e2+LDS R26 , _RXBUFF1 + ( 5 )
                 	__GETB2MN _RXBUFF1,5
0002bd 30a6      	CPI  R26,LOW(0x6)
0002be f011      	BREQ PC+3
0002bf 940c 02ce 	JMP _0x59
                +
0002c1 91a0 02e3+LDS R26 , _RXBUFF1 + ( 6 )
                 	__GETB2MN _RXBUFF1,6
0002c3 30a7      	CPI  R26,LOW(0x7)
0002c4 f011      	BREQ PC+3
0002c5 940c 02ce 	JMP _0x59
                +
0002c7 91a0 02e4+LDS R26 , _RXBUFF1 + ( 7 )
                 	__GETB2MN _RXBUFF1,7
0002c9 30a8      	CPI  R26,LOW(0x8)
0002ca f011      	BREQ PC+3
0002cb 940c 02ce 	JMP _0x59
0002cd c001      	RJMP _0x5A
                 _0x59:
0002ce c011      	RJMP _0x58
                 _0x5A:
0002cf e0e1      	LDI  R30,LOW(1)
0002d0 93ea      	ST   -Y,R30
0002d1 e0e2      	LDI  R30,LOW(2)
0002d2 93ea      	ST   -Y,R30
0002d3 e0e3      	LDI  R30,LOW(3)
0002d4 93ea      	ST   -Y,R30
0002d5 e0e4      	LDI  R30,LOW(4)
0002d6 93ea      	ST   -Y,R30
0002d7 e0e5      	LDI  R30,LOW(5)
0002d8 93ea      	ST   -Y,R30
0002d9 e0e6      	LDI  R30,LOW(6)
0002da 93ea      	ST   -Y,R30
0002db e0e7      	LDI  R30,LOW(7)
0002dc 93ea      	ST   -Y,R30
0002dd e0a8      	LDI  R26,LOW(8)
0002de 940e 0140 	CALL _can_transmit1
                 ;
                 ;
                 ;if((RXBUFF1[0]==adr)&&(RXBUFF1[1]==adr)&&((RXBUFF1[2]==GETTM) || (RXBUFF1[2]==GETTM1) || (RXBUFF1[2]==GETTM2)))
                 _0x58:
0002e0 940e 111c 	CALL SUBOPT_0x9
0002e2 91a0 02dd 	LDS  R26,_RXBUFF1
0002e4 17ea      	CP   R30,R26
0002e5 f011      	BREQ PC+3
0002e6 940c 0304 	JMP _0x5C
0002e8 940e 111c 	CALL SUBOPT_0x9
                +
0002ea 91a0 02de+LDS R26 , _RXBUFF1 + ( 1 )
                 	__GETB2MN _RXBUFF1,1
0002ec 17ea      	CP   R30,R26
0002ed f011      	BREQ PC+3
0002ee 940c 0304 	JMP _0x5C
                +
0002f0 91a0 02df+LDS R26 , _RXBUFF1 + ( 2 )
                 	__GETB2MN _RXBUFF1,2
0002f2 3ead      	CPI  R26,LOW(0xED)
0002f3 f411      	BRNE PC+3
0002f4 940c 0303 	JMP _0x5D
                +
0002f6 91a0 02df+LDS R26 , _RXBUFF1 + ( 2 )
                 	__GETB2MN _RXBUFF1,2
0002f8 3eab      	CPI  R26,LOW(0xEB)
0002f9 f411      	BRNE PC+3
0002fa 940c 0303 	JMP _0x5D
                +
0002fc 91a0 02df+LDS R26 , _RXBUFF1 + ( 2 )
                 	__GETB2MN _RXBUFF1,2
0002fe 3eac      	CPI  R26,LOW(0xEC)
0002ff f411      	BRNE PC+3
000300 940c 0303 	JMP _0x5D
000302 c001      	RJMP _0x5C
                 _0x5D:
000303 c001      	RJMP _0x5F
                 _0x5C:
000304 c10e      	RJMP _0x5B
                 _0x5F:
                 ;	{
                 ;
                 ;	can_error_cnt=0;
000305 e0e0      	LDI  R30,LOW(0)
000306 93e0 02cd 	STS  _can_error_cnt,R30
                 ;
                 ;
                 ; 	flags_tu=RXBUFF1[3];
                +
000308 91e0 02e0+LDS R30 , _RXBUFF1 + ( 3 )
                 	__GETB1MN _RXBUFF1,3
00030a 93e0 0295 	STS  _flags_tu,R30
                 ; 	if(flags_tu&0b00000001)
00030c 70e1      	ANDI R30,LOW(0x1)
00030d f411      	BRNE PC+3
00030e 940c 032b 	JMP _0x60
                 ; 		{
                 ; 		if(flags_tu_cnt_off<4)
000310 91a0 02af 	LDS  R26,_flags_tu_cnt_off
000312 30a4      	CPI  R26,LOW(0x4)
000313 f010      	BRLO PC+3
000314 940c 0327 	JMP _0x61
                 ; 			{
                 ; 			flags_tu_cnt_off++;
000316 91e0 02af 	LDS  R30,_flags_tu_cnt_off
000318 5fef      	SUBI R30,-LOW(1)
000319 93e0 02af 	STS  _flags_tu_cnt_off,R30
                 ; 			if(flags_tu_cnt_off>=4)flags|=0b00100000;
00031b 91a0 02af 	LDS  R26,_flags_tu_cnt_off
00031d 30a4      	CPI  R26,LOW(0x4)
00031e f410      	BRSH PC+3
00031f 940c 0326 	JMP _0x62
000321 91e0 0294 	LDS  R30,_flags
000323 62e0      	ORI  R30,0x20
000324 93e0 0294 	STS  _flags,R30
                 ; 			}
                 _0x62:
                 ; 		else flags_tu_cnt_off=4;
000326 c003      	RJMP _0x63
                 _0x61:
000327 e0e4      	LDI  R30,LOW(4)
000328 93e0 02af 	STS  _flags_tu_cnt_off,R30
                 ; 		}
                 _0x63:
                 ; 	else
00032a c01f      	RJMP _0x64
                 _0x60:
                 ; 		{
                 ; 		if(flags_tu_cnt_off)
00032b 91e0 02af 	LDS  R30,_flags_tu_cnt_off
00032d 30e0      	CPI  R30,0
00032e f411      	BRNE PC+3
00032f 940c 0347 	JMP _0x65
                 ; 			{
                 ; 			flags_tu_cnt_off--;
000331 50e1      	SUBI R30,LOW(1)
000332 93e0 02af 	STS  _flags_tu_cnt_off,R30
                 ; 			if(flags_tu_cnt_off<=0)
000334 91a0 02af 	LDS  R26,_flags_tu_cnt_off
000336 30a0      	CPI  R26,0
000337 f011      	BREQ PC+3
000338 940c 0346 	JMP _0x66
                 ; 				{
                 ; 				flags&=0b11011111;
00033a 91e0 0294 	LDS  R30,_flags
00033c 7def      	ANDI R30,0xDF
00033d 93e0 0294 	STS  _flags,R30
                 ; 				off_bp_cnt=5*TZAS;
00033f 940e 1121 	CALL SUBOPT_0xA
000341 e0a5      	LDI  R26,LOW(5)
000342 9fea      	MUL  R30,R26
000343 01f0      	MOVW R30,R0
000344 93e0 02cc 	STS  _off_bp_cnt,R30
                 ; 				}
                 ; 			}
                 _0x66:
                 ; 		else flags_tu_cnt_off=0;
000346 c003      	RJMP _0x67
                 _0x65:
000347 e0e0      	LDI  R30,LOW(0)
000348 93e0 02af 	STS  _flags_tu_cnt_off,R30
                 ; 		}
                 _0x67:
                 _0x64:
                 ;
                 ; 	if(flags_tu&0b00000010) flags|=0b01000000;
00034a 91e0 0295 	LDS  R30,_flags_tu
00034c 70e2      	ANDI R30,LOW(0x2)
00034d f411      	BRNE PC+3
00034e 940c 0356 	JMP _0x68
000350 91e0 0294 	LDS  R30,_flags
000352 64e0      	ORI  R30,0x40
000353 93e0 0294 	STS  _flags,R30
                 ; 	else flags&=0b10111111;
000355 c005      	RJMP _0x69
                 _0x68:
000356 91e0 0294 	LDS  R30,_flags
000358 7bef      	ANDI R30,0xBF
000359 93e0 0294 	STS  _flags,R30
                 ;
                 ; 	vol_u_temp=RXBUFF1[4]+RXBUFF1[5]*256;
                 _0x69:
00035b 940e 1126 	CALL SUBOPT_0xB
                +
00035d 91a0 02e1+LDS R26 , _RXBUFF1 + ( 4 )
                 	__GETB2MN _RXBUFF1,4
00035f e0b0      	LDI  R27,0
000360 0fea      	ADD  R30,R26
000361 1ffb      	ADC  R31,R27
000362 93e0 0296 	STS  _vol_u_temp,R30
000364 93f0 0297 	STS  _vol_u_temp+1,R31
                 ; 	vol_i_temp=RXBUFF1[6]+RXBUFF1[7]*256;
                +
000366 91a0 02e4+LDS R26 , _RXBUFF1 + ( 7 )
                 	__GETB2MN _RXBUFF1,7
000368 940e 112e 	CALL SUBOPT_0xC
                +
00036a 91a0 02e3+LDS R26 , _RXBUFF1 + ( 6 )
                 	__GETB2MN _RXBUFF1,6
00036c e0b0      	LDI  R27,0
00036d 0fea      	ADD  R30,R26
00036e 1ffb      	ADC  R31,R27
00036f 93e0 0298 	STS  _vol_i_temp,R30
000371 93f0 0299 	STS  _vol_i_temp+1,R31
                 ;
                 ; 	//I=1234;
                 ;    //	Un=6543;
                 ; 	//Ui=6789;
                 ; 	//T=246;
                 ; 	//flags=0x55;
                 ; 	//_x_=33;
                 ; 	//rotor_int=1000;
                 ; 	rotor_int=flags_tu+(((int)flags)<<8);
000373 91f0 0294 	LDS  R31,_flags
000375 e0e0      	LDI  R30,LOW(0)
000376 91a0 0295 	LDS  R26,_flags_tu
000378 e0b0      	LDI  R27,0
000379 0fea      	ADD  R30,R26
00037a 1ffb      	ADC  R31,R27
00037b 93e0 0328 	STS  _rotor_int,R30
00037d 93f0 0329 	STS  _rotor_int+1,R31
                 ;	can_transmit1(adr,PUTTM1,*((char*)&I),*(((char*)&I)+1),*((char*)&Un),*(((char*)&Un)+1),*((char*)&/*plazma_int[1]*/Ui),* ...
00037f 940e 111c 	CALL SUBOPT_0x9
000381 93ea      	ST   -Y,R30
000382 edea      	LDI  R30,LOW(218)
000383 940e 1134 	CALL SUBOPT_0xD
                 ;	can_transmit1(adr,PUTTM2,(char)T,0,flags,_x_,*((char*)&plazma_int[2]/*rotor_int*/),*(((char*)&plazma_int[2]/*rotor_int* ...
000385 93ea      	ST   -Y,R30
000386 edeb      	LDI  R30,LOW(219)
000387 940e 1149 	CALL SUBOPT_0xE
                 ;	if(RXBUFF1[2]==GETTM)	can_transmit1(adr,PUTTM3,/**(((char*)&debug_info_to_uku[0])+1)*/0,/**((char*)&debug_info_to_uku[0 ...
                +
000389 91a0 02df+LDS R26 , _RXBUFF1 + ( 2 )
                 	__GETB2MN _RXBUFF1,2
00038b 3ead      	CPI  R26,LOW(0xED)
00038c f011      	BREQ PC+3
00038d 940c 039b 	JMP _0x6A
00038f 940e 111c 	CALL SUBOPT_0x9
000391 93ea      	ST   -Y,R30
000392 edec      	LDI  R30,LOW(220)
000393 940e 115c 	CALL SUBOPT_0xF
000395 e0e0      	LDI  R30,LOW(0)
000396 940e 115c 	CALL SUBOPT_0xF
000398 e0a0      	LDI  R26,LOW(0)
000399 940e 0140 	CALL _can_transmit1
                 ;	if(RXBUFF1[2]==GETTM1)	can_transmit1(adr,PUTTM31,*(((char*)&HARDVARE_VERSION)+1),*((char*)&HARDVARE_VERSION),*(((char*) ...
                 _0x6A:
                +
00039b 91a0 02df+LDS R26 , _RXBUFF1 + ( 2 )
                 	__GETB2MN _RXBUFF1,2
00039d 3eab      	CPI  R26,LOW(0xEB)
00039e f011      	BREQ PC+3
00039f 940c 03b9 	JMP _0x6B
0003a1 940e 111c 	CALL SUBOPT_0x9
0003a3 93ea      	ST   -Y,R30
0003a4 eded      	LDI  R30,LOW(221)
0003a5 93ea      	ST   -Y,R30
                +
0003a6 91e0 02d0+LDS R30 , _HARDVARE_VERSION + ( 1 )
                 	__GETB1MN _HARDVARE_VERSION,1
0003a8 93ea      	ST   -Y,R30
0003a9 91e0 02cf 	LDS  R30,_HARDVARE_VERSION
0003ab 93ea      	ST   -Y,R30
                +
0003ac 91e0 02d2+LDS R30 , _SOFT_VERSION + ( 1 )
                 	__GETB1MN _SOFT_VERSION,1
0003ae 93ea      	ST   -Y,R30
0003af 91e0 02d1 	LDS  R30,_SOFT_VERSION
0003b1 93ea      	ST   -Y,R30
                +
0003b2 91e0 02d4+LDS R30 , _BUILD + ( 1 )
                 	__GETB1MN _BUILD,1
0003b4 93ea      	ST   -Y,R30
0003b5 91a0 02d3 	LDS  R26,_BUILD
0003b7 940e 0140 	CALL _can_transmit1
                 ;	if(RXBUFF1[2]==GETTM2)	can_transmit1(adr,PUTTM32,*(((char*)&BUILD_YEAR)+1),*((char*)&BUILD_YEAR),*(((char*)&BUILD_MONTH ...
                 _0x6B:
                +
0003b9 91a0 02df+LDS R26 , _RXBUFF1 + ( 2 )
                 	__GETB2MN _RXBUFF1,2
0003bb 3eac      	CPI  R26,LOW(0xEC)
0003bc f011      	BREQ PC+3
0003bd 940c 03d7 	JMP _0x6C
0003bf 940e 111c 	CALL SUBOPT_0x9
0003c1 93ea      	ST   -Y,R30
0003c2 ede5      	LDI  R30,LOW(213)
0003c3 93ea      	ST   -Y,R30
                +
0003c4 91e0 02d6+LDS R30 , _BUILD_YEAR + ( 1 )
                 	__GETB1MN _BUILD_YEAR,1
0003c6 93ea      	ST   -Y,R30
0003c7 91e0 02d5 	LDS  R30,_BUILD_YEAR
0003c9 93ea      	ST   -Y,R30
                +
0003ca 91e0 02d8+LDS R30 , _BUILD_MONTH + ( 1 )
                 	__GETB1MN _BUILD_MONTH,1
0003cc 93ea      	ST   -Y,R30
0003cd 91e0 02d7 	LDS  R30,_BUILD_MONTH
0003cf 93ea      	ST   -Y,R30
                +
0003d0 91e0 02da+LDS R30 , _BUILD_DAY + ( 1 )
                 	__GETB1MN _BUILD_DAY,1
0003d2 93ea      	ST   -Y,R30
0003d3 91a0 02d9 	LDS  R26,_BUILD_DAY
0003d5 940e 0140 	CALL _can_transmit1
                 ;
                 ;
                 ;     link_cnt=0;
                 _0x6C:
0003d7 940e 1161 	CALL SUBOPT_0x10
                 ;     link=ON;
                 ;
                 ;     if(flags_tu&0b10000000)
0003d9 91e0 0295 	LDS  R30,_flags_tu
0003db 78e0      	ANDI R30,LOW(0x80)
0003dc f411      	BRNE PC+3
0003dd 940c 03f3 	JMP _0x6D
                 ;     	{
                 ;     	if(!res_fl)
0003df e1ae      	LDI  R26,LOW(_res_fl)
0003e0 e0b0      	LDI  R27,HIGH(_res_fl)
0003e1 940e 1410 	CALL __EEPROMRDB
0003e3 30e0      	CPI  R30,0
0003e4 f011      	BREQ PC+3
0003e5 940c 03f2 	JMP _0x6E
                 ;     		{
                 ;     		res_fl=1;
0003e7 e1ae      	LDI  R26,LOW(_res_fl)
0003e8 e0b0      	LDI  R27,HIGH(_res_fl)
0003e9 e0e1      	LDI  R30,LOW(1)
0003ea 940e 1424 	CALL __EEPROMWRB
                 ;     		bRES=1;
0003ec b5ea      	IN   R30,0x2A
0003ed 60e2      	SBR  R30,2
0003ee bdea      	OUT  0x2A,R30
                 ;     		res_fl_cnt=0;
0003ef e0e0      	LDI  R30,LOW(0)
0003f0 93e0 02cb 	STS  _res_fl_cnt,R30
                 ;     		}
                 ;     	}
                 _0x6E:
                 ;     else
0003f2 c015      	RJMP _0x6F
                 _0x6D:
                 ;     	{
                 ;     	if(main_cnt>20)
0003f3 91a0 02b7 	LDS  R26,_main_cnt
0003f5 91b0 02b8 	LDS  R27,_main_cnt+1
0003f7 9755      	SBIW R26,21
0003f8 f414      	BRGE PC+3
0003f9 940c 0408 	JMP _0x70
                 ;     		{
                 ;    			if(res_fl)
0003fb e1ae      	LDI  R26,LOW(_res_fl)
0003fc e0b0      	LDI  R27,HIGH(_res_fl)
0003fd 940e 1410 	CALL __EEPROMRDB
0003ff 30e0      	CPI  R30,0
000400 f411      	BRNE PC+3
000401 940c 0408 	JMP _0x71
                 ;     			{
                 ;     			res_fl=0;
000403 e1ae      	LDI  R26,LOW(_res_fl)
000404 e0b0      	LDI  R27,HIGH(_res_fl)
000405 e0e0      	LDI  R30,LOW(0)
000406 940e 1424 	CALL __EEPROMWRB
                 ;     			}
                 ;     		}
                 _0x71:
                 ;     	}
                 _0x70:
                 _0x6F:
                 ;
                 ;      if(res_fl_)
000408 940e 1168 	CALL SUBOPT_0x11
00040a f411      	BRNE PC+3
00040b 940c 0412 	JMP _0x72
                 ;      	{
                 ;      	res_fl_=0;
00040d e1af      	LDI  R26,LOW(_res_fl_)
00040e e0b0      	LDI  R27,HIGH(_res_fl_)
00040f e0e0      	LDI  R30,LOW(0)
000410 940e 1424 	CALL __EEPROMWRB
                 ;      	}
                 ;	}
                 _0x72:
                 ;else if((RXBUFF1[0]==adr)&&(RXBUFF1[1]==adr)&&(RXBUFF1[2]==KLBR)&&(RXBUFF1[3]==RXBUFF1[4]))
000412 c2b0      	RJMP _0x73
                 _0x5B:
000413 940e 111c 	CALL SUBOPT_0x9
000415 91a0 02dd 	LDS  R26,_RXBUFF1
000417 17ea      	CP   R30,R26
000418 f011      	BREQ PC+3
000419 940c 0432 	JMP _0x75
00041b 940e 111c 	CALL SUBOPT_0x9
                +
00041d 91a0 02de+LDS R26 , _RXBUFF1 + ( 1 )
                 	__GETB2MN _RXBUFF1,1
00041f 17ea      	CP   R30,R26
000420 f011      	BREQ PC+3
000421 940c 0432 	JMP _0x75
                +
000423 91a0 02df+LDS R26 , _RXBUFF1 + ( 2 )
                 	__GETB2MN _RXBUFF1,2
000425 3eae      	CPI  R26,LOW(0xEE)
000426 f011      	BREQ PC+3
000427 940c 0432 	JMP _0x75
                +
000429 91a0 02e0+LDS R26 , _RXBUFF1 + ( 3 )
                 	__GETB2MN _RXBUFF1,3
                +
00042b 91e0 02e1+LDS R30 , _RXBUFF1 + ( 4 )
                 	__GETB1MN _RXBUFF1,4
00042d 17ea      	CP   R30,R26
00042e f011      	BREQ PC+3
00042f 940c 0432 	JMP _0x75
000431 c001      	RJMP _0x76
                 _0x75:
000432 c11d      	RJMP _0x74
                 _0x76:
                 ;    {
                 ;    rotor_int++;
000433 940e 116e 	CALL SUBOPT_0x12
                 ;    if((RXBUFF1[3]&0xf0)==0x20)
                +
000435 91e0 02e0+LDS R30 , _RXBUFF1 + ( 3 )
                 	__GETB1MN _RXBUFF1,3
000437 7fe0      	ANDI R30,LOW(0xF0)
000438 32e0      	CPI  R30,LOW(0x20)
000439 f011      	BREQ PC+3
00043a 940c 0486 	JMP _0x77
                 ;        {
                 ;        if((RXBUFF1[3]&0x0f)==0x01)
                +
00043c 91e0 02e0+LDS R30 , _RXBUFF1 + ( 3 )
                 	__GETB1MN _RXBUFF1,3
00043e 70ef      	ANDI R30,LOW(0xF)
00043f 30e1      	CPI  R30,LOW(0x1)
000440 f011      	BREQ PC+3
000441 940c 044a 	JMP _0x78
                 ;            {
                 ;            K[0][0]=adc_buff_[0];
000443 940e 1176 	CALL SUBOPT_0x13
000445 e0a0      	LDI  R26,LOW(_K)
000446 e0b0      	LDI  R27,HIGH(_K)
000447 940e 141c 	CALL __EEPROMWRW
                 ;            }
                 ;        else if((RXBUFF1[3]&0x0f)==0x02)
000449 c02f      	RJMP _0x79
                 _0x78:
00044a 940e 117b 	CALL SUBOPT_0x14
00044c f011      	BREQ PC+3
00044d 940c 0455 	JMP _0x7A
                 ;            {
                 ;            K[0][1]++;
00044f 940e 1180 	CALL SUBOPT_0x15
000451 9631      	ADIW R30,1
000452 940e 141c 	CALL __EEPROMWRW
                 ;            }
                 ;        else if((RXBUFF1[3]&0x0f)==0x03)
000454 c024      	RJMP _0x7B
                 _0x7A:
000455 940e 1185 	CALL SUBOPT_0x16
000457 f011      	BREQ PC+3
000458 940c 0462 	JMP _0x7C
                 ;            {
                 ;            K[0][1]+=10;
00045a 940e 1180 	CALL SUBOPT_0x15
00045c 963a      	ADIW R30,10
                +
00045d e0a2     +LDI R26 , LOW ( _K + ( 2 ) )
00045e e0b0     +LDI R27 , HIGH ( _K + ( 2 ) )
00045f 940e 141c+CALL __EEPROMWRW
                 	__PUTW1EN _K,2
                 ;            }
                 ;        else if((RXBUFF1[3]&0x0f)==0x04)
000461 c017      	RJMP _0x7D
                 _0x7C:
000462 940e 118a 	CALL SUBOPT_0x17
000464 f011      	BREQ PC+3
000465 940c 046d 	JMP _0x7E
                 ;            {
                 ;            K[0][1]--;
000467 940e 1180 	CALL SUBOPT_0x15
000469 9731      	SBIW R30,1
00046a 940e 141c 	CALL __EEPROMWRW
                 ;            }
                 ;        else if((RXBUFF1[3]&0x0f)==0x05)
00046c c00c      	RJMP _0x7F
                 _0x7E:
00046d 940e 118f 	CALL SUBOPT_0x18
00046f f011      	BREQ PC+3
000470 940c 0479 	JMP _0x80
                 ;            {
                 ;            K[0][1]-=10;
000472 940e 1180 	CALL SUBOPT_0x15
000474 973a      	SBIW R30,10
                +
000475 e0a2     +LDI R26 , LOW ( _K + ( 2 ) )
000476 e0b0     +LDI R27 , HIGH ( _K + ( 2 ) )
000477 940e 141c+CALL __EEPROMWRW
                 	__PUTW1EN _K,2
                 ;            }
                 ;        granee(&K[0][1],300,5000);
                 _0x80:
                 _0x7F:
                 _0x7D:
                 _0x7B:
                 _0x79:
                +
000479 e0e2     +LDI R30 , LOW ( _K + ( 2 ) )
00047a e0f0     +LDI R31 , HIGH ( _K + ( 2 ) )
                 	__POINTW1MN _K,2
00047b 93fa      	ST   -Y,R31
00047c 93ea      	ST   -Y,R30
00047d e2ec      	LDI  R30,LOW(300)
00047e e0f1      	LDI  R31,HIGH(300)
00047f 93fa      	ST   -Y,R31
000480 93ea      	ST   -Y,R30
000481 e8a8      	LDI  R26,LOW(5000)
000482 e1b3      	LDI  R27,HIGH(5000)
000483 940e 0723 	CALL _granee
                 ;        }
                 ;    else if((RXBUFF1[3]&0xf0)==0x10)
000485 c0bd      	RJMP _0x81
                 _0x77:
                +
000486 91e0 02e0+LDS R30 , _RXBUFF1 + ( 3 )
                 	__GETB1MN _RXBUFF1,3
000488 7fe0      	ANDI R30,LOW(0xF0)
000489 31e0      	CPI  R30,LOW(0x10)
00048a f011      	BREQ PC+3
00048b 940c 04bd 	JMP _0x82
                 ;        {
                 ;        /*if((RXBUFF1[3]&0x0f)==0x01)
                 ;            {
                 ;            K[1][0]=adc_buff_[1];
                 ;            }
                 ;        else*/ if((RXBUFF1[3]&0x0f)==0x02)
00048d 940e 117b 	CALL SUBOPT_0x14
00048f f011      	BREQ PC+3
000490 940c 0498 	JMP _0x83
                 ;            {
                 ;            K[1][1]++;
000492 940e 1194 	CALL SUBOPT_0x19
000494 9631      	ADIW R30,1
000495 940e 141c 	CALL __EEPROMWRW
                 ;            }
                 ;        else if((RXBUFF1[3]&0x0f)==0x03)
000497 c024      	RJMP _0x84
                 _0x83:
000498 940e 1185 	CALL SUBOPT_0x16
00049a f011      	BREQ PC+3
00049b 940c 04a5 	JMP _0x85
                 ;            {
                 ;            K[1][1]+=10;
00049d 940e 1194 	CALL SUBOPT_0x19
00049f 963a      	ADIW R30,10
                +
0004a0 e0a6     +LDI R26 , LOW ( _K + ( 6 ) )
0004a1 e0b0     +LDI R27 , HIGH ( _K + ( 6 ) )
0004a2 940e 141c+CALL __EEPROMWRW
                 	__PUTW1EN _K,6
                 ;            }
                 ;        else if((RXBUFF1[3]&0x0f)==0x04)
0004a4 c017      	RJMP _0x86
                 _0x85:
0004a5 940e 118a 	CALL SUBOPT_0x17
0004a7 f011      	BREQ PC+3
0004a8 940c 04b0 	JMP _0x87
                 ;            {
                 ;            K[1][1]--;
0004aa 940e 1194 	CALL SUBOPT_0x19
0004ac 9731      	SBIW R30,1
0004ad 940e 141c 	CALL __EEPROMWRW
                 ;            }
                 ;        else if((RXBUFF1[3]&0x0f)==0x05)
0004af c00c      	RJMP _0x88
                 _0x87:
0004b0 940e 118f 	CALL SUBOPT_0x18
0004b2 f011      	BREQ PC+3
0004b3 940c 04bc 	JMP _0x89
                 ;            {
                 ;            K[1][1]-=10;
0004b5 940e 1194 	CALL SUBOPT_0x19
0004b7 973a      	SBIW R30,10
                +
0004b8 e0a6     +LDI R26 , LOW ( _K + ( 6 ) )
0004b9 e0b0     +LDI R27 , HIGH ( _K + ( 6 ) )
0004ba 940e 141c+CALL __EEPROMWRW
                 	__PUTW1EN _K,6
                 ;            }
                 ;        /*#ifdef _220_
                 ;        granee(&K[1][1],4500,5500);
                 ;        #else
                 ;        granee(&K[1][1],1360,1700);
                 ;        #endif*/
                 ;        }
                 _0x89:
                 _0x88:
                 _0x86:
                 _0x84:
                 ;
                 ;    else if((RXBUFF1[3]&0xf0)==0x00)
0004bc c086      	RJMP _0x8A
                 _0x82:
                +
0004bd 91e0 02e0+LDS R30 , _RXBUFF1 + ( 3 )
                 	__GETB1MN _RXBUFF1,3
0004bf 7fe0      	ANDI R30,LOW(0xF0)
0004c0 f011      	BREQ PC+3
0004c1 940c 0501 	JMP _0x8B
                 ;        {
                 ;        if((RXBUFF1[3]&0x0f)==0x01)
                +
0004c3 91e0 02e0+LDS R30 , _RXBUFF1 + ( 3 )
                 	__GETB1MN _RXBUFF1,3
0004c5 70ef      	ANDI R30,LOW(0xF)
0004c6 30e1      	CPI  R30,LOW(0x1)
0004c7 f011      	BREQ PC+3
0004c8 940c 04d1 	JMP _0x8C
                 ;            {
                 ;            K[2][0]=adc_buff_[0];
                +
0004ca e0a8     +LDI R26 , LOW ( _K + ( 8 ) )
0004cb e0b0     +LDI R27 , HIGH ( _K + ( 8 ) )
                 	__POINTW2MN _K,8
0004cc 940e 1176 	CALL SUBOPT_0x13
0004ce 940e 141c 	CALL __EEPROMWRW
                 ;            }
                 ;        else if((RXBUFF1[3]&0x0f)==0x02)
0004d0 c02f      	RJMP _0x8D
                 _0x8C:
0004d1 940e 117b 	CALL SUBOPT_0x14
0004d3 f011      	BREQ PC+3
0004d4 940c 04dc 	JMP _0x8E
                 ;            {
                 ;            K[2][1]++;
0004d6 940e 1199 	CALL SUBOPT_0x1A
0004d8 9631      	ADIW R30,1
0004d9 940e 141c 	CALL __EEPROMWRW
                 ;            }
                 ;        else if((RXBUFF1[3]&0x0f)==0x03)
0004db c024      	RJMP _0x8F
                 _0x8E:
0004dc 940e 1185 	CALL SUBOPT_0x16
0004de f011      	BREQ PC+3
0004df 940c 04e9 	JMP _0x90
                 ;            {
                 ;            K[2][1]+=10;
0004e1 940e 1199 	CALL SUBOPT_0x1A
0004e3 963a      	ADIW R30,10
                +
0004e4 e0aa     +LDI R26 , LOW ( _K + ( 10 ) )
0004e5 e0b0     +LDI R27 , HIGH ( _K + ( 10 ) )
0004e6 940e 141c+CALL __EEPROMWRW
                 	__PUTW1EN _K,10
                 ;            }
                 ;        else if((RXBUFF1[3]&0x0f)==0x04)
0004e8 c017      	RJMP _0x91
                 _0x90:
0004e9 940e 118a 	CALL SUBOPT_0x17
0004eb f011      	BREQ PC+3
0004ec 940c 04f4 	JMP _0x92
                 ;            {
                 ;            K[2][1]--;
0004ee 940e 1199 	CALL SUBOPT_0x1A
0004f0 9731      	SBIW R30,1
0004f1 940e 141c 	CALL __EEPROMWRW
                 ;            }
                 ;        else if((RXBUFF1[3]&0x0f)==0x05)
0004f3 c00c      	RJMP _0x93
                 _0x92:
0004f4 940e 118f 	CALL SUBOPT_0x18
0004f6 f011      	BREQ PC+3
0004f7 940c 0500 	JMP _0x94
                 ;            {
                 ;            K[2][1]-=10;
0004f9 940e 1199 	CALL SUBOPT_0x1A
0004fb 973a      	SBIW R30,10
                +
0004fc e0aa     +LDI R26 , LOW ( _K + ( 10 ) )
0004fd e0b0     +LDI R27 , HIGH ( _K + ( 10 ) )
0004fe 940e 141c+CALL __EEPROMWRW
                 	__PUTW1EN _K,10
                 ;            }
                 ;        /*#ifdef _220_
                 ;        granee(&K[2][1],4500,5500);
                 ;        #else
                 ;        granee(&K[2][1],1360,1700);
                 ;        #endif    */
                 ;        }
                 _0x94:
                 _0x93:
                 _0x91:
                 _0x8F:
                 _0x8D:
                 ;
                 ;    else if((RXBUFF1[3]&0xf0)==0x30)
000500 c042      	RJMP _0x95
                 _0x8B:
                +
000501 91e0 02e0+LDS R30 , _RXBUFF1 + ( 3 )
                 	__GETB1MN _RXBUFF1,3
000503 7fe0      	ANDI R30,LOW(0xF0)
000504 33e0      	CPI  R30,LOW(0x30)
000505 f011      	BREQ PC+3
000506 940c 0543 	JMP _0x96
                 ;        {
                 ;        if((RXBUFF1[3]&0x0f)==0x02)
000508 940e 117b 	CALL SUBOPT_0x14
00050a f011      	BREQ PC+3
00050b 940c 0513 	JMP _0x97
                 ;            {
                 ;            K[3][1]++;
00050d 940e 119e 	CALL SUBOPT_0x1B
00050f 9631      	ADIW R30,1
000510 940e 141c 	CALL __EEPROMWRW
                 ;            }
                 ;        else if((RXBUFF1[3]&0x0f)==0x03)
000512 c024      	RJMP _0x98
                 _0x97:
000513 940e 1185 	CALL SUBOPT_0x16
000515 f011      	BREQ PC+3
000516 940c 0520 	JMP _0x99
                 ;            {
                 ;            K[3][1]+=10;
000518 940e 119e 	CALL SUBOPT_0x1B
00051a 963a      	ADIW R30,10
                +
00051b e0ae     +LDI R26 , LOW ( _K + ( 14 ) )
00051c e0b0     +LDI R27 , HIGH ( _K + ( 14 ) )
00051d 940e 141c+CALL __EEPROMWRW
                 	__PUTW1EN _K,14
                 ;            }
                 ;        else if((RXBUFF1[3]&0x0f)==0x04)
00051f c017      	RJMP _0x9A
                 _0x99:
000520 940e 118a 	CALL SUBOPT_0x17
000522 f011      	BREQ PC+3
000523 940c 052b 	JMP _0x9B
                 ;            {
                 ;            K[3][1]--;
000525 940e 119e 	CALL SUBOPT_0x1B
000527 9731      	SBIW R30,1
000528 940e 141c 	CALL __EEPROMWRW
                 ;            }
                 ;        else if((RXBUFF1[3]&0x0f)==0x05)
00052a c00c      	RJMP _0x9C
                 _0x9B:
00052b 940e 118f 	CALL SUBOPT_0x18
00052d f011      	BREQ PC+3
00052e 940c 0537 	JMP _0x9D
                 ;            {
                 ;            K[3][1]-=10;
000530 940e 119e 	CALL SUBOPT_0x1B
000532 973a      	SBIW R30,10
                +
000533 e0ae     +LDI R26 , LOW ( _K + ( 14 ) )
000534 e0b0     +LDI R27 , HIGH ( _K + ( 14 ) )
000535 940e 141c+CALL __EEPROMWRW
                 	__PUTW1EN _K,14
                 ;            }
                 ;        granee(&K[3][1],/*480*/200,/*497*/1000);
                 _0x9D:
                 _0x9C:
                 _0x9A:
                 _0x98:
                +
000537 e0ee     +LDI R30 , LOW ( _K + ( 14 ) )
000538 e0f0     +LDI R31 , HIGH ( _K + ( 14 ) )
                 	__POINTW1MN _K,14
000539 93fa      	ST   -Y,R31
00053a 93ea      	ST   -Y,R30
00053b ece8      	LDI  R30,LOW(200)
00053c e0f0      	LDI  R31,HIGH(200)
00053d 93fa      	ST   -Y,R31
00053e 93ea      	ST   -Y,R30
00053f eea8      	LDI  R26,LOW(1000)
000540 e0b3      	LDI  R27,HIGH(1000)
000541 940e 0723 	CALL _granee
                 ;        }
                 ;
                 ;/*    else if((RXBUFF1[3]&0xf0)==0xA0)    //изменение адреса(инкремент и декремент)
                 ;        {
                 ;        //rotor++;
                 ;        if((RXBUFF1[3]&0x0f)==0x02)
                 ;            {
                 ;            adr_ee++;
                 ;            }
                 ;        else if((RXBUFF1[3]&0x0f)==0x03)
                 ;            {
                 ;            adr_ee+=10;
                 ;            }
                 ;        else if((RXBUFF1[3]&0x0f)==0x04)
                 ;            {
                 ;            adr_ee--;
                 ;            }
                 ;        else if((RXBUFF1[3]&0x0f)==0x05)
                 ;            {
                 ;            adr_ee-=10;
                 ;            }
                 ;        } */
                 ;/*    else if((RXBUFF1[3]&0xf0)==0xB0)   //установка адреса(для ворот)
                 ;        {
                 ;        //rotor--;
                 ;        adr_ee=(RXBUFF1[3]&0x0f);
                 ;        }  */
                 ;    link_cnt=0;
                 _0x96:
                 _0x95:
                 _0x8A:
                 _0x81:
000543 940e 1161 	CALL SUBOPT_0x10
                 ;     link=ON;
                 ;     if(res_fl_)
000545 940e 1168 	CALL SUBOPT_0x11
000547 f411      	BRNE PC+3
000548 940c 054f 	JMP _0x9E
                 ;          {
                 ;          res_fl_=0;
00054a e1af      	LDI  R26,LOW(_res_fl_)
00054b e0b0      	LDI  R27,HIGH(_res_fl_)
00054c e0e0      	LDI  R30,LOW(0)
00054d 940e 1424 	CALL __EEPROMWRB
                 ;          }
                 ;
                 ;
                 ;    }
                 _0x9E:
                 ;
                 ;else if((RXBUFF1[0]==0xff)&&(RXBUFF1[1]==0xff)&&(RXBUFF1[2]==MEM_KF))
00054f c173      	RJMP _0x9F
                 _0x74:
000550 91a0 02dd 	LDS  R26,_RXBUFF1
000552 3faf      	CPI  R26,LOW(0xFF)
000553 f011      	BREQ PC+3
000554 940c 0563 	JMP _0xA1
                +
000556 91a0 02de+LDS R26 , _RXBUFF1 + ( 1 )
                 	__GETB2MN _RXBUFF1,1
000558 3faf      	CPI  R26,LOW(0xFF)
000559 f011      	BREQ PC+3
00055a 940c 0563 	JMP _0xA1
                +
00055c 91a0 02df+LDS R26 , _RXBUFF1 + ( 2 )
                 	__GETB2MN _RXBUFF1,2
00055e 36a2      	CPI  R26,LOW(0x62)
00055f f011      	BREQ PC+3
000560 940c 0563 	JMP _0xA1
000562 c001      	RJMP _0xA2
                 _0xA1:
000563 c03b      	RJMP _0xA0
                 _0xA2:
                 ;    {
                 ;    //rotor_int++;
                 ;    if(Umax!=(RXBUFF1[3]+(RXBUFF1[4]*256))) Umax=(RXBUFF1[3]+(RXBUFF1[4]*256));
000564 e1a0      	LDI  R26,LOW(_Umax)
000565 e0b0      	LDI  R27,HIGH(_Umax)
000566 940e 11a3 	CALL SUBOPT_0x1C
000568 940e 11a9 	CALL SUBOPT_0x1D
00056a 17e6      	CP   R30,R22
00056b 07f7      	CPC  R31,R23
00056c f411      	BRNE PC+3
00056d 940c 0579 	JMP _0xA3
                +
00056f 91a0 02e1+LDS R26 , _RXBUFF1 + ( 4 )
                 	__GETB2MN _RXBUFF1,4
000571 940e 112e 	CALL SUBOPT_0xC
000573 940e 11a9 	CALL SUBOPT_0x1D
000575 e1a0      	LDI  R26,LOW(_Umax)
000576 e0b0      	LDI  R27,HIGH(_Umax)
000577 940e 141c 	CALL __EEPROMWRW
                 ;    if(dU!=(RXBUFF1[5]+(RXBUFF1[6]*256))) dU=(RXBUFF1[5]+(RXBUFF1[6]*256));
                 _0xA3:
000579 e1a2      	LDI  R26,LOW(_dU)
00057a e0b0      	LDI  R27,HIGH(_dU)
00057b 940e 140c 	CALL __EEPROMRDW
00057d 01bf      	MOVW R22,R30
00057e 940e 11af 	CALL SUBOPT_0x1E
000580 940e 11b2 	CALL SUBOPT_0x1F
000582 17e6      	CP   R30,R22
000583 07f7      	CPC  R31,R23
000584 f411      	BRNE PC+3
000585 940c 058f 	JMP _0xA4
000587 940e 11af 	CALL SUBOPT_0x1E
000589 940e 11b2 	CALL SUBOPT_0x1F
00058b e1a2      	LDI  R26,LOW(_dU)
00058c e0b0      	LDI  R27,HIGH(_dU)
00058d 940e 141c 	CALL __EEPROMWRW
                 ;
                 ;    if((RXBUFF1[7]&0x0f)==0x05)
                 _0xA4:
                +
00058f 91e0 02e4+LDS R30 , _RXBUFF1 + ( 7 )
                 	__GETB1MN _RXBUFF1,7
000591 70ef      	ANDI R30,LOW(0xF)
000592 30e5      	CPI  R30,LOW(0x5)
000593 f011      	BREQ PC+3
000594 940c 0597 	JMP _0xA5
                 ;        {
                 ; //      if(ee_AVT_MODE!=0x55)ee_AVT_MODE=0x55;
                 ;        }
                 ;    else if((RXBUFF1[7]&0x0f)==0x0a)
000596 c007      	RJMP _0xA6
                 _0xA5:
                +
000597 91e0 02e4+LDS R30 , _RXBUFF1 + ( 7 )
                 	__GETB1MN _RXBUFF1,7
000599 70ef      	ANDI R30,LOW(0xF)
00059a 30ea      	CPI  R30,LOW(0xA)
00059b f011      	BREQ PC+3
00059c 940c 059e 	JMP _0xA7
                 ;        {
                 ;//        if(ee_AVT_MODE!=0)ee_AVT_MODE=0;
                 ;        }
                 ;    }
                 _0xA7:
                 _0xA6:
                 ;
                 ;else if((RXBUFF1[0]==0xff)&&(RXBUFF1[1]==0xff)&&((RXBUFF1[2]==MEM_KF1)/*||(RXBUFF1[2]==MEM_KF4)*/))
00059e c124      	RJMP _0xA8
                 _0xA0:
00059f 91a0 02dd 	LDS  R26,_RXBUFF1
0005a1 3faf      	CPI  R26,LOW(0xFF)
0005a2 f011      	BREQ PC+3
0005a3 940c 05b2 	JMP _0xAA
                +
0005a5 91a0 02de+LDS R26 , _RXBUFF1 + ( 1 )
                 	__GETB2MN _RXBUFF1,1
0005a7 3faf      	CPI  R26,LOW(0xFF)
0005a8 f011      	BREQ PC+3
0005a9 940c 05b2 	JMP _0xAA
                +
0005ab 91a0 02df+LDS R26 , _RXBUFF1 + ( 2 )
                 	__GETB2MN _RXBUFF1,2
0005ad 32a6      	CPI  R26,LOW(0x26)
0005ae f011      	BREQ PC+3
0005af 940c 05b2 	JMP _0xAA
0005b1 c001      	RJMP _0xAB
                 _0xAA:
0005b2 c042      	RJMP _0xA9
                 _0xAB:
                 ;    {
                 ;    if(tmax!=(RXBUFF1[3]+(RXBUFF1[4]*256))) tmax=(RXBUFF1[3]+(RXBUFF1[4]*256));
0005b3 e1a4      	LDI  R26,LOW(_tmax)
0005b4 e0b0      	LDI  R27,HIGH(_tmax)
0005b5 940e 11a3 	CALL SUBOPT_0x1C
0005b7 940e 11a9 	CALL SUBOPT_0x1D
0005b9 17e6      	CP   R30,R22
0005ba 07f7      	CPC  R31,R23
0005bb f411      	BRNE PC+3
0005bc 940c 05c8 	JMP _0xAC
                +
0005be 91a0 02e1+LDS R26 , _RXBUFF1 + ( 4 )
                 	__GETB2MN _RXBUFF1,4
0005c0 940e 112e 	CALL SUBOPT_0xC
0005c2 940e 11a9 	CALL SUBOPT_0x1D
0005c4 e1a4      	LDI  R26,LOW(_tmax)
0005c5 e0b0      	LDI  R27,HIGH(_tmax)
0005c6 940e 141c 	CALL __EEPROMWRW
                 ;    if(tsign!=(RXBUFF1[5]+(RXBUFF1[5]*256))) tsign=(RXBUFF1[5]+(RXBUFF1[6]*256));
                 _0xAC:
0005c8 940e 11b8 	CALL SUBOPT_0x20
0005ca 01bf      	MOVW R22,R30
0005cb 940e 1126 	CALL SUBOPT_0xB
0005cd 940e 11b2 	CALL SUBOPT_0x1F
0005cf 17e6      	CP   R30,R22
0005d0 07f7      	CPC  R31,R23
0005d1 f411      	BRNE PC+3
0005d2 940c 05dc 	JMP _0xAD
0005d4 940e 11af 	CALL SUBOPT_0x1E
0005d6 940e 11b2 	CALL SUBOPT_0x1F
0005d8 e1a6      	LDI  R26,LOW(_tsign)
0005d9 e0b0      	LDI  R27,HIGH(_tsign)
0005da 940e 141c 	CALL __EEPROMWRW
                 ;    //if(TZAS!=RXBUFF1[7]) TZAS=RXBUFF1[7];
                 ;
                 ;    if(RXBUFF1[2]==MEM_KF1)
                 _0xAD:
                +
0005dc 91a0 02df+LDS R26 , _RXBUFF1 + ( 2 )
                 	__GETB2MN _RXBUFF1,2
0005de 32a6      	CPI  R26,LOW(0x26)
0005df f011      	BREQ PC+3
0005e0 940c 05f4 	JMP _0xAE
                 ;        {
                 ; //       if(ee_DEVICE!=0)ee_DEVICE=0;
                 ;        if(TZAS!=(signed short)RXBUFF1[7]) TZAS=(signed short)RXBUFF1[7];
0005e2 940e 1121 	CALL SUBOPT_0xA
0005e4 2fae      	MOV  R26,R30
                +
0005e5 91e0 02e4+LDS R30 , _RXBUFF1 + ( 7 )
                 	__GETB1MN _RXBUFF1,7
0005e7 e0f0      	LDI  R31,0
0005e8 e0b0      	LDI  R27,0
0005e9 17ea      	CP   R30,R26
0005ea 07fb      	CPC  R31,R27
0005eb f411      	BRNE PC+3
0005ec 940c 05f4 	JMP _0xAF
                +
0005ee 91e0 02e4+LDS R30 , _RXBUFF1 + ( 7 )
                 	__GETB1MN _RXBUFF1,7
0005f0 e1ad      	LDI  R26,LOW(_TZAS)
0005f1 e0b0      	LDI  R27,HIGH(_TZAS)
0005f2 940e 1424 	CALL __EEPROMWRB
                 ;        }
                 _0xAF:
                 ; //   if(RXBUFF1[2]==MEM_KF4)    //MEM_KF4 передают УКУшки там, где нужно полное управление БПСами с УКУ, включить-выклю ...
                 ; //       {
                 ; //       if(ee_DEVICE!=1)ee_DEVICE=1;
                 ; //       if(ee_IMAXVENT!=(signed short)RXBUFF1[7]) ee_IMAXVENT=(signed short)RXBUFF1[7];
                 ; //           if(ee_TZAS!=3) ee_TZAS=3;
                 ;  //      }
                 ;
                 ;    }
                 _0xAE:
                 ;
                 ;else if((RXBUFF1[0]==adr)&&(RXBUFF1[1]==adr)&&(RXBUFF1[2]==CMND)&&(RXBUFF1[3]==ALRM_RES))
0005f4 c0ce      	RJMP _0xB0
                 _0xA9:
0005f5 940e 111c 	CALL SUBOPT_0x9
0005f7 91a0 02dd 	LDS  R26,_RXBUFF1
0005f9 17ea      	CP   R30,R26
0005fa f011      	BREQ PC+3
0005fb 940c 0612 	JMP _0xB2
0005fd 940e 111c 	CALL SUBOPT_0x9
                +
0005ff 91a0 02de+LDS R26 , _RXBUFF1 + ( 1 )
                 	__GETB2MN _RXBUFF1,1
000601 17ea      	CP   R30,R26
000602 f011      	BREQ PC+3
000603 940c 0612 	JMP _0xB2
                +
000605 91a0 02df+LDS R26 , _RXBUFF1 + ( 2 )
                 	__GETB2MN _RXBUFF1,2
000607 31a6      	CPI  R26,LOW(0x16)
000608 f011      	BREQ PC+3
000609 940c 0612 	JMP _0xB2
                +
00060b 91a0 02e0+LDS R26 , _RXBUFF1 + ( 3 )
                 	__GETB2MN _RXBUFF1,3
00060d 36a3      	CPI  R26,LOW(0x63)
00060e f011      	BREQ PC+3
00060f 940c 0612 	JMP _0xB2
000611 c001      	RJMP _0xB3
                 _0xB2:
000612 c006      	RJMP _0xB1
                 _0xB3:
                 ;    {
                 ;    flags&=0b11100001;
000613 940e 11bd 	CALL SUBOPT_0x21
                 ;    tsign_cnt=0;
                 ;    tmax_cnt=0;
                 ;    umax_cnt=0;
                 ;    umin_cnt=0;
                 ;    led_drv_cnt=30;
000615 e1ee      	LDI  R30,LOW(30)
000616 93e0 02a4 	STS  _led_drv_cnt,R30
                 ;    }
                 ;/*else if((RXBUFF1[0]==adr)&&(RXBUFF1[1]==adr)&&(RXBUFF1[2]==CMND)&&(RXBUFF1[3]==VENT_RES))
                 ;    {
                 ;    vent_resurs=0;
                 ;    }*/
                 ;else if((RXBUFF1[0]==0xff)&&(RXBUFF1[1]==0xff)&&(RXBUFF1[2]==CMND)&&(RXBUFF1[3]==CMND))
000618 c0aa      	RJMP _0xB4
                 _0xB1:
000619 91a0 02dd 	LDS  R26,_RXBUFF1
00061b 3faf      	CPI  R26,LOW(0xFF)
00061c f011      	BREQ PC+3
00061d 940c 0632 	JMP _0xB6
                +
00061f 91a0 02de+LDS R26 , _RXBUFF1 + ( 1 )
                 	__GETB2MN _RXBUFF1,1
000621 3faf      	CPI  R26,LOW(0xFF)
000622 f011      	BREQ PC+3
000623 940c 0632 	JMP _0xB6
                +
000625 91a0 02df+LDS R26 , _RXBUFF1 + ( 2 )
                 	__GETB2MN _RXBUFF1,2
000627 31a6      	CPI  R26,LOW(0x16)
000628 f011      	BREQ PC+3
000629 940c 0632 	JMP _0xB6
                +
00062b 91a0 02e0+LDS R26 , _RXBUFF1 + ( 3 )
                 	__GETB2MN _RXBUFF1,3
00062d 31a6      	CPI  R26,LOW(0x16)
00062e f011      	BREQ PC+3
00062f 940c 0632 	JMP _0xB6
000631 c001      	RJMP _0xB7
                 _0xB6:
000632 c046      	RJMP _0xB5
                 _0xB7:
                 ;    {
                 ;    if((RXBUFF1[4]==0x55)&&(RXBUFF1[5]==0x55)) _x_++;
                +
000633 91a0 02e1+LDS R26 , _RXBUFF1 + ( 4 )
                 	__GETB2MN _RXBUFF1,4
000635 35a5      	CPI  R26,LOW(0x55)
000636 f011      	BREQ PC+3
000637 940c 0640 	JMP _0xB9
                +
000639 91a0 02e2+LDS R26 , _RXBUFF1 + ( 5 )
                 	__GETB2MN _RXBUFF1,5
00063b 35a5      	CPI  R26,LOW(0x55)
00063c f011      	BREQ PC+3
00063d 940c 0640 	JMP _0xB9
00063f c001      	RJMP _0xBA
                 _0xB9:
000640 c005      	RJMP _0xB8
                 _0xBA:
000641 eba5      	LDI  R26,LOW(__x_)
000642 e0b2      	LDI  R27,HIGH(__x_)
000643 940e 11d4 	CALL SUBOPT_0x22
                 ;    else if((RXBUFF1[4]==0x66)&&(RXBUFF1[5]==0x66)) _x_--;
000645 c026      	RJMP _0xBB
                 _0xB8:
                +
000646 91a0 02e1+LDS R26 , _RXBUFF1 + ( 4 )
                 	__GETB2MN _RXBUFF1,4
000648 36a6      	CPI  R26,LOW(0x66)
000649 f011      	BREQ PC+3
00064a 940c 0653 	JMP _0xBD
                +
00064c 91a0 02e2+LDS R26 , _RXBUFF1 + ( 5 )
                 	__GETB2MN _RXBUFF1,5
00064e 36a6      	CPI  R26,LOW(0x66)
00064f f011      	BREQ PC+3
000650 940c 0653 	JMP _0xBD
000652 c001      	RJMP _0xBE
                 _0xBD:
000653 c005      	RJMP _0xBC
                 _0xBE:
000654 eba5      	LDI  R26,LOW(__x_)
000655 e0b2      	LDI  R27,HIGH(__x_)
000656 940e 11da 	CALL SUBOPT_0x23
                 ;    else if((RXBUFF1[4]==0x77)&&(RXBUFF1[5]==0x77)) _x_=0;
000658 c013      	RJMP _0xBF
                 _0xBC:
                +
000659 91a0 02e1+LDS R26 , _RXBUFF1 + ( 4 )
                 	__GETB2MN _RXBUFF1,4
00065b 37a7      	CPI  R26,LOW(0x77)
00065c f011      	BREQ PC+3
00065d 940c 0666 	JMP _0xC1
                +
00065f 91a0 02e2+LDS R26 , _RXBUFF1 + ( 5 )
                 	__GETB2MN _RXBUFF1,5
000661 37a7      	CPI  R26,LOW(0x77)
000662 f011      	BREQ PC+3
000663 940c 0666 	JMP _0xC1
000665 c001      	RJMP _0xC2
                 _0xC1:
000666 c005      	RJMP _0xC0
                 _0xC2:
000667 e0e0      	LDI  R30,LOW(0)
000668 93e0 02b5 	STS  __x_,R30
00066a 93e0 02b6 	STS  __x_+1,R30
                 ;     gran(&_x_,-XMAX,XMAX);
                 _0xC0:
                 _0xBF:
                 _0xBB:
00066c ebe5      	LDI  R30,LOW(__x_)
00066d e0f2      	LDI  R31,HIGH(__x_)
00066e 93fa      	ST   -Y,R31
00066f 93ea      	ST   -Y,R30
000670 eee7      	LDI  R30,LOW(65511)
000671 efff      	LDI  R31,HIGH(65511)
000672 93fa      	ST   -Y,R31
000673 93ea      	ST   -Y,R30
000674 e1a9      	LDI  R26,LOW(25)
000675 e0b0      	LDI  R27,0
000676 940e 06ff 	CALL _gran
                 ;    }
                 ;else if((RXBUFF1[0]==adr)&&(RXBUFF1[1]==adr)&&(RXBUFF1[2]==CMND)&&(RXBUFF1[3]==RXBUFF1[4])&&(RXBUFF1[3]==0xee))
000678 c04a      	RJMP _0xC3
                 _0xB5:
000679 940e 111c 	CALL SUBOPT_0x9
00067b 91a0 02dd 	LDS  R26,_RXBUFF1
00067d 17ea      	CP   R30,R26
00067e f011      	BREQ PC+3
00067f 940c 069e 	JMP _0xC5
000681 940e 111c 	CALL SUBOPT_0x9
                +
000683 91a0 02de+LDS R26 , _RXBUFF1 + ( 1 )
                 	__GETB2MN _RXBUFF1,1
000685 17ea      	CP   R30,R26
000686 f011      	BREQ PC+3
000687 940c 069e 	JMP _0xC5
                +
000689 91a0 02df+LDS R26 , _RXBUFF1 + ( 2 )
                 	__GETB2MN _RXBUFF1,2
00068b 31a6      	CPI  R26,LOW(0x16)
00068c f011      	BREQ PC+3
00068d 940c 069e 	JMP _0xC5
                +
00068f 91a0 02e0+LDS R26 , _RXBUFF1 + ( 3 )
                 	__GETB2MN _RXBUFF1,3
                +
000691 91e0 02e1+LDS R30 , _RXBUFF1 + ( 4 )
                 	__GETB1MN _RXBUFF1,4
000693 17ea      	CP   R30,R26
000694 f011      	BREQ PC+3
000695 940c 069e 	JMP _0xC5
                +
000697 91a0 02e0+LDS R26 , _RXBUFF1 + ( 3 )
                 	__GETB2MN _RXBUFF1,3
000699 3eae      	CPI  R26,LOW(0xEE)
00069a f011      	BREQ PC+3
00069b 940c 069e 	JMP _0xC5
00069d c001      	RJMP _0xC6
                 _0xC5:
00069e c024      	RJMP _0xC4
                 _0xC6:
                 ;    {
                 ;    rotor_int++;
00069f 940e 116e 	CALL SUBOPT_0x12
                 ;     tempI=pwm_u;
                +
0006a1 9140 02a9+LDS R20 , 0 + ( _pwm_u )
0006a3 9150 02aa+LDS R21 , 0 + ( _pwm_u ) + 1
                 	__GETWRMN 20,21,0,_pwm_u
                 ;    U_AVT=tempI;
0006a5 01fa      	MOVW R30,R20
0006a6 e1ab      	LDI  R26,LOW(_U_AVT)
0006a7 e0b0      	LDI  R27,HIGH(_U_AVT)
0006a8 940e 141c 	CALL __EEPROMWRW
                 ;    delay_ms(100);
0006aa 940e 1118 	CALL SUBOPT_0x8
                 ;    if(U_AVT==tempI)can_transmit1(adr,PUTID,0xdd,0xdd,0,0,0,0);
0006ac e1ab      	LDI  R26,LOW(_U_AVT)
0006ad e0b0      	LDI  R27,HIGH(_U_AVT)
0006ae 940e 140c 	CALL __EEPROMRDW
0006b0 174e      	CP   R20,R30
0006b1 075f      	CPC  R21,R31
0006b2 f011      	BREQ PC+3
0006b3 940c 06c3 	JMP _0xC7
0006b5 940e 111c 	CALL SUBOPT_0x9
0006b7 93ea      	ST   -Y,R30
0006b8 e9e1      	LDI  R30,LOW(145)
0006b9 93ea      	ST   -Y,R30
0006ba eded      	LDI  R30,LOW(221)
0006bb 93ea      	ST   -Y,R30
0006bc 940e 115c 	CALL SUBOPT_0xF
0006be e0e0      	LDI  R30,LOW(0)
0006bf 93ea      	ST   -Y,R30
0006c0 e0a0      	LDI  R26,LOW(0)
0006c1 940e 0140 	CALL _can_transmit1
                 ;
                 ;    }
                 _0xC7:
                 ;
                 ;
                 ;
                 ;
                 ;
                 ;can_in_an1_end:
                 _0xC4:
                 _0xC3:
                 _0xB4:
                 _0xB0:
                 _0xA8:
                 _0x9F:
                 _0x73:
                 _0xC8:
                 ;bIN1=0;
0006c3 e0e0      	LDI  R30,LOW(0)
0006c4 93e0 0305 	STS  _bIN1,R30
                 ;}
0006c6 940e 1442 	CALL __LOADLOCR6
0006c8 9626      	ADIW R28,6
0006c9 9508      	RET
                 ; .FEND
                 ;
                 ;//-----------------------------------------------
                 ;void net_drv(void)
                 ;{
                 ;//char temp_;
                 ;/*if(bMAIN)
                 ;    {
                 ;    if(++cnt_net_drv>=7) cnt_net_drv=0;
                 ;
                 ;    if(cnt_net_drv<=5)
                 ;        {
                 ;        can_transmit1(cnt_net_drv,cnt_net_drv,GETTM,0,(char)(volum_u_main_+x[cnt_net_drv]),(char)((volum_u_main_+x[cnt_n ...
                 ;        i_main_bps_cnt[cnt_net_drv]++;
                 ;        if(i_main_bps_cnt[cnt_net_drv]>10)i_main_flag[cnt_net_drv]=0;
                 ;        }
                 ;    else if(cnt_net_drv==6)
                 ;        {
                 ;        plazma_int[2]=pwm_u;
                 ;        can_transmit1(adr,PUTTM1,*(((char*)&I)+1),*((char*)&I),*(((char*)&Un)+1),*((char*)&Un),*(((char*)&Ui)+1),*((char ...
                 ;        can_transmit1(adr,PUTTM2,T,vent_resurs_buff[vent_resurs_tx_cnt],flags,_x_,*(((char*)&plazma_int[2])+1),*((char*) ...
                 ;        }
                 ;    } */
                 ;}
                 ;
                 ;
                 ;
                 ;
                 ;
                 ;
                 ;
                 ;
                 ;
                 ;
                 ;
                 ;
                 ;
                 ;
                 ;//-----------------------------------------------
                 ;void t0_init(void)
                 ; 0000 0084 {
                 _t0_init:
                 ; .FSTART _t0_init
                 ; 0000 0085 TCCR0A=0x00;
0006ca e0e0      	LDI  R30,LOW(0)
0006cb bde4      	OUT  0x24,R30
                 ; 0000 0086 TCCR0B=0x05;
0006cc e0e5      	LDI  R30,LOW(5)
0006cd bde5      	OUT  0x25,R30
                 ; 0000 0087 TCNT0=0x00;
0006ce e0e0      	LDI  R30,LOW(0)
0006cf bde6      	OUT  0x26,R30
                 ; 0000 0088 OCR0A=0x00;
0006d0 bde7      	OUT  0x27,R30
                 ; 0000 0089 OCR0B=0x00;
0006d1 bde8      	OUT  0x28,R30
                 ; 0000 008A 
                 ; 0000 008B TCNT0=-8;
0006d2 efe8      	LDI  R30,LOW(248)
0006d3 bde6      	OUT  0x26,R30
                 ; 0000 008C TIMSK0|=0b00000001;
0006d4 91e0 006e 	LDS  R30,110
0006d6 60e1      	ORI  R30,1
0006d7 93e0 006e 	STS  110,R30
                 ; 0000 008D 
                 ; 0000 008E 
                 ; 0000 008F }
0006d9 9508      	RET
                 ; .FEND
                 ;
                 ;//-----------------------------------------------
                 ;char adr_gran(signed short in)
                 ; 0000 0093 {
                 _adr_gran:
                 ; .FSTART _adr_gran
                 ; 0000 0094 if(in>800)return 1;
0006da 93ba      	ST   -Y,R27
0006db 93aa      	ST   -Y,R26
                 ;	in -> Y+0
0006dc 81a8      	LD   R26,Y
0006dd 81b9      	LDD  R27,Y+1
0006de 32a1      	CPI  R26,LOW(0x321)
0006df e0e3      	LDI  R30,HIGH(0x321)
0006e0 07be      	CPC  R27,R30
0006e1 f414      	BRGE PC+3
0006e2 940c 06e7 	JMP _0xC9
0006e4 e0e1      	LDI  R30,LOW(1)
0006e5 9622      	ADIW R28,2
0006e6 9508      	RET
                 ; 0000 0095 else if((in>80)&&(in<120))return 0;
                 _0xC9:
0006e7 81a8      	LD   R26,Y
0006e8 81b9      	LDD  R27,Y+1
0006e9 35a1      	CPI  R26,LOW(0x51)
0006ea e0e0      	LDI  R30,HIGH(0x51)
0006eb 07be      	CPC  R27,R30
0006ec f414      	BRGE PC+3
0006ed 940c 06f6 	JMP _0xCC
0006ef 37a8      	CPI  R26,LOW(0x78)
0006f0 e0e0      	LDI  R30,HIGH(0x78)
0006f1 07be      	CPC  R27,R30
0006f2 f014      	BRLT PC+3
0006f3 940c 06f6 	JMP _0xCC
0006f5 c001      	RJMP _0xCD
                 _0xCC:
0006f6 c003      	RJMP _0xCB
                 _0xCD:
0006f7 e0e0      	LDI  R30,LOW(0)
0006f8 9622      	ADIW R28,2
0006f9 9508      	RET
                 ; 0000 0096 else return 100;
                 _0xCB:
0006fa e6e4      	LDI  R30,LOW(100)
0006fb 9622      	ADIW R28,2
0006fc 9508      	RET
                 ; 0000 0097 }
                 _0xCE:
                 _0xCA:
0006fd 9622      	ADIW R28,2
0006fe 9508      	RET
                 ; .FEND
                 ;
                 ;
                 ;//-----------------------------------------------
                 ;void gran(signed int *adr, signed int min, signed int max)
                 ; 0000 009C {
                 _gran:
                 ; .FSTART _gran
                 ; 0000 009D if (*adr<min) *adr=min;
0006ff 93ba      	ST   -Y,R27
000700 93aa      	ST   -Y,R26
                 ;	*adr -> Y+4
                 ;	min -> Y+2
                 ;	max -> Y+0
000701 81ac      	LDD  R26,Y+4
000702 81bd      	LDD  R27,Y+4+1
000703 940e 13ef 	CALL __GETW1P
000705 01df      	MOVW R26,R30
000706 81ea      	LDD  R30,Y+2
000707 81fb      	LDD  R31,Y+2+1
000708 17ae      	CP   R26,R30
000709 07bf      	CPC  R27,R31
00070a f014      	BRLT PC+3
00070b 940c 0711 	JMP _0xCF
00070d 81ac      	LDD  R26,Y+4
00070e 81bd      	LDD  R27,Y+4+1
00070f 93ed      	ST   X+,R30
000710 93fc      	ST   X,R31
                 ; 0000 009E if (*adr>max) *adr=max;
                 _0xCF:
000711 81ac      	LDD  R26,Y+4
000712 81bd      	LDD  R27,Y+4+1
000713 940e 13ef 	CALL __GETW1P
000715 01df      	MOVW R26,R30
000716 81e8      	LD   R30,Y
000717 81f9      	LDD  R31,Y+1
000718 17ea      	CP   R30,R26
000719 07fb      	CPC  R31,R27
00071a f014      	BRLT PC+3
00071b 940c 0721 	JMP _0xD0
00071d 81ac      	LDD  R26,Y+4
00071e 81bd      	LDD  R27,Y+4+1
00071f 93ed      	ST   X+,R30
000720 93fc      	ST   X,R31
                 ; 0000 009F }
                 _0xD0:
000721 9626      	ADIW R28,6
000722 9508      	RET
                 ; .FEND
                 ;
                 ;
                 ;//-----------------------------------------------
                 ;void granee(eeprom signed int *adr, signed int min, signed int max)
                 ; 0000 00A4 {
                 _granee:
                 ; .FSTART _granee
                 ; 0000 00A5 if (*adr<min) *adr=min;
000723 93ba      	ST   -Y,R27
000724 93aa      	ST   -Y,R26
                 ;	*adr -> Y+4
                 ;	min -> Y+2
                 ;	max -> Y+0
000725 81ac      	LDD  R26,Y+4
000726 81bd      	LDD  R27,Y+4+1
000727 940e 140c 	CALL __EEPROMRDW
000729 01df      	MOVW R26,R30
00072a 81ea      	LDD  R30,Y+2
00072b 81fb      	LDD  R31,Y+2+1
00072c 17ae      	CP   R26,R30
00072d 07bf      	CPC  R27,R31
00072e f014      	BRLT PC+3
00072f 940c 0735 	JMP _0xD1
000731 81ac      	LDD  R26,Y+4
000732 81bd      	LDD  R27,Y+4+1
000733 940e 141c 	CALL __EEPROMWRW
                 ; 0000 00A6 if (*adr>max) *adr=max;
                 _0xD1:
000735 81ac      	LDD  R26,Y+4
000736 81bd      	LDD  R27,Y+4+1
000737 940e 140c 	CALL __EEPROMRDW
000739 01df      	MOVW R26,R30
00073a 81e8      	LD   R30,Y
00073b 81f9      	LDD  R31,Y+1
00073c 17ea      	CP   R30,R26
00073d 07fb      	CPC  R31,R27
00073e f014      	BRLT PC+3
00073f 940c 0745 	JMP _0xD2
000741 81ac      	LDD  R26,Y+4
000742 81bd      	LDD  R27,Y+4+1
000743 940e 141c 	CALL __EEPROMWRW
                 ; 0000 00A7 }
                 _0xD2:
000745 9626      	ADIW R28,6
000746 9508      	RET
                 ; .FEND
                 ;
                 ;//-----------------------------------------------
                 ;void x_drv(void)
                 ; 0000 00AB {
                 _x_drv:
                 ; .FSTART _x_drv
                 ; 0000 00AC /*
                 ; 0000 00AD if((adr==62)&&(link_cnt63<5))
                 ; 0000 00AE         {
                 ; 0000 00AF         //_x_=25;
                 ; 0000 00B0         if((I>I63)&&((I-I63)>1))
                 ; 0000 00B1                 {
                 ; 0000 00B2 	        if(_x_cnt<5)
                 ; 0000 00B3 		        {
                 ; 0000 00B4 		        _x_cnt++;
                 ; 0000 00B5 		        if(_x_cnt>=5)
                 ; 0000 00B6 			        {
                 ; 0000 00B7 			        _x_--;
                 ; 0000 00B8 			        _x_cnt=0;
                 ; 0000 00B9 			        }
                 ; 0000 00BA 		        }
                 ; 0000 00BB                 }
                 ; 0000 00BC 
                 ; 0000 00BD         else if((I<I63)&&((I63-I)>1))
                 ; 0000 00BE                 {
                 ; 0000 00BF 	        if(_x_cnt<5)
                 ; 0000 00C0 		        {
                 ; 0000 00C1 		        _x_cnt++;
                 ; 0000 00C2 		        if(_x_cnt>=5)
                 ; 0000 00C3 			        {
                 ; 0000 00C4 			        _x_++;
                 ; 0000 00C5 			        _x_cnt=0;
                 ; 0000 00C6 			        }
                 ; 0000 00C7 		        }
                 ; 0000 00C8                 }
                 ; 0000 00C9         else _x_cnt=0;
                 ; 0000 00CA 
                 ; 0000 00CB         gran(&_x_,-XMAX,XMAX);
                 ; 0000 00CC         }
                 ; 0000 00CD else if(adr==63)
                 ; 0000 00CE         {
                 ; 0000 00CF         }
                 ; 0000 00D0 else
                 ; 0000 00D1         {
                 ; 0000 00D2 
                 ; 0000 00D3 if(_x__==_x_)
                 ; 0000 00D4 	{
                 ; 0000 00D5 	if(_x_cnt<60)
                 ; 0000 00D6 		{
                 ; 0000 00D7 		_x_cnt++;
                 ; 0000 00D8 		if(_x_cnt>=60)
                 ; 0000 00D9 			{
                 ; 0000 00DA 			if(_x_ee_!=_x_)_x_ee_=_x_;
                 ; 0000 00DB 			}
                 ; 0000 00DC 		}
                 ; 0000 00DD 
                 ; 0000 00DE 	}
                 ; 0000 00DF else _x_cnt=0;
                 ; 0000 00E0 
                 ; 0000 00E1 if(_x_cnt>60) _x_cnt=0;
                 ; 0000 00E2 
                 ; 0000 00E3 _x__=_x_;
                 ; 0000 00E4         }  */
                 ; 0000 00E5 }
000747 9508      	RET
                 ; .FEND
                 ;
                 ;//-----------------------------------------------
                 ;void apv_start(void)
                 ; 0000 00E9 {
                 _apv_start:
                 ; .FSTART _apv_start
                 ; 0000 00EA if((apv_cnt[0]==0)&&(apv_cnt[1]==0)&&(apv_cnt[2]==0)&&!bAPV)
000748 91a0 02c5 	LDS  R26,_apv_cnt
00074a 30a0      	CPI  R26,LOW(0x0)
00074b f011      	BREQ PC+3
00074c 940c 075e 	JMP _0xD4
                +
00074e 91a0 02c6+LDS R26 , _apv_cnt + ( 1 )
                 	__GETB2MN _apv_cnt,1
000750 30a0      	CPI  R26,LOW(0x0)
000751 f011      	BREQ PC+3
000752 940c 075e 	JMP _0xD4
                +
000754 91a0 02c7+LDS R26 , _apv_cnt + ( 2 )
                 	__GETB2MN _apv_cnt,2
000756 30a0      	CPI  R26,LOW(0x0)
000757 f011      	BREQ PC+3
000758 940c 075e 	JMP _0xD4
00075a b5ea      	IN   R30,0x2A
00075b fde0      	SBRC R30,0
00075c c001      	RJMP _0xD4
00075d c001      	RJMP _0xD5
                 _0xD4:
00075e c010      	RJMP _0xD3
                 _0xD5:
                 ; 0000 00EB 	{
                 ; 0000 00EC 	apv_cnt[0]=60;
00075f e3ec      	LDI  R30,LOW(60)
000760 93e0 02c5 	STS  _apv_cnt,R30
                 ; 0000 00ED 	apv_cnt[1]=60;
                +
000762 93e0 02c6+STS _apv_cnt + ( 1 ) , R30
                 	__PUTB1MN _apv_cnt,1
                 ; 0000 00EE 	apv_cnt[2]=60;
                +
000764 93e0 02c7+STS _apv_cnt + ( 2 ) , R30
                 	__PUTB1MN _apv_cnt,2
                 ; 0000 00EF 	apv_cnt_=3600;
000766 e1e0      	LDI  R30,LOW(3600)
000767 e0fe      	LDI  R31,HIGH(3600)
000768 93e0 02c8 	STS  _apv_cnt_,R30
00076a 93f0 02c9 	STS  _apv_cnt_+1,R31
                 ; 0000 00F0 	bAPV=1;
00076c b5ea      	IN   R30,0x2A
00076d 60e1      	SBR  R30,1
00076e bdea      	OUT  0x2A,R30
                 ; 0000 00F1 	}
                 ; 0000 00F2 }
                 _0xD3:
00076f 9508      	RET
                 ; .FEND
                 ;
                 ;//-----------------------------------------------
                 ;void apv_stop(void)
                 ; 0000 00F6 {
                 _apv_stop:
                 ; .FSTART _apv_stop
                 ; 0000 00F7 apv_cnt[0]=0;
000770 e0e0      	LDI  R30,LOW(0)
000771 93e0 02c5 	STS  _apv_cnt,R30
                 ; 0000 00F8 apv_cnt[1]=0;
                +
000773 93e0 02c6+STS _apv_cnt + ( 1 ) , R30
                 	__PUTB1MN _apv_cnt,1
                 ; 0000 00F9 apv_cnt[2]=0;
                +
000775 93e0 02c7+STS _apv_cnt + ( 2 ) , R30
                 	__PUTB1MN _apv_cnt,2
                 ; 0000 00FA apv_cnt_=0;
000777 93e0 02c8 	STS  _apv_cnt_,R30
000779 93e0 02c9 	STS  _apv_cnt_+1,R30
                 ; 0000 00FB bAPV=0;
00077b b5ea      	IN   R30,0x2A
00077c 7fee      	CBR  R30,1
00077d bdea      	OUT  0x2A,R30
                 ; 0000 00FC }
00077e 9508      	RET
                 ; .FEND
                 ;
                 ;
                 ;//-----------------------------------------------
                 ;void av_wrk_drv_(void)
                 ; 0000 0101 {
                 ; 0000 0102 adc_ch_2_delta=(char)(adc_ch_2_max-adc_ch_2_min);
                 ; 0000 0103 adc_ch_2_max=adc_buff_[2];
                 ; 0000 0104 adc_ch_2_min=adc_buff_[2];
                 ; 0000 0105 if(PORTD.7==0)
                 ; 0000 0106 	{
                 ; 0000 0107 	if(adc_ch_2_delta>=5)
                 ; 0000 0108 		{
                 ; 0000 0109 		cnt_adc_ch_2_delta++;
                 ; 0000 010A 		if(cnt_adc_ch_2_delta>=10)
                 ; 0000 010B 			{
                 ; 0000 010C 			flags|=0x10;
                 ; 0000 010D 			apv_start();
                 ; 0000 010E 			}
                 ; 0000 010F 		}
                 ; 0000 0110 	else
                 ; 0000 0111 		{
                 ; 0000 0112 		cnt_adc_ch_2_delta=0;
                 ; 0000 0113 		}
                 ; 0000 0114 	}
                 ; 0000 0115 else cnt_adc_ch_2_delta=0;
                 ; 0000 0116 }
                 ;
                 ;//-----------------------------------------------
                 ;void led_drv(void)
                 ; 0000 011A {
                 _led_drv:
                 ; .FSTART _led_drv
                 ; 0000 011B 
                 ; 0000 011C static long led_red_buff,led_green_buff;
                 ; 0000 011D 
                 ; 0000 011E DDRD.1=1;
00077f 9a51      	SBI  0xA,1
                 ; 0000 011F if(led_green_buff&0b1L) PORTD.1=1;
000780 91e0 032e 	LDS  R30,_led_green_buff_S0000019000
000782 70e1      	ANDI R30,LOW(0x1)
000783 f411      	BRNE PC+3
000784 940c 0788 	JMP _0xDD
000786 9a59      	SBI  0xB,1
                 ; 0000 0120 else PORTD.1=0;
000787 c001      	RJMP _0xE0
                 _0xDD:
000788 9859      	CBI  0xB,1
                 ; 0000 0121 DDRD.0=1;
                 _0xE0:
000789 9a50      	SBI  0xA,0
                 ; 0000 0122 if(led_red_buff&0b1L) PORTD.0=1;
00078a 91e0 032a 	LDS  R30,_led_red_buff_S0000019000
00078c 70e1      	ANDI R30,LOW(0x1)
00078d f411      	BRNE PC+3
00078e 940c 0792 	JMP _0xE5
000790 9a58      	SBI  0xB,0
                 ; 0000 0123 else PORTD.0=0;
000791 c001      	RJMP _0xE8
                 _0xE5:
000792 9858      	CBI  0xB,0
                 ; 0000 0124 
                 ; 0000 0125 
                 ; 0000 0126 led_red_buff>>=1;
                 _0xE8:
000793 91e0 032a 	LDS  R30,_led_red_buff_S0000019000
000795 91f0 032b 	LDS  R31,_led_red_buff_S0000019000+1
000797 9160 032c 	LDS  R22,_led_red_buff_S0000019000+2
000799 9170 032d 	LDS  R23,_led_red_buff_S0000019000+3
00079b 940e 135f 	CALL __ASRD1
00079d 940e 11e0 	CALL SUBOPT_0x24
                 ; 0000 0127 led_green_buff>>=1;
00079f 91e0 032e 	LDS  R30,_led_green_buff_S0000019000
0007a1 91f0 032f 	LDS  R31,_led_green_buff_S0000019000+1
0007a3 9160 0330 	LDS  R22,_led_green_buff_S0000019000+2
0007a5 9170 0331 	LDS  R23,_led_green_buff_S0000019000+3
0007a7 940e 135f 	CALL __ASRD1
0007a9 940e 11e9 	CALL SUBOPT_0x25
                 ; 0000 0128 if(++led_drv_cnt>32)
0007ab 91a0 02a4 	LDS  R26,_led_drv_cnt
0007ad 5faf      	SUBI R26,-LOW(1)
0007ae 93a0 02a4 	STS  _led_drv_cnt,R26
0007b0 32a1      	CPI  R26,LOW(0x21)
0007b1 f410      	BRSH PC+3
0007b2 940c 07cb 	JMP _0xEB
                 ; 0000 0129 	{
                 ; 0000 012A 	led_drv_cnt=0;
0007b4 e0e0      	LDI  R30,LOW(0)
0007b5 93e0 02a4 	STS  _led_drv_cnt,R30
                 ; 0000 012B 	led_red_buff=led_red;
0007b7 91e0 029a 	LDS  R30,_led_red
0007b9 91f0 029b 	LDS  R31,_led_red+1
0007bb 9160 029c 	LDS  R22,_led_red+2
0007bd 9170 029d 	LDS  R23,_led_red+3
0007bf 940e 11e0 	CALL SUBOPT_0x24
                 ; 0000 012C 	led_green_buff=led_green;
0007c1 91e0 029e 	LDS  R30,_led_green
0007c3 91f0 029f 	LDS  R31,_led_green+1
0007c5 9160 02a0 	LDS  R22,_led_green+2
0007c7 9170 02a1 	LDS  R23,_led_green+3
0007c9 940e 11e9 	CALL SUBOPT_0x25
                 ; 0000 012D 	}
                 ; 0000 012E 
                 ; 0000 012F }
                 _0xEB:
0007cb 9508      	RET
                 ; .FEND
                 ;
                 ;//-----------------------------------------------
                 ;void flags_drv(void)
                 ; 0000 0133 {
                 _flags_drv:
                 ; .FSTART _flags_drv
                 ; 0000 0134 static char flags_old;
                 ; 0000 0135 if(jp_mode!=jp3)
0007cc 91a0 02b2 	LDS  R26,_jp_mode
0007ce 30a3      	CPI  R26,LOW(0x3)
0007cf f411      	BRNE PC+3
0007d0 940c 07f6 	JMP _0xEC
                 ; 0000 0136 	{
                 ; 0000 0137 	if(((flags&0b00001000)&&(!(flags_old&0b00001000)))||((flags&0b00010000)&&(!(flags_old&0b00010000))))
0007d2 91e0 0294 	LDS  R30,_flags
0007d4 70e8      	ANDI R30,LOW(0x8)
0007d5 f411      	BRNE PC+3
0007d6 940c 07df 	JMP _0xEE
0007d8 91e0 0332 	LDS  R30,_flags_old_S000001A000
0007da 70e8      	ANDI R30,LOW(0x8)
0007db f011      	BREQ PC+3
0007dc 940c 07df 	JMP _0xEE
0007de c00e      	RJMP _0xF0
                 _0xEE:
0007df 91e0 0294 	LDS  R30,_flags
0007e1 71e0      	ANDI R30,LOW(0x10)
0007e2 f411      	BRNE PC+3
0007e3 940c 07ec 	JMP _0xF1
0007e5 91e0 0332 	LDS  R30,_flags_old_S000001A000
0007e7 71e0      	ANDI R30,LOW(0x10)
0007e8 f011      	BREQ PC+3
0007e9 940c 07ec 	JMP _0xF1
0007eb c001      	RJMP _0xF0
                 _0xF1:
0007ec c008      	RJMP _0xED
                 _0xF0:
                 ; 0000 0138     		{
                 ; 0000 0139     		if(link==OFF)apv_start();
0007ed 91a0 02a2 	LDS  R26,_link
0007ef 3aaa      	CPI  R26,LOW(0xAA)
0007f0 f011      	BREQ PC+3
0007f1 940c 07f5 	JMP _0xF4
0007f3 940e 0748 	CALL _apv_start
                 ; 0000 013A     		}
                 _0xF4:
                 ; 0000 013B      }
                 _0xED:
                 ; 0000 013C else if(jp_mode==jp3)
0007f5 c016      	RJMP _0xF5
                 _0xEC:
0007f6 91a0 02b2 	LDS  R26,_jp_mode
0007f8 30a3      	CPI  R26,LOW(0x3)
0007f9 f011      	BREQ PC+3
0007fa 940c 080c 	JMP _0xF6
                 ; 0000 013D 	{
                 ; 0000 013E 	if((flags&0b00001000)&&(!(flags_old&0b00001000)))
0007fc 91e0 0294 	LDS  R30,_flags
0007fe 70e8      	ANDI R30,LOW(0x8)
0007ff f411      	BRNE PC+3
000800 940c 0809 	JMP _0xF8
000802 91e0 0332 	LDS  R30,_flags_old_S000001A000
000804 70e8      	ANDI R30,LOW(0x8)
000805 f011      	BREQ PC+3
000806 940c 0809 	JMP _0xF8
000808 c001      	RJMP _0xF9
                 _0xF8:
000809 c002      	RJMP _0xF7
                 _0xF9:
                 ; 0000 013F     		{
                 ; 0000 0140     		apv_start();
00080a 940e 0748 	CALL _apv_start
                 ; 0000 0141     		}
                 ; 0000 0142      }
                 _0xF7:
                 ; 0000 0143 flags_old=flags;
                 _0xF6:
                 _0xF5:
00080c 91e0 0294 	LDS  R30,_flags
00080e 93e0 0332 	STS  _flags_old_S000001A000,R30
                 ; 0000 0144 
                 ; 0000 0145 }
000810 9508      	RET
                 ; .FEND
                 ;
                 ;//-----------------------------------------------
                 ;void adr_hndl(void)
                 ; 0000 0149 {
                 _adr_hndl:
                 ; .FSTART _adr_hndl
                 ; 0000 014A signed tempSI;
                 ; 0000 014B char aaa[3];
                 ; 0000 014C char aaaa[3];
                 ; 0000 014D DDRC=0b00000000;
000811 9726      	SBIW R28,6
000812 931a      	ST   -Y,R17
000813 930a      	ST   -Y,R16
                 ;	tempSI -> R16,R17
                 ;	aaa -> Y+5
                 ;	aaaa -> Y+2
000814 e0e0      	LDI  R30,LOW(0)
000815 b9e7      	OUT  0x7,R30
                 ; 0000 014E PORTC=0b00011110;
000816 e1ee      	LDI  R30,LOW(30)
000817 b9e8      	OUT  0x8,R30
                 ; 0000 014F /*char i;
                 ; 0000 0150 DDRD&=0b11100011;
                 ; 0000 0151 PORTD|=0b00011100;
                 ; 0000 0152 
                 ; 0000 0153 //adr_new=((char)(!PIND.2))+(((char)(!PIND.3))*2)+((char)(!PIND.4)*4);
                 ; 0000 0154 
                 ; 0000 0155 
                 ; 0000 0156 adr_new=(PIND&0b00011100)>>2;
                 ; 0000 0157 
                 ; 0000 0158 if(adr_new==adr_old)
                 ; 0000 0159  	{
                 ; 0000 015A  	if(adr_cnt<100)
                 ; 0000 015B  		{
                 ; 0000 015C  		adr_cnt++;
                 ; 0000 015D  	     if(adr_cnt>=100)
                 ; 0000 015E  	     	{
                 ; 0000 015F  	     	adr_temp=adr_new;
                 ; 0000 0160  	     	}
                 ; 0000 0161  	     }
                 ; 0000 0162    	}
                 ; 0000 0163 else adr_cnt=0;
                 ; 0000 0164 adr_old=adr_new;
                 ; 0000 0165 if(adr!=CONST_ADR[adr_temp]) adr=CONST_ADR[adr_temp];
                 ; 0000 0166 
                 ; 0000 0167 
                 ; 0000 0168 //if(adr!=0b00000011)adr=0b00000011;*/
                 ; 0000 0169 
                 ; 0000 016A 
                 ; 0000 016B 
                 ; 0000 016C ADMUX=0b01000110;
000818 e4e6      	LDI  R30,LOW(70)
000819 940e 11f2 	CALL SUBOPT_0x26
                 ; 0000 016D ADCSRA=0b10100110;
                 ; 0000 016E ADCSRA|=0b01000000;
                 ; 0000 016F delay_ms(10);
                 ; 0000 0170 //plazma_int[0]=ADCW;
                 ; 0000 0171 aaa[0]=adr_gran(ADCW);
00081b 940e 11fd 	CALL SUBOPT_0x27
00081d 940e 06da 	CALL _adr_gran
00081f 83ed      	STD  Y+5,R30
                 ; 0000 0172 tempSI=ADCW/200;
000820 940e 1202 	CALL SUBOPT_0x28
                 ; 0000 0173 gran(&tempSI,0,3);
000822 b7ed      	IN   R30,SPL
000823 b7fe      	IN   R31,SPH
000824 9731      	SBIW R30,1
000825 93fa      	ST   -Y,R31
000826 93ea      	ST   -Y,R30
000827 931f      	PUSH R17
000828 930f      	PUSH R16
000829 940e 120a 	CALL SUBOPT_0x29
00082b 910f      	POP  R16
00082c 911f      	POP  R17
                 ; 0000 0174 aaaa[0]=(char)tempSI;
                +
00082d 830a     +STD Y + 2 , R16
                 	__PUTBSR 16,2
                 ; 0000 0175 
                 ; 0000 0176 ADMUX=0b01000111;
00082e e4e7      	LDI  R30,LOW(71)
00082f 940e 11f2 	CALL SUBOPT_0x26
                 ; 0000 0177 ADCSRA=0b10100110;
                 ; 0000 0178 ADCSRA|=0b01000000;
                 ; 0000 0179 delay_ms(10);
                 ; 0000 017A //plazma_int[1]=ADCW;
                 ; 0000 017B aaa[1]=adr_gran(ADCW);
000831 940e 11fd 	CALL SUBOPT_0x27
000833 940e 06da 	CALL _adr_gran
000835 83ee      	STD  Y+6,R30
                 ; 0000 017C tempSI=ADCW/200;
000836 940e 1202 	CALL SUBOPT_0x28
                 ; 0000 017D gran(&tempSI,0,3);
000838 b7ed      	IN   R30,SPL
000839 b7fe      	IN   R31,SPH
00083a 9731      	SBIW R30,1
00083b 93fa      	ST   -Y,R31
00083c 93ea      	ST   -Y,R30
00083d 931f      	PUSH R17
00083e 930f      	PUSH R16
00083f 940e 120a 	CALL SUBOPT_0x29
000841 910f      	POP  R16
000842 911f      	POP  R17
                 ; 0000 017E aaaa[1]=(char)tempSI;
000843 01fe      	MOVW R30,R28
000844 9633      	ADIW R30,3
000845 8300      	ST   Z,R16
                 ; 0000 017F 
                 ; 0000 0180 
                 ; 0000 0181 ADMUX=0b01000000;
000846 e4e0      	LDI  R30,LOW(64)
000847 940e 11f2 	CALL SUBOPT_0x26
                 ; 0000 0182 ADCSRA=0b10100110;
                 ; 0000 0183 ADCSRA|=0b01000000;
                 ; 0000 0184 delay_ms(10);
                 ; 0000 0185 //plazma_int[2]=ADCW;
                 ; 0000 0186 aaa[2]=adr_gran(ADCW);
000849 940e 11fd 	CALL SUBOPT_0x27
00084b 940e 06da 	CALL _adr_gran
00084d 83ef      	STD  Y+7,R30
                 ; 0000 0187 tempSI=ADCW/200;
00084e 940e 1202 	CALL SUBOPT_0x28
                 ; 0000 0188 gran(&tempSI,0,3);
000850 b7ed      	IN   R30,SPL
000851 b7fe      	IN   R31,SPH
000852 9731      	SBIW R30,1
000853 93fa      	ST   -Y,R31
000854 93ea      	ST   -Y,R30
000855 931f      	PUSH R17
000856 930f      	PUSH R16
000857 940e 120a 	CALL SUBOPT_0x29
000859 910f      	POP  R16
00085a 911f      	POP  R17
                 ; 0000 0189 aaaa[2]=(char)tempSI;
00085b 01fe      	MOVW R30,R28
00085c 9634      	ADIW R30,4
00085d 8300      	ST   Z,R16
                 ; 0000 018A 
                 ; 0000 018B adr=100;
00085e e1a8      	LDI  R26,LOW(_adr)
00085f e0b0      	LDI  R27,HIGH(_adr)
000860 e6e4      	LDI  R30,LOW(100)
000861 940e 1424 	CALL __EEPROMWRB
                 ; 0000 018C //adr=0;//aaa[0]+ (aaa[1]*4)+ (aaa[2]*16);
                 ; 0000 018D 
                 ; 0000 018E if((aaa[0]!=100)&&(aaa[1]!=100)&&(aaa[2]!=100))
000863 81ad      	LDD  R26,Y+5
000864 36a4      	CPI  R26,LOW(0x64)
000865 f411      	BRNE PC+3
000866 940c 0873 	JMP _0xFB
000868 81ae      	LDD  R26,Y+6
000869 36a4      	CPI  R26,LOW(0x64)
00086a f411      	BRNE PC+3
00086b 940c 0873 	JMP _0xFB
00086d 81af      	LDD  R26,Y+7
00086e 36a4      	CPI  R26,LOW(0x64)
00086f f411      	BRNE PC+3
000870 940c 0873 	JMP _0xFB
000872 c001      	RJMP _0xFC
                 _0xFB:
000873 c02c      	RJMP _0xFA
                 _0xFC:
                 ; 0000 018F 	{
                 ; 0000 0190 	if(aaa[0]==0)
000874 81ed      	LDD  R30,Y+5
000875 30e0      	CPI  R30,0
000876 f011      	BREQ PC+3
000877 940c 088a 	JMP _0xFD
                 ; 0000 0191 		{
                 ; 0000 0192 		if(aaa[1]==0)adr=3;
000879 81ee      	LDD  R30,Y+6
00087a 30e0      	CPI  R30,0
00087b f011      	BREQ PC+3
00087c 940c 0884 	JMP _0xFE
00087e e1a8      	LDI  R26,LOW(_adr)
00087f e0b0      	LDI  R27,HIGH(_adr)
000880 e0e3      	LDI  R30,LOW(3)
000881 940e 1424 	CALL __EEPROMWRB
                 ; 0000 0193 		else adr=0;
000883 c005      	RJMP _0xFF
                 _0xFE:
000884 e1a8      	LDI  R26,LOW(_adr)
000885 e0b0      	LDI  R27,HIGH(_adr)
000886 e0e0      	LDI  R30,LOW(0)
000887 940e 1424 	CALL __EEPROMWRB
                 ; 0000 0194 		}
                 _0xFF:
                 ; 0000 0195 	else if(aaa[1]==0)adr=1;
000889 c015      	RJMP _0x100
                 _0xFD:
00088a 81ee      	LDD  R30,Y+6
00088b 30e0      	CPI  R30,0
00088c f011      	BREQ PC+3
00088d 940c 0895 	JMP _0x101
00088f e1a8      	LDI  R26,LOW(_adr)
000890 e0b0      	LDI  R27,HIGH(_adr)
000891 e0e1      	LDI  R30,LOW(1)
000892 940e 1424 	CALL __EEPROMWRB
                 ; 0000 0196 	else if(aaa[2]==0)adr=2;
000894 c00a      	RJMP _0x102
                 _0x101:
000895 81ef      	LDD  R30,Y+7
000896 30e0      	CPI  R30,0
000897 f011      	BREQ PC+3
000898 940c 089f 	JMP _0x103
00089a e1a8      	LDI  R26,LOW(_adr)
00089b e0b0      	LDI  R27,HIGH(_adr)
00089c e0e2      	LDI  R30,LOW(2)
00089d 940e 1424 	CALL __EEPROMWRB
                 ; 0000 0197 
                 ; 0000 0198 	//adr=1;
                 ; 0000 0199 	}
                 _0x103:
                 _0x102:
                 _0x100:
                 ; 0000 019A else if((aaa[0]==100)&&(aaa[1]==100)&&(aaa[2]==100))adr=aaaa[0]+ (aaaa[1]*4)+ (aaaa[2]*16);
00089f c026      	RJMP _0x104
                 _0xFA:
0008a0 81ad      	LDD  R26,Y+5
0008a1 36a4      	CPI  R26,LOW(0x64)
0008a2 f011      	BREQ PC+3
0008a3 940c 08b0 	JMP _0x106
0008a5 81ae      	LDD  R26,Y+6
0008a6 36a4      	CPI  R26,LOW(0x64)
0008a7 f011      	BREQ PC+3
0008a8 940c 08b0 	JMP _0x106
0008aa 81af      	LDD  R26,Y+7
0008ab 36a4      	CPI  R26,LOW(0x64)
0008ac f011      	BREQ PC+3
0008ad 940c 08b0 	JMP _0x106
0008af c001      	RJMP _0x107
                 _0x106:
0008b0 c010      	RJMP _0x105
                 _0x107:
0008b1 81eb      	LDD  R30,Y+3
0008b2 0fee      	LSL  R30
0008b3 0fee      	LSL  R30
0008b4 81aa      	LDD  R26,Y+2
0008b5 0fea      	ADD  R30,R26
0008b6 2f6e      	MOV  R22,R30
0008b7 81ec      	LDD  R30,Y+4
0008b8 e1a0      	LDI  R26,LOW(16)
0008b9 9fea      	MUL  R30,R26
0008ba 01f0      	MOVW R30,R0
0008bb 0fe6      	ADD  R30,R22
0008bc e1a8      	LDI  R26,LOW(_adr)
0008bd e0b0      	LDI  R27,HIGH(_adr)
0008be 940e 1424 	CALL __EEPROMWRB
                 ; 0000 019B    /*	{
                 ; 0000 019C 	adr=0;
                 ; 0000 019D 	} */
                 ; 0000 019E else adr=100;
0008c0 c005      	RJMP _0x108
                 _0x105:
0008c1 e1a8      	LDI  R26,LOW(_adr)
0008c2 e0b0      	LDI  R27,HIGH(_adr)
0008c3 e6e4      	LDI  R30,LOW(100)
0008c4 940e 1424 	CALL __EEPROMWRB
                 ; 0000 019F /*if(adr_gran(aaa[2])==100)adr=2;
                 ; 0000 01A0 else *///adr=adr_gran(aaa[2]);
                 ; 0000 01A1 ///adr=0;
                 ; 0000 01A2 //plazma=adr;
                 ; 0000 01A3 //if(adr==100)adr=0;
                 ; 0000 01A4 
                 ; 0000 01A5 //plazma
                 ; 0000 01A6 //adr=;
                 ; 0000 01A7 }
                 _0x108:
                 _0x104:
0008c6 8119      	LDD  R17,Y+1
0008c7 8108      	LDD  R16,Y+0
0008c8 9628      	ADIW R28,8
0008c9 9508      	RET
                 ; .FEND
                 ;
                 ;
                 ;//-----------------------------------------------
                 ;void apv_hndl(void)
                 ; 0000 01AC {
                 _apv_hndl:
                 ; .FSTART _apv_hndl
                 ; 0000 01AD if(apv_cnt[0])
0008ca 91e0 02c5 	LDS  R30,_apv_cnt
0008cc 30e0      	CPI  R30,0
0008cd f411      	BRNE PC+3
0008ce 940c 08dc 	JMP _0x109
                 ; 0000 01AE 	{
                 ; 0000 01AF 	apv_cnt[0]--;
0008d0 50e1      	SUBI R30,LOW(1)
0008d1 93e0 02c5 	STS  _apv_cnt,R30
                 ; 0000 01B0 	if(apv_cnt[0]==0)
0008d3 30e0      	CPI  R30,0
0008d4 f011      	BREQ PC+3
0008d5 940c 08db 	JMP _0x10A
                 ; 0000 01B1 		{
                 ; 0000 01B2 		flags&=0b11100001;
0008d7 940e 11bd 	CALL SUBOPT_0x21
                 ; 0000 01B3 		tsign_cnt=0;
                 ; 0000 01B4 		tmax_cnt=0;
                 ; 0000 01B5 		umax_cnt=0;
                 ; 0000 01B6 		umin_cnt=0;
                 ; 0000 01B7 		cnt_adc_ch_2_delta=0;
0008d9 940e 1212 	CALL SUBOPT_0x2A
                 ; 0000 01B8 		led_drv_cnt=30;
                 ; 0000 01B9 		}
                 ; 0000 01BA 	}
                 _0x10A:
                 ; 0000 01BB else if(apv_cnt[1])
0008db c02b      	RJMP _0x10B
                 _0x109:
                +
0008dc 91e0 02c6+LDS R30 , _apv_cnt + ( 1 )
                 	__GETB1MN _apv_cnt,1
0008de 30e0      	CPI  R30,0
0008df f411      	BRNE PC+3
0008e0 940c 08f2 	JMP _0x10C
                 ; 0000 01BC 	{
                 ; 0000 01BD 	apv_cnt[1]--;
                +
0008e2 91e0 02c6+LDS R30 , _apv_cnt + ( 1 )
                 	__GETB1MN _apv_cnt,1
0008e4 50e1      	SUBI R30,LOW(1)
                +
0008e5 93e0 02c6+STS _apv_cnt + ( 1 ) , R30
                 	__PUTB1MN _apv_cnt,1
                 ; 0000 01BE 	if(apv_cnt[1]==0)
                +
0008e7 91e0 02c6+LDS R30 , _apv_cnt + ( 1 )
                 	__GETB1MN _apv_cnt,1
0008e9 30e0      	CPI  R30,0
0008ea f011      	BREQ PC+3
0008eb 940c 08f1 	JMP _0x10D
                 ; 0000 01BF 		{
                 ; 0000 01C0 		flags&=0b11100001;
0008ed 940e 11bd 	CALL SUBOPT_0x21
                 ; 0000 01C1 		tsign_cnt=0;
                 ; 0000 01C2 		tmax_cnt=0;
                 ; 0000 01C3 		umax_cnt=0;
                 ; 0000 01C4 		umin_cnt=0;
                 ; 0000 01C5 		cnt_adc_ch_2_delta=0;
0008ef 940e 1212 	CALL SUBOPT_0x2A
                 ; 0000 01C6 		led_drv_cnt=30;
                 ; 0000 01C7 		}
                 ; 0000 01C8 	}
                 _0x10D:
                 ; 0000 01C9 else if(apv_cnt[2])
0008f1 c015      	RJMP _0x10E
                 _0x10C:
                +
0008f2 91e0 02c7+LDS R30 , _apv_cnt + ( 2 )
                 	__GETB1MN _apv_cnt,2
0008f4 30e0      	CPI  R30,0
0008f5 f411      	BRNE PC+3
0008f6 940c 0907 	JMP _0x10F
                 ; 0000 01CA 	{
                 ; 0000 01CB 	apv_cnt[2]--;
                +
0008f8 91e0 02c7+LDS R30 , _apv_cnt + ( 2 )
                 	__GETB1MN _apv_cnt,2
0008fa 50e1      	SUBI R30,LOW(1)
                +
0008fb 93e0 02c7+STS _apv_cnt + ( 2 ) , R30
                 	__PUTB1MN _apv_cnt,2
                 ; 0000 01CC 	if(apv_cnt[2]==0)
                +
0008fd 91e0 02c7+LDS R30 , _apv_cnt + ( 2 )
                 	__GETB1MN _apv_cnt,2
0008ff 30e0      	CPI  R30,0
000900 f011      	BREQ PC+3
000901 940c 0907 	JMP _0x110
                 ; 0000 01CD 		{
                 ; 0000 01CE 		flags&=0b11100001;
000903 940e 11bd 	CALL SUBOPT_0x21
                 ; 0000 01CF 		tsign_cnt=0;
                 ; 0000 01D0 		tmax_cnt=0;
                 ; 0000 01D1 		umax_cnt=0;
                 ; 0000 01D2 		umin_cnt=0;
                 ; 0000 01D3 		cnt_adc_ch_2_delta=0;
000905 940e 1212 	CALL SUBOPT_0x2A
                 ; 0000 01D4 		led_drv_cnt=30;
                 ; 0000 01D5 		}
                 ; 0000 01D6 	}
                 _0x110:
                 ; 0000 01D7 
                 ; 0000 01D8 if(apv_cnt_)
                 _0x10F:
                 _0x10E:
                 _0x10B:
000907 91e0 02c8 	LDS  R30,_apv_cnt_
000909 91f0 02c9 	LDS  R31,_apv_cnt_+1
00090b 9730      	SBIW R30,0
00090c f411      	BRNE PC+3
00090d 940c 0920 	JMP _0x111
                 ; 0000 01D9 	{
                 ; 0000 01DA 	apv_cnt_--;
00090f eca8      	LDI  R26,LOW(_apv_cnt_)
000910 e0b2      	LDI  R27,HIGH(_apv_cnt_)
000911 940e 11da 	CALL SUBOPT_0x23
                 ; 0000 01DB 	if(apv_cnt_==0)
000913 91e0 02c8 	LDS  R30,_apv_cnt_
000915 91f0 02c9 	LDS  R31,_apv_cnt_+1
000917 9730      	SBIW R30,0
000918 f011      	BREQ PC+3
000919 940c 0920 	JMP _0x112
                 ; 0000 01DC 		{
                 ; 0000 01DD 		bAPV=0;
00091b b5ea      	IN   R30,0x2A
00091c 7fee      	CBR  R30,1
00091d bdea      	OUT  0x2A,R30
                 ; 0000 01DE 		apv_start();
00091e 940e 0748 	CALL _apv_start
                 ; 0000 01DF 		}
                 ; 0000 01E0 	}
                 _0x112:
                 ; 0000 01E1 
                 ; 0000 01E2 if((umin_cnt==0)&&(umax_cnt==0)&&(cnt_adc_ch_2_delta==0)&&(PORTD.2==0))
                 _0x111:
000920 940e 1219 	CALL SUBOPT_0x2B
000922 9710      	SBIW R26,0
000923 f011      	BREQ PC+3
000924 940c 0935 	JMP _0x114
000926 940e 121e 	CALL SUBOPT_0x2C
000928 9710      	SBIW R26,0
000929 f011      	BREQ PC+3
00092a 940c 0935 	JMP _0x114
00092c 91a0 02c4 	LDS  R26,_cnt_adc_ch_2_delta
00092e 30a0      	CPI  R26,LOW(0x0)
00092f f011      	BREQ PC+3
000930 940c 0935 	JMP _0x114
000932 995a      	SBIC 0xB,2
000933 c001      	RJMP _0x114
000934 c001      	RJMP _0x115
                 _0x114:
000935 c014      	RJMP _0x113
                 _0x115:
                 ; 0000 01E3 	{
                 ; 0000 01E4 	if(cnt_apv_off<20)
000936 91a0 02ca 	LDS  R26,_cnt_apv_off
000938 31a4      	CPI  R26,LOW(0x14)
000939 f010      	BRLO PC+3
00093a 940c 0949 	JMP _0x116
                 ; 0000 01E5 		{
                 ; 0000 01E6 		cnt_apv_off++;
00093c 91e0 02ca 	LDS  R30,_cnt_apv_off
00093e 5fef      	SUBI R30,-LOW(1)
00093f 93e0 02ca 	STS  _cnt_apv_off,R30
                 ; 0000 01E7 		if(cnt_apv_off>=20)
000941 91a0 02ca 	LDS  R26,_cnt_apv_off
000943 31a4      	CPI  R26,LOW(0x14)
000944 f410      	BRSH PC+3
000945 940c 0949 	JMP _0x117
                 ; 0000 01E8 			{
                 ; 0000 01E9 			apv_stop();
000947 940e 0770 	CALL _apv_stop
                 ; 0000 01EA 			}
                 ; 0000 01EB 		}
                 _0x117:
                 ; 0000 01EC 	}
                 _0x116:
                 ; 0000 01ED else cnt_apv_off=0;
000949 c003      	RJMP _0x118
                 _0x113:
00094a e0e0      	LDI  R30,LOW(0)
00094b 93e0 02ca 	STS  _cnt_apv_off,R30
                 ; 0000 01EE 
                 ; 0000 01EF }
                 _0x118:
00094d 9508      	RET
                 ; .FEND
                 ;
                 ;//-----------------------------------------------
                 ;void link_drv(void)
                 ; 0000 01F3 {
                 _link_drv:
                 ; .FSTART _link_drv
                 ; 0000 01F4 if(jp_mode!=jp3)
00094e 91a0 02b2 	LDS  R26,_jp_mode
000950 30a3      	CPI  R26,LOW(0x3)
000951 f411      	BRNE PC+3
000952 940c 098a 	JMP _0x119
                 ; 0000 01F5 	{
                 ; 0000 01F6 	if(link_cnt==49)flags&=0b11000001;
000954 91a0 02a3 	LDS  R26,_link_cnt
000956 33a1      	CPI  R26,LOW(0x31)
000957 f011      	BREQ PC+3
000958 940c 095f 	JMP _0x11A
00095a 91e0 0294 	LDS  R30,_flags
00095c 7ce1      	ANDI R30,LOW(0xC1)
00095d 93e0 0294 	STS  _flags,R30
                 ; 0000 01F7 	if((++link_cnt>=50)&&(adr!=62)&&(adr!=63))
                 _0x11A:
00095f 91a0 02a3 	LDS  R26,_link_cnt
000961 5faf      	SUBI R26,-LOW(1)
000962 93a0 02a3 	STS  _link_cnt,R26
000964 33a2      	CPI  R26,LOW(0x32)
000965 f410      	BRSH PC+3
000966 940c 0975 	JMP _0x11C
000968 940e 111c 	CALL SUBOPT_0x9
00096a 33ee      	CPI  R30,LOW(0x3E)
00096b f411      	BRNE PC+3
00096c 940c 0975 	JMP _0x11C
00096e 940e 111c 	CALL SUBOPT_0x9
000970 33ef      	CPI  R30,LOW(0x3F)
000971 f411      	BRNE PC+3
000972 940c 0975 	JMP _0x11C
000974 c001      	RJMP _0x11D
                 _0x11C:
000975 c013      	RJMP _0x11B
                 _0x11D:
                 ; 0000 01F8 		{
                 ; 0000 01F9 		link_cnt=50;
000976 e3e2      	LDI  R30,LOW(50)
000977 93e0 02a3 	STS  _link_cnt,R30
                 ; 0000 01FA     		link=OFF;
000979 eaea      	LDI  R30,LOW(170)
00097a 93e0 02a2 	STS  _link,R30
                 ; 0000 01FB     		if(!res_fl_)
00097c 940e 1168 	CALL SUBOPT_0x11
00097e f011      	BREQ PC+3
00097f 940c 0989 	JMP _0x11E
                 ; 0000 01FC 			{
                 ; 0000 01FD 	    		bRES_=1;
000981 b5ea      	IN   R30,0x2A
000982 60e4      	SBR  R30,4
000983 bdea      	OUT  0x2A,R30
                 ; 0000 01FE 	    		res_fl_=1;
000984 e1af      	LDI  R26,LOW(_res_fl_)
000985 e0b0      	LDI  R27,HIGH(_res_fl_)
000986 e0e1      	LDI  R30,LOW(1)
000987 940e 1424 	CALL __EEPROMWRB
                 ; 0000 01FF 	    		}
                 ; 0000 0200     		}
                 _0x11E:
                 ; 0000 0201 	}
                 _0x11B:
                 ; 0000 0202 else link=OFF;
000989 c003      	RJMP _0x11F
                 _0x119:
00098a eaea      	LDI  R30,LOW(170)
00098b 93e0 02a2 	STS  _link,R30
                 ; 0000 0203 }
                 _0x11F:
00098d 9508      	RET
                 ; .FEND
                 ;
                 ;//-----------------------------------------------
                 ;void temper_drv(void)
                 ; 0000 0207 {
                 _temper_drv:
                 ; .FSTART _temper_drv
                 ; 0000 0208 
                 ; 0000 0209 if(T>tsign) tsign_cnt++;
00098e 940e 11b8 	CALL SUBOPT_0x20
000990 940e 1223 	CALL SUBOPT_0x2D
000992 17ea      	CP   R30,R26
000993 07fb      	CPC  R31,R27
000994 f014      	BRLT PC+3
000995 940c 099c 	JMP _0x120
000997 eaa5      	LDI  R26,LOW(_tsign_cnt)
000998 e0b2      	LDI  R27,HIGH(_tsign_cnt)
000999 940e 11d4 	CALL SUBOPT_0x22
                 ; 0000 020A else if (T<(tsign-1)) tsign_cnt--;
00099b c00e      	RJMP _0x121
                 _0x120:
00099c 940e 11b8 	CALL SUBOPT_0x20
00099e 9731      	SBIW R30,1
00099f 940e 1223 	CALL SUBOPT_0x2D
0009a1 17ae      	CP   R26,R30
0009a2 07bf      	CPC  R27,R31
0009a3 f014      	BRLT PC+3
0009a4 940c 09aa 	JMP _0x122
0009a6 eaa5      	LDI  R26,LOW(_tsign_cnt)
0009a7 e0b2      	LDI  R27,HIGH(_tsign_cnt)
0009a8 940e 11da 	CALL SUBOPT_0x23
                 ; 0000 020B 
                 ; 0000 020C gran(&tsign_cnt,0,60);
                 _0x122:
                 _0x121:
0009aa eae5      	LDI  R30,LOW(_tsign_cnt)
0009ab e0f2      	LDI  R31,HIGH(_tsign_cnt)
0009ac 940e 1228 	CALL SUBOPT_0x2E
                 ; 0000 020D 
                 ; 0000 020E if(tsign_cnt>=55)
0009ae 91a0 02a5 	LDS  R26,_tsign_cnt
0009b0 91b0 02a6 	LDS  R27,_tsign_cnt+1
0009b2 97d7      	SBIW R26,55
0009b3 f414      	BRGE PC+3
0009b4 940c 09d0 	JMP _0x123
                 ; 0000 020F 	{
                 ; 0000 0210 	if(((jp_mode==jp0)&&!(flags&0b01000000))||(jp_mode==jp3))	flags|=0b00000100;
0009b6 91a0 02b2 	LDS  R26,_jp_mode
0009b8 30a0      	CPI  R26,LOW(0x0)
0009b9 f011      	BREQ PC+3
0009ba 940c 09c3 	JMP _0x125
0009bc 91e0 0294 	LDS  R30,_flags
0009be 74e0      	ANDI R30,LOW(0x40)
0009bf f011      	BREQ PC+3
0009c0 940c 09c3 	JMP _0x125
0009c2 c007      	RJMP _0x127
                 _0x125:
0009c3 91a0 02b2 	LDS  R26,_jp_mode
0009c5 30a3      	CPI  R26,LOW(0x3)
0009c6 f411      	BRNE PC+3
0009c7 940c 09ca 	JMP _0x127
0009c9 c005      	RJMP _0x124
                 _0x127:
0009ca 91e0 0294 	LDS  R30,_flags
0009cc 60e4      	ORI  R30,4
0009cd 93e0 0294 	STS  _flags,R30
                 ; 0000 0211 	}
                 _0x124:
                 ; 0000 0212 else if (tsign_cnt<=5) flags&=0b11111011;
0009cf c00d      	RJMP _0x129
                 _0x123:
0009d0 91a0 02a5 	LDS  R26,_tsign_cnt
0009d2 91b0 02a6 	LDS  R27,_tsign_cnt+1
0009d4 9716      	SBIW R26,6
0009d5 f014      	BRLT PC+3
0009d6 940c 09dd 	JMP _0x12A
0009d8 91e0 0294 	LDS  R30,_flags
0009da 7feb      	ANDI R30,0xFB
0009db 93e0 0294 	STS  _flags,R30
                 ; 0000 0213 
                 ; 0000 0214 
                 ; 0000 0215 
                 ; 0000 0216 
                 ; 0000 0217 if(T>tmax) tmax_cnt++;
                 _0x12A:
                 _0x129:
0009dd e1a4      	LDI  R26,LOW(_tmax)
0009de e0b0      	LDI  R27,HIGH(_tmax)
0009df 940e 140c 	CALL __EEPROMRDW
0009e1 940e 1223 	CALL SUBOPT_0x2D
0009e3 17ea      	CP   R30,R26
0009e4 07fb      	CPC  R31,R27
0009e5 f014      	BRLT PC+3
0009e6 940c 09ed 	JMP _0x12B
0009e8 eaa7      	LDI  R26,LOW(_tmax_cnt)
0009e9 e0b2      	LDI  R27,HIGH(_tmax_cnt)
0009ea 940e 11d4 	CALL SUBOPT_0x22
                 ; 0000 0218 else if (T<(tmax-1)) tmax_cnt--;
0009ec c010      	RJMP _0x12C
                 _0x12B:
0009ed e1a4      	LDI  R26,LOW(_tmax)
0009ee e0b0      	LDI  R27,HIGH(_tmax)
0009ef 940e 140c 	CALL __EEPROMRDW
0009f1 9731      	SBIW R30,1
0009f2 940e 1223 	CALL SUBOPT_0x2D
0009f4 17ae      	CP   R26,R30
0009f5 07bf      	CPC  R27,R31
0009f6 f014      	BRLT PC+3
0009f7 940c 09fd 	JMP _0x12D
0009f9 eaa7      	LDI  R26,LOW(_tmax_cnt)
0009fa e0b2      	LDI  R27,HIGH(_tmax_cnt)
0009fb 940e 11da 	CALL SUBOPT_0x23
                 ; 0000 0219 
                 ; 0000 021A gran(&tmax_cnt,0,60);
                 _0x12D:
                 _0x12C:
0009fd eae7      	LDI  R30,LOW(_tmax_cnt)
0009fe e0f2      	LDI  R31,HIGH(_tmax_cnt)
0009ff 940e 1228 	CALL SUBOPT_0x2E
                 ; 0000 021B 
                 ; 0000 021C if(tmax_cnt>=55)
000a01 91a0 02a7 	LDS  R26,_tmax_cnt
000a03 91b0 02a8 	LDS  R27,_tmax_cnt+1
000a05 97d7      	SBIW R26,55
000a06 f414      	BRGE PC+3
000a07 940c 0a23 	JMP _0x12E
                 ; 0000 021D 	{
                 ; 0000 021E 	if(((jp_mode==jp0)&&!(flags&0b01000000))||(jp_mode==jp3))	flags|=0b00000010;
000a09 91a0 02b2 	LDS  R26,_jp_mode
000a0b 30a0      	CPI  R26,LOW(0x0)
000a0c f011      	BREQ PC+3
000a0d 940c 0a16 	JMP _0x130
000a0f 91e0 0294 	LDS  R30,_flags
000a11 74e0      	ANDI R30,LOW(0x40)
000a12 f011      	BREQ PC+3
000a13 940c 0a16 	JMP _0x130
000a15 c007      	RJMP _0x132
                 _0x130:
000a16 91a0 02b2 	LDS  R26,_jp_mode
000a18 30a3      	CPI  R26,LOW(0x3)
000a19 f411      	BRNE PC+3
000a1a 940c 0a1d 	JMP _0x132
000a1c c005      	RJMP _0x12F
                 _0x132:
000a1d 91e0 0294 	LDS  R30,_flags
000a1f 60e2      	ORI  R30,2
000a20 93e0 0294 	STS  _flags,R30
                 ; 0000 021F 	}
                 _0x12F:
                 ; 0000 0220 else if (tmax_cnt<=5) flags&=0b11111101;
000a22 c00d      	RJMP _0x134
                 _0x12E:
000a23 91a0 02a7 	LDS  R26,_tmax_cnt
000a25 91b0 02a8 	LDS  R27,_tmax_cnt+1
000a27 9716      	SBIW R26,6
000a28 f014      	BRLT PC+3
000a29 940c 0a30 	JMP _0x135
000a2b 91e0 0294 	LDS  R30,_flags
000a2d 7fed      	ANDI R30,0xFD
000a2e 93e0 0294 	STS  _flags,R30
                 ; 0000 0221 
                 ; 0000 0222 
                 ; 0000 0223 }
                 _0x135:
                 _0x134:
000a30 9508      	RET
                 ; .FEND
                 ;
                 ;//-----------------------------------------------
                 ;void u_drv(void)
                 ; 0000 0227 {
                 _u_drv:
                 ; .FSTART _u_drv
                 ; 0000 0228 if(jp_mode!=jp3)
000a31 91a0 02b2 	LDS  R26,_jp_mode
000a33 30a3      	CPI  R26,LOW(0x3)
000a34 f411      	BRNE PC+3
000a35 940c 0a9a 	JMP _0x136
                 ; 0000 0229 	{
                 ; 0000 022A 	if(Ui>Umax)umax_cnt++;
000a37 e1a0      	LDI  R26,LOW(_Umax)
000a38 e0b0      	LDI  R27,HIGH(_Umax)
000a39 940e 140c 	CALL __EEPROMRDW
000a3b 940e 1232 	CALL SUBOPT_0x2F
000a3d 17ea      	CP   R30,R26
000a3e 07fb      	CPC  R31,R27
000a3f f010      	BRLO PC+3
000a40 940c 0a47 	JMP _0x137
000a42 eaab      	LDI  R26,LOW(_umax_cnt)
000a43 e0b2      	LDI  R27,HIGH(_umax_cnt)
000a44 940e 11d4 	CALL SUBOPT_0x22
                 ; 0000 022B 	else umax_cnt=0;
000a46 c005      	RJMP _0x138
                 _0x137:
000a47 e0e0      	LDI  R30,LOW(0)
000a48 93e0 02ab 	STS  _umax_cnt,R30
000a4a 93e0 02ac 	STS  _umax_cnt+1,R30
                 ; 0000 022C 	gran(&umax_cnt,0,10);
                 _0x138:
000a4c 940e 1237 	CALL SUBOPT_0x30
                 ; 0000 022D 	if(umax_cnt>=10)flags|=0b00001000;
000a4e f414      	BRGE PC+3
000a4f 940c 0a56 	JMP _0x139
000a51 91e0 0294 	LDS  R30,_flags
000a53 60e8      	ORI  R30,8
000a54 93e0 0294 	STS  _flags,R30
                 ; 0000 022E 
                 ; 0000 022F 
                 ; 0000 0230 	if((Ui<Un)&&((Un-Ui)>dU)&&(!PORTB.2))umin_cnt++;
                 _0x139:
000a56 91e0 028c 	LDS  R30,_Un
000a58 91f0 028d 	LDS  R31,_Un+1
000a5a 940e 1232 	CALL SUBOPT_0x2F
000a5c 17ae      	CP   R26,R30
000a5d 07bf      	CPC  R27,R31
000a5e f010      	BRLO PC+3
000a5f 940c 0a76 	JMP _0x13B
000a61 940e 1232 	CALL SUBOPT_0x2F
000a63 91e0 028c 	LDS  R30,_Un
000a65 91f0 028d 	LDS  R31,_Un+1
000a67 1bea      	SUB  R30,R26
000a68 0bfb      	SBC  R31,R27
000a69 010f      	MOVW R0,R30
000a6a e1a2      	LDI  R26,LOW(_dU)
000a6b e0b0      	LDI  R27,HIGH(_dU)
000a6c 940e 140c 	CALL __EEPROMRDW
000a6e 15e0      	CP   R30,R0
000a6f 05f1      	CPC  R31,R1
000a70 f010      	BRLO PC+3
000a71 940c 0a76 	JMP _0x13B
000a73 992a      	SBIC 0x5,2
000a74 c001      	RJMP _0x13B
000a75 c001      	RJMP _0x13C
                 _0x13B:
000a76 c005      	RJMP _0x13A
                 _0x13C:
000a77 eaad      	LDI  R26,LOW(_umin_cnt)
000a78 e0b2      	LDI  R27,HIGH(_umin_cnt)
000a79 940e 11d4 	CALL SUBOPT_0x22
                 ; 0000 0231 	else umin_cnt=0;
000a7b c005      	RJMP _0x13D
                 _0x13A:
000a7c e0e0      	LDI  R30,LOW(0)
000a7d 93e0 02ad 	STS  _umin_cnt,R30
000a7f 93e0 02ae 	STS  _umin_cnt+1,R30
                 ; 0000 0232 	gran(&umin_cnt,0,10);
                 _0x13D:
000a81 940e 1247 	CALL SUBOPT_0x31
                 ; 0000 0233 	if((umin_cnt>=10)&&(adr!=62)&&(adr!=63))flags|=0b00010000;
000a83 f414      	BRGE PC+3
000a84 940c 0a93 	JMP _0x13F
000a86 940e 111c 	CALL SUBOPT_0x9
000a88 33ee      	CPI  R30,LOW(0x3E)
000a89 f411      	BRNE PC+3
000a8a 940c 0a93 	JMP _0x13F
000a8c 940e 111c 	CALL SUBOPT_0x9
000a8e 33ef      	CPI  R30,LOW(0x3F)
000a8f f411      	BRNE PC+3
000a90 940c 0a93 	JMP _0x13F
000a92 c001      	RJMP _0x140
                 _0x13F:
000a93 c005      	RJMP _0x13E
                 _0x140:
000a94 91e0 0294 	LDS  R30,_flags
000a96 61e0      	ORI  R30,0x10
000a97 93e0 0294 	STS  _flags,R30
                 ; 0000 0234 	}
                 _0x13E:
                 ; 0000 0235 else if(jp_mode==jp3)
000a99 c042      	RJMP _0x141
                 _0x136:
000a9a 91a0 02b2 	LDS  R26,_jp_mode
000a9c 30a3      	CPI  R26,LOW(0x3)
000a9d f011      	BREQ PC+3
000a9e 940c 0adc 	JMP _0x142
                 ; 0000 0236 	{
                 ; 0000 0237 	if(Ui>700)umax_cnt++;
000aa0 940e 1232 	CALL SUBOPT_0x2F
000aa2 3bad      	CPI  R26,LOW(0x2BD)
000aa3 e0e2      	LDI  R30,HIGH(0x2BD)
000aa4 07be      	CPC  R27,R30
000aa5 f410      	BRSH PC+3
000aa6 940c 0aad 	JMP _0x143
000aa8 eaab      	LDI  R26,LOW(_umax_cnt)
000aa9 e0b2      	LDI  R27,HIGH(_umax_cnt)
000aaa 940e 11d4 	CALL SUBOPT_0x22
                 ; 0000 0238 	else umax_cnt=0;
000aac c005      	RJMP _0x144
                 _0x143:
000aad e0e0      	LDI  R30,LOW(0)
000aae 93e0 02ab 	STS  _umax_cnt,R30
000ab0 93e0 02ac 	STS  _umax_cnt+1,R30
                 ; 0000 0239 	gran(&umax_cnt,0,10);
                 _0x144:
000ab2 940e 1237 	CALL SUBOPT_0x30
                 ; 0000 023A 	if(umax_cnt>=10)flags|=0b00001000;
000ab4 f414      	BRGE PC+3
000ab5 940c 0abc 	JMP _0x145
000ab7 91e0 0294 	LDS  R30,_flags
000ab9 60e8      	ORI  R30,8
000aba 93e0 0294 	STS  _flags,R30
                 ; 0000 023B 
                 ; 0000 023C 
                 ; 0000 023D 	if((Ui<200)&&(!PORTB.2))umin_cnt++;
                 _0x145:
000abc 940e 1232 	CALL SUBOPT_0x2F
000abe 3ca8      	CPI  R26,LOW(0xC8)
000abf e0e0      	LDI  R30,HIGH(0xC8)
000ac0 07be      	CPC  R27,R30
000ac1 f010      	BRLO PC+3
000ac2 940c 0ac7 	JMP _0x147
000ac4 992a      	SBIC 0x5,2
000ac5 c001      	RJMP _0x147
000ac6 c001      	RJMP _0x148
                 _0x147:
000ac7 c005      	RJMP _0x146
                 _0x148:
000ac8 eaad      	LDI  R26,LOW(_umin_cnt)
000ac9 e0b2      	LDI  R27,HIGH(_umin_cnt)
000aca 940e 11d4 	CALL SUBOPT_0x22
                 ; 0000 023E 	else umin_cnt=0;
000acc c005      	RJMP _0x149
                 _0x146:
000acd e0e0      	LDI  R30,LOW(0)
000ace 93e0 02ad 	STS  _umin_cnt,R30
000ad0 93e0 02ae 	STS  _umin_cnt+1,R30
                 ; 0000 023F 	gran(&umin_cnt,0,10);
                 _0x149:
000ad2 940e 1247 	CALL SUBOPT_0x31
                 ; 0000 0240 	if(umin_cnt>=10)flags|=0b00010000;
000ad4 f414      	BRGE PC+3
000ad5 940c 0adc 	JMP _0x14A
000ad7 91e0 0294 	LDS  R30,_flags
000ad9 61e0      	ORI  R30,0x10
000ada 93e0 0294 	STS  _flags,R30
                 ; 0000 0241 	}
                 _0x14A:
                 ; 0000 0242 }
                 _0x142:
                 _0x141:
000adc 9508      	RET
                 ; .FEND
                 ;
                 ;//-----------------------------------------------
                 ;void led_hndl(void)
                 ; 0000 0246 {
                 _led_hndl:
                 ; .FSTART _led_hndl
                 ; 0000 0247 
                 ; 0000 0248 if(adr==62)
000add 940e 111c 	CALL SUBOPT_0x9
000adf 33ee      	CPI  R30,LOW(0x3E)
000ae0 f011      	BREQ PC+3
000ae1 940c 0b31 	JMP _0x14B
                 ; 0000 0249 	{
                 ; 0000 024A 	if(main_cnt1<(5*TZAS))
000ae3 940e 1121 	CALL SUBOPT_0xA
000ae5 940e 1257 	CALL SUBOPT_0x32
000ae7 17ae      	CP   R26,R30
000ae8 07bf      	CPC  R27,R31
000ae9 f014      	BRLT PC+3
000aea 940c 0af1 	JMP _0x14C
                 ; 0000 024B 		{
                 ; 0000 024C 		led_red=0x00000000L;
000aec 940e 1260 	CALL SUBOPT_0x33
                 ; 0000 024D 		led_green=0x03030303L;
000aee 940e 126a 	CALL SUBOPT_0x34
                 ; 0000 024E 		}
                 ; 0000 024F 	else if((main_cnt1>(5*TZAS))&&(main_cnt1<(100+(5*TZAS))))
000af0 c03f      	RJMP _0x14D
                 _0x14C:
000af1 940e 1121 	CALL SUBOPT_0xA
000af3 940e 1257 	CALL SUBOPT_0x32
000af5 17ea      	CP   R30,R26
000af6 07fb      	CPC  R31,R27
000af7 f014      	BRLT PC+3
000af8 940c 0b02 	JMP _0x14F
000afa 940e 1121 	CALL SUBOPT_0xA
000afc 940e 1277 	CALL SUBOPT_0x35
000afe f014      	BRLT PC+3
000aff 940c 0b02 	JMP _0x14F
000b01 c001      	RJMP _0x150
                 _0x14F:
000b02 c005      	RJMP _0x14E
                 _0x150:
                 ; 0000 0250 		{
                 ; 0000 0251 		led_red=0x00000000L;
000b03 940e 1260 	CALL SUBOPT_0x33
                 ; 0000 0252 		led_green=0xffffffffL;
000b05 940e 1283 	CALL SUBOPT_0x36
                 ; 0000 0253 		}
                 ; 0000 0254 	else if(((flags&0b00001110)==0))
000b07 c028      	RJMP _0x151
                 _0x14E:
000b08 91e0 0294 	LDS  R30,_flags
000b0a 70ee      	ANDI R30,LOW(0xE)
000b0b f011      	BREQ PC+3
000b0c 940c 0b13 	JMP _0x152
                 ; 0000 0255 		{
                 ; 0000 0256 		led_red=0x00000000L;
000b0e 940e 1260 	CALL SUBOPT_0x33
                 ; 0000 0257 		led_green=0xffffffffL;
000b10 940e 1283 	CALL SUBOPT_0x36
                 ; 0000 0258 		}
                 ; 0000 0259 	else if((flags&0b00111110)==0b00000100)
000b12 c01d      	RJMP _0x153
                 _0x152:
000b13 940e 1290 	CALL SUBOPT_0x37
000b15 f011      	BREQ PC+3
000b16 940c 0b1d 	JMP _0x154
                 ; 0000 025A 		{
                 ; 0000 025B 		led_red=0x00010001L;
000b18 940e 1295 	CALL SUBOPT_0x38
                 ; 0000 025C 		led_green=0xffffffffL;
000b1a 940e 1283 	CALL SUBOPT_0x36
                 ; 0000 025D 		}
                 ; 0000 025E 	else if(flags&0b00000010)
000b1c c013      	RJMP _0x155
                 _0x154:
000b1d 91e0 0294 	LDS  R30,_flags
000b1f 70e2      	ANDI R30,LOW(0x2)
000b20 f411      	BRNE PC+3
000b21 940c 0b28 	JMP _0x156
                 ; 0000 025F 		{
                 ; 0000 0260 		led_red=0x00010001L;
000b23 940e 1295 	CALL SUBOPT_0x38
                 ; 0000 0261 		led_green=0x00000000L;
000b25 940e 12a2 	CALL SUBOPT_0x39
                 ; 0000 0262 		}
                 ; 0000 0263 	else if(flags&0b00001000)
000b27 c008      	RJMP _0x157
                 _0x156:
000b28 91e0 0294 	LDS  R30,_flags
000b2a 70e8      	ANDI R30,LOW(0x8)
000b2b f411      	BRNE PC+3
000b2c 940c 0b30 	JMP _0x158
                 ; 0000 0264 		{
                 ; 0000 0265 		led_red=0x00090009L;
000b2e 940e 12ac 	CALL SUBOPT_0x3A
                 ; 0000 0266 		led_green=0x00000000L;
                 ; 0000 0267 		}
                 ; 0000 0268         }
                 _0x158:
                 _0x157:
                 _0x155:
                 _0x153:
                 _0x151:
                 _0x14D:
                 ; 0000 0269 else if(adr==63)
000b30 c171      	RJMP _0x159
                 _0x14B:
000b31 940e 111c 	CALL SUBOPT_0x9
000b33 33ef      	CPI  R30,LOW(0x3F)
000b34 f011      	BREQ PC+3
000b35 940c 0b85 	JMP _0x15A
                 ; 0000 026A 	{
                 ; 0000 026B 	if(main_cnt1<(5*TZAS))
000b37 940e 1121 	CALL SUBOPT_0xA
000b39 940e 1257 	CALL SUBOPT_0x32
000b3b 17ae      	CP   R26,R30
000b3c 07bf      	CPC  R27,R31
000b3d f014      	BRLT PC+3
000b3e 940c 0b45 	JMP _0x15B
                 ; 0000 026C 		{
                 ; 0000 026D 		led_red=0x00000000L;
000b40 940e 1260 	CALL SUBOPT_0x33
                 ; 0000 026E 		led_green=0x03030303L;
000b42 940e 126a 	CALL SUBOPT_0x34
                 ; 0000 026F 		}
                 ; 0000 0270 	else if((main_cnt1>(5*TZAS))&&(main_cnt1<(100+(5*TZAS))))
000b44 c03f      	RJMP _0x15C
                 _0x15B:
000b45 940e 1121 	CALL SUBOPT_0xA
000b47 940e 1257 	CALL SUBOPT_0x32
000b49 17ea      	CP   R30,R26
000b4a 07fb      	CPC  R31,R27
000b4b f014      	BRLT PC+3
000b4c 940c 0b56 	JMP _0x15E
000b4e 940e 1121 	CALL SUBOPT_0xA
000b50 940e 1277 	CALL SUBOPT_0x35
000b52 f014      	BRLT PC+3
000b53 940c 0b56 	JMP _0x15E
000b55 c001      	RJMP _0x15F
                 _0x15E:
000b56 c005      	RJMP _0x15D
                 _0x15F:
                 ; 0000 0271 		{
                 ; 0000 0272 		led_red=0x00000000L;
000b57 940e 1260 	CALL SUBOPT_0x33
                 ; 0000 0273 		led_green=0xfffffffeL;
000b59 940e 12b9 	CALL SUBOPT_0x3B
                 ; 0000 0274 		}
                 ; 0000 0275 	else if(((flags&0b00001110)==0))
000b5b c028      	RJMP _0x160
                 _0x15D:
000b5c 91e0 0294 	LDS  R30,_flags
000b5e 70ee      	ANDI R30,LOW(0xE)
000b5f f011      	BREQ PC+3
000b60 940c 0b67 	JMP _0x161
                 ; 0000 0276 		{
                 ; 0000 0277 		led_red=0x00000000L;
000b62 940e 1260 	CALL SUBOPT_0x33
                 ; 0000 0278 		led_green=0xfffffffeL;
000b64 940e 12b9 	CALL SUBOPT_0x3B
                 ; 0000 0279 		}
                 ; 0000 027A 	else if((flags&0b00111110)==0b00000100)
000b66 c01d      	RJMP _0x162
                 _0x161:
000b67 940e 1290 	CALL SUBOPT_0x37
000b69 f011      	BREQ PC+3
000b6a 940c 0b71 	JMP _0x163
                 ; 0000 027B 		{
                 ; 0000 027C 		led_red=0x00010001L;
000b6c 940e 1295 	CALL SUBOPT_0x38
                 ; 0000 027D 		led_green=0xfffffffeL;
000b6e 940e 12b9 	CALL SUBOPT_0x3B
                 ; 0000 027E 		}
                 ; 0000 027F 	else if(flags&0b00000010)
000b70 c013      	RJMP _0x164
                 _0x163:
000b71 91e0 0294 	LDS  R30,_flags
000b73 70e2      	ANDI R30,LOW(0x2)
000b74 f411      	BRNE PC+3
000b75 940c 0b7c 	JMP _0x165
                 ; 0000 0280 		{
                 ; 0000 0281 		led_red=0x00010001L;
000b77 940e 1295 	CALL SUBOPT_0x38
                 ; 0000 0282 		led_green=0x00000000L;
000b79 940e 12a2 	CALL SUBOPT_0x39
                 ; 0000 0283 		}
                 ; 0000 0284 	else if(flags&0b00001000)
000b7b c008      	RJMP _0x166
                 _0x165:
000b7c 91e0 0294 	LDS  R30,_flags
000b7e 70e8      	ANDI R30,LOW(0x8)
000b7f f411      	BRNE PC+3
000b80 940c 0b84 	JMP _0x167
                 ; 0000 0285 		{
                 ; 0000 0286 		led_red=0x00090009L;
000b82 940e 12ac 	CALL SUBOPT_0x3A
                 ; 0000 0287 		led_green=0x00000000L;
                 ; 0000 0288 		}
                 ; 0000 0289         }
                 _0x167:
                 _0x166:
                 _0x164:
                 _0x162:
                 _0x160:
                 _0x15C:
                 ; 0000 028A else if(jp_mode!=jp3)
000b84 c11d      	RJMP _0x168
                 _0x15A:
000b85 91a0 02b2 	LDS  R26,_jp_mode
000b87 30a3      	CPI  R26,LOW(0x3)
000b88 f411      	BRNE PC+3
000b89 940c 0c42 	JMP _0x169
                 ; 0000 028B 	{
                 ; 0000 028C 	if(main_cnt1<(5*TZAS))
000b8b 940e 1121 	CALL SUBOPT_0xA
000b8d 940e 1257 	CALL SUBOPT_0x32
000b8f 17ae      	CP   R26,R30
000b90 07bf      	CPC  R27,R31
000b91 f014      	BRLT PC+3
000b92 940c 0b99 	JMP _0x16A
                 ; 0000 028D 		{
                 ; 0000 028E 		led_red=0x00000000L;
000b94 940e 1260 	CALL SUBOPT_0x33
                 ; 0000 028F 		led_green=0x03030303L;
000b96 940e 126a 	CALL SUBOPT_0x34
                 ; 0000 0290 		}
                 ; 0000 0291 	else if((link==ON)&&(flags_tu&0b10000000))
000b98 c08d      	RJMP _0x16B
                 _0x16A:
000b99 91a0 02a2 	LDS  R26,_link
000b9b 35a5      	CPI  R26,LOW(0x55)
000b9c f011      	BREQ PC+3
000b9d 940c 0ba6 	JMP _0x16D
000b9f 91e0 0295 	LDS  R30,_flags_tu
000ba1 78e0      	ANDI R30,LOW(0x80)
000ba2 f411      	BRNE PC+3
000ba3 940c 0ba6 	JMP _0x16D
000ba5 c001      	RJMP _0x16E
                 _0x16D:
000ba6 c007      	RJMP _0x16C
                 _0x16E:
                 ; 0000 0292 		{
                 ; 0000 0293 		led_red=0x00055555L;
                +
000ba7 e5e5     +LDI R30 , LOW ( 0x55555 )
000ba8 e5f5     +LDI R31 , HIGH ( 0x55555 )
000ba9 e065     +LDI R22 , BYTE3 ( 0x55555 )
000baa e070     +LDI R23 , BYTE4 ( 0x55555 )
                 	__GETD1N 0x55555
000bab 940e 12c6 	CALL SUBOPT_0x3C
                 ; 0000 0294  		led_green=0xffffffffL;
                 ; 0000 0295  		}
                 ; 0000 0296 	else if((main_cnt1>(5*TZAS))&&(main_cnt1<(100+(5*TZAS))))
000bad c078      	RJMP _0x16F
                 _0x16C:
000bae 940e 1121 	CALL SUBOPT_0xA
000bb0 940e 1257 	CALL SUBOPT_0x32
000bb2 17ea      	CP   R30,R26
000bb3 07fb      	CPC  R31,R27
000bb4 f014      	BRLT PC+3
000bb5 940c 0bbf 	JMP _0x171
000bb7 940e 1121 	CALL SUBOPT_0xA
000bb9 940e 1277 	CALL SUBOPT_0x35
000bbb f014      	BRLT PC+3
000bbc 940c 0bbf 	JMP _0x171
000bbe c001      	RJMP _0x172
                 _0x171:
000bbf c005      	RJMP _0x170
                 _0x172:
                 ; 0000 0297 		{
                 ; 0000 0298 		led_red=0x00000000L;
000bc0 940e 1260 	CALL SUBOPT_0x33
                 ; 0000 0299 		led_green=0xffffffffL;
000bc2 940e 1283 	CALL SUBOPT_0x36
                 ; 0000 029A 		}
                 ; 0000 029B 
                 ; 0000 029C 	else  if(link==OFF)
000bc4 c061      	RJMP _0x173
                 _0x170:
000bc5 91a0 02a2 	LDS  R26,_link
000bc7 3aaa      	CPI  R26,LOW(0xAA)
000bc8 f011      	BREQ PC+3
000bc9 940c 0bd2 	JMP _0x174
                 ; 0000 029D  		{
                 ; 0000 029E  		led_red=0x55555555L;
                +
000bcb e5e5     +LDI R30 , LOW ( 0x55555555 )
000bcc e5f5     +LDI R31 , HIGH ( 0x55555555 )
000bcd e565     +LDI R22 , BYTE3 ( 0x55555555 )
000bce e575     +LDI R23 , BYTE4 ( 0x55555555 )
                 	__GETD1N 0x55555555
000bcf 940e 12c6 	CALL SUBOPT_0x3C
                 ; 0000 029F  		led_green=0xffffffffL;
                 ; 0000 02A0  		}
                 ; 0000 02A1 
                 ; 0000 02A2 	else if((link==ON)&&((flags&0b00111110)==0))
000bd1 c054      	RJMP _0x175
                 _0x174:
000bd2 91a0 02a2 	LDS  R26,_link
000bd4 35a5      	CPI  R26,LOW(0x55)
000bd5 f011      	BREQ PC+3
000bd6 940c 0bdf 	JMP _0x177
000bd8 91e0 0294 	LDS  R30,_flags
000bda 73ee      	ANDI R30,LOW(0x3E)
000bdb f011      	BREQ PC+3
000bdc 940c 0bdf 	JMP _0x177
000bde c001      	RJMP _0x178
                 _0x177:
000bdf c005      	RJMP _0x176
                 _0x178:
                 ; 0000 02A3 		{
                 ; 0000 02A4 		led_red=0x00000000L;
000be0 940e 1260 	CALL SUBOPT_0x33
                 ; 0000 02A5 		led_green=0xffffffffL;
000be2 940e 1283 	CALL SUBOPT_0x36
                 ; 0000 02A6 		}
                 ; 0000 02A7 
                 ; 0000 02A8 
                 ; 0000 02A9 
                 ; 0000 02AA 
                 ; 0000 02AB 
                 ; 0000 02AC 	else if((flags&0b00111110)==0b00000100)
000be4 c041      	RJMP _0x179
                 _0x176:
000be5 940e 1290 	CALL SUBOPT_0x37
000be7 f011      	BREQ PC+3
000be8 940c 0bef 	JMP _0x17A
                 ; 0000 02AD 		{
                 ; 0000 02AE 		led_red=0x00010001L;
000bea 940e 1295 	CALL SUBOPT_0x38
                 ; 0000 02AF 		led_green=0xffffffffL;
000bec 940e 1283 	CALL SUBOPT_0x36
                 ; 0000 02B0 		}
                 ; 0000 02B1 	else if(flags&0b00000010)
000bee c037      	RJMP _0x17B
                 _0x17A:
000bef 91e0 0294 	LDS  R30,_flags
000bf1 70e2      	ANDI R30,LOW(0x2)
000bf2 f411      	BRNE PC+3
000bf3 940c 0bfa 	JMP _0x17C
                 ; 0000 02B2 		{
                 ; 0000 02B3 		led_red=0x00010001L;
000bf5 940e 1295 	CALL SUBOPT_0x38
                 ; 0000 02B4 		led_green=0x00000000L;
000bf7 940e 12a2 	CALL SUBOPT_0x39
                 ; 0000 02B5 		}
                 ; 0000 02B6 	else if(flags&0b00001000)
000bf9 c02c      	RJMP _0x17D
                 _0x17C:
000bfa 91e0 0294 	LDS  R30,_flags
000bfc 70e8      	ANDI R30,LOW(0x8)
000bfd f411      	BRNE PC+3
000bfe 940c 0c03 	JMP _0x17E
                 ; 0000 02B7 		{
                 ; 0000 02B8 		led_red=0x00090009L;
000c00 940e 12ac 	CALL SUBOPT_0x3A
                 ; 0000 02B9 		led_green=0x00000000L;
                 ; 0000 02BA 		}
                 ; 0000 02BB 	else if(flags&0b00010000)
000c02 c023      	RJMP _0x17F
                 _0x17E:
000c03 91e0 0294 	LDS  R30,_flags
000c05 71e0      	ANDI R30,LOW(0x10)
000c06 f411      	BRNE PC+3
000c07 940c 0c10 	JMP _0x180
                 ; 0000 02BC 		{
                 ; 0000 02BD 		led_red=0x00490049L;
                +
000c09 e4e9     +LDI R30 , LOW ( 0x490049 )
000c0a e0f0     +LDI R31 , HIGH ( 0x490049 )
000c0b e469     +LDI R22 , BYTE3 ( 0x490049 )
000c0c e070     +LDI R23 , BYTE4 ( 0x490049 )
                 	__GETD1N 0x490049
000c0d 940e 12cf 	CALL SUBOPT_0x3D
                 ; 0000 02BE 		led_green=0x00000000L;
                 ; 0000 02BF 		}
                 ; 0000 02C0 
                 ; 0000 02C1 	else if((link==ON)&&(flags&0b00100000))
000c0f c016      	RJMP _0x181
                 _0x180:
000c10 91a0 02a2 	LDS  R26,_link
000c12 35a5      	CPI  R26,LOW(0x55)
000c13 f011      	BREQ PC+3
000c14 940c 0c1d 	JMP _0x183
000c16 91e0 0294 	LDS  R30,_flags
000c18 72e0      	ANDI R30,LOW(0x20)
000c19 f411      	BRNE PC+3
000c1a 940c 0c1d 	JMP _0x183
000c1c c001      	RJMP _0x184
                 _0x183:
000c1d c008      	RJMP _0x182
                 _0x184:
                 ; 0000 02C2 		{
                 ; 0000 02C3 		led_red=0x00000000L;
000c1e 940e 1260 	CALL SUBOPT_0x33
                 ; 0000 02C4 		led_green=0x00030003L;
                +
000c20 e0e3     +LDI R30 , LOW ( 0x30003 )
000c21 e0f0     +LDI R31 , HIGH ( 0x30003 )
000c22 e063     +LDI R22 , BYTE3 ( 0x30003 )
000c23 e070     +LDI R23 , BYTE4 ( 0x30003 )
                 	__GETD1N 0x30003
000c24 940e 12d8 	CALL SUBOPT_0x3E
                 ; 0000 02C5 		}
                 ; 0000 02C6 
                 ; 0000 02C7 	if((jp_mode==jp1))
                 _0x182:
                 _0x181:
                 _0x17F:
                 _0x17D:
                 _0x17B:
                 _0x179:
                 _0x175:
                 _0x173:
                 _0x16F:
                 _0x16B:
000c26 91a0 02b2 	LDS  R26,_jp_mode
000c28 30a1      	CPI  R26,LOW(0x1)
000c29 f011      	BREQ PC+3
000c2a 940c 0c35 	JMP _0x185
                 ; 0000 02C8 		{
                 ; 0000 02C9 		led_red=0x00000000L;
000c2c 940e 1260 	CALL SUBOPT_0x33
                 ; 0000 02CA 		led_green=0x33333333L;
                +
000c2e e3e3     +LDI R30 , LOW ( 0x33333333 )
000c2f e3f3     +LDI R31 , HIGH ( 0x33333333 )
000c30 e363     +LDI R22 , BYTE3 ( 0x33333333 )
000c31 e373     +LDI R23 , BYTE4 ( 0x33333333 )
                 	__GETD1N 0x33333333
000c32 940e 12d8 	CALL SUBOPT_0x3E
                 ; 0000 02CB 		}
                 ; 0000 02CC 	else if((jp_mode==jp2))
000c34 c00c      	RJMP _0x186
                 _0x185:
000c35 91a0 02b2 	LDS  R26,_jp_mode
000c37 30a2      	CPI  R26,LOW(0x2)
000c38 f011      	BREQ PC+3
000c39 940c 0c41 	JMP _0x187
                 ; 0000 02CD 		{
                 ; 0000 02CE 		led_red=0xccccccccL;
                +
000c3b ecec     +LDI R30 , LOW ( 0xCCCCCCCC )
000c3c ecfc     +LDI R31 , HIGH ( 0xCCCCCCCC )
000c3d ec6c     +LDI R22 , BYTE3 ( 0xCCCCCCCC )
000c3e ec7c     +LDI R23 , BYTE4 ( 0xCCCCCCCC )
                 	__GETD1N 0xCCCCCCCC
000c3f 940e 12cf 	CALL SUBOPT_0x3D
                 ; 0000 02CF 		led_green=0x00000000L;
                 ; 0000 02D0 		}
                 ; 0000 02D1 	}
                 _0x187:
                 _0x186:
                 ; 0000 02D2 else if(jp_mode==jp3)
000c41 c060      	RJMP _0x188
                 _0x169:
000c42 91a0 02b2 	LDS  R26,_jp_mode
000c44 30a3      	CPI  R26,LOW(0x3)
000c45 f011      	BREQ PC+3
000c46 940c 0ca2 	JMP _0x189
                 ; 0000 02D3 	{
                 ; 0000 02D4 	if(main_cnt1<(5*TZAS))
000c48 940e 1121 	CALL SUBOPT_0xA
000c4a 940e 1257 	CALL SUBOPT_0x32
000c4c 17ae      	CP   R26,R30
000c4d 07bf      	CPC  R27,R31
000c4e f014      	BRLT PC+3
000c4f 940c 0c56 	JMP _0x18A
                 ; 0000 02D5 		{
                 ; 0000 02D6 		led_red=0x00000000L;
000c51 940e 1260 	CALL SUBOPT_0x33
                 ; 0000 02D7 		led_green=0x03030303L;
000c53 940e 126a 	CALL SUBOPT_0x34
                 ; 0000 02D8 		}
                 ; 0000 02D9 	else if((main_cnt1>(5*TZAS))&&(main_cnt1<(70+(5*TZAS))))
000c55 c04c      	RJMP _0x18B
                 _0x18A:
000c56 940e 1121 	CALL SUBOPT_0xA
000c58 940e 1257 	CALL SUBOPT_0x32
000c5a 17ea      	CP   R30,R26
000c5b 07fb      	CPC  R31,R27
000c5c f014      	BRLT PC+3
000c5d 940c 0c67 	JMP _0x18D
000c5f 940e 1121 	CALL SUBOPT_0xA
000c61 940e 12e1 	CALL SUBOPT_0x3F
000c63 f014      	BRLT PC+3
000c64 940c 0c67 	JMP _0x18D
000c66 c001      	RJMP _0x18E
                 _0x18D:
000c67 c005      	RJMP _0x18C
                 _0x18E:
                 ; 0000 02DA 		{
                 ; 0000 02DB 		led_red=0x00000000L;
000c68 940e 1260 	CALL SUBOPT_0x33
                 ; 0000 02DC 		led_green=0xffffffffL;
000c6a 940e 1283 	CALL SUBOPT_0x36
                 ; 0000 02DD 		}
                 ; 0000 02DE 
                 ; 0000 02DF 	else if((flags&0b00011110)==0)
000c6c c035      	RJMP _0x18F
                 _0x18C:
000c6d 91e0 0294 	LDS  R30,_flags
000c6f 71ee      	ANDI R30,LOW(0x1E)
000c70 f011      	BREQ PC+3
000c71 940c 0c78 	JMP _0x190
                 ; 0000 02E0 		{
                 ; 0000 02E1 		led_red=0x00000000L;
000c73 940e 1260 	CALL SUBOPT_0x33
                 ; 0000 02E2 		led_green=0xffffffffL;
000c75 940e 1283 	CALL SUBOPT_0x36
                 ; 0000 02E3 		}
                 ; 0000 02E4 
                 ; 0000 02E5 
                 ; 0000 02E6 	else if((flags&0b00111110)==0b00000100)
000c77 c02a      	RJMP _0x191
                 _0x190:
000c78 940e 1290 	CALL SUBOPT_0x37
000c7a f011      	BREQ PC+3
000c7b 940c 0c82 	JMP _0x192
                 ; 0000 02E7 		{
                 ; 0000 02E8 		led_red=0x00010001L;
000c7d 940e 1295 	CALL SUBOPT_0x38
                 ; 0000 02E9 		led_green=0xffffffffL;
000c7f 940e 1283 	CALL SUBOPT_0x36
                 ; 0000 02EA 		}
                 ; 0000 02EB 	else if(flags&0b00000010)
000c81 c020      	RJMP _0x193
                 _0x192:
000c82 91e0 0294 	LDS  R30,_flags
000c84 70e2      	ANDI R30,LOW(0x2)
000c85 f411      	BRNE PC+3
000c86 940c 0c8d 	JMP _0x194
                 ; 0000 02EC 		{
                 ; 0000 02ED 		led_red=0x00010001L;
000c88 940e 1295 	CALL SUBOPT_0x38
                 ; 0000 02EE 		led_green=0x00000000L;
000c8a 940e 12a2 	CALL SUBOPT_0x39
                 ; 0000 02EF 		}
                 ; 0000 02F0 	else if(flags&0b00001000)
000c8c c015      	RJMP _0x195
                 _0x194:
000c8d 91e0 0294 	LDS  R30,_flags
000c8f 70e8      	ANDI R30,LOW(0x8)
000c90 f411      	BRNE PC+3
000c91 940c 0c96 	JMP _0x196
                 ; 0000 02F1 		{
                 ; 0000 02F2 		led_red=0x00090009L;
000c93 940e 12ac 	CALL SUBOPT_0x3A
                 ; 0000 02F3 		led_green=0x00000000L;
                 ; 0000 02F4 		}
                 ; 0000 02F5 	else if(flags&0b00010000)
000c95 c00c      	RJMP _0x197
                 _0x196:
000c96 91e0 0294 	LDS  R30,_flags
000c98 71e0      	ANDI R30,LOW(0x10)
000c99 f411      	BRNE PC+3
000c9a 940c 0ca2 	JMP _0x198
                 ; 0000 02F6 		{
                 ; 0000 02F7 		led_red=0x00490049L;
                +
000c9c e4e9     +LDI R30 , LOW ( 0x490049 )
000c9d e0f0     +LDI R31 , HIGH ( 0x490049 )
000c9e e469     +LDI R22 , BYTE3 ( 0x490049 )
000c9f e070     +LDI R23 , BYTE4 ( 0x490049 )
                 	__GETD1N 0x490049
000ca0 940e 12c6 	CALL SUBOPT_0x3C
                 ; 0000 02F8 		led_green=0xffffffffL;
                 ; 0000 02F9 		}
                 ; 0000 02FA 		/*led_green=0x33333333L;
                 ; 0000 02FB 		led_red=0xccccccccL;*/
                 ; 0000 02FC 	}
                 _0x198:
                 _0x197:
                 _0x195:
                 _0x193:
                 _0x191:
                 _0x18F:
                 _0x18B:
                 ; 0000 02FD 
                 ; 0000 02FE }
                 _0x189:
                 _0x188:
                 _0x168:
                 _0x159:
000ca2 9508      	RET
                 ; .FEND
                 ;
                 ;//-----------------------------------------------
                 ;void pwr_drv(void)
                 ; 0000 0302 {
                 _pwr_drv:
                 ; .FSTART _pwr_drv
                 ; 0000 0303 DDRD.4=1;
000ca3 9a54      	SBI  0xA,4
                 ; 0000 0304 
                 ; 0000 0305 if(main_cnt1<150)main_cnt1++;
000ca4 91a0 02b3 	LDS  R26,_main_cnt1
000ca6 91b0 02b4 	LDS  R27,_main_cnt1+1
000ca8 39a6      	CPI  R26,LOW(0x96)
000ca9 e0e0      	LDI  R30,HIGH(0x96)
000caa 07be      	CPC  R27,R30
000cab f014      	BRLT PC+3
000cac 940c 0cb2 	JMP _0x19B
000cae eba3      	LDI  R26,LOW(_main_cnt1)
000caf e0b2      	LDI  R27,HIGH(_main_cnt1)
000cb0 940e 11d4 	CALL SUBOPT_0x22
                 ; 0000 0306 
                 ; 0000 0307 if(main_cnt1<(5*TZAS))
                 _0x19B:
000cb2 940e 1121 	CALL SUBOPT_0xA
000cb4 940e 1257 	CALL SUBOPT_0x32
000cb6 17ae      	CP   R26,R30
000cb7 07bf      	CPC  R27,R31
000cb8 f014      	BRLT PC+3
000cb9 940c 0cbd 	JMP _0x19C
                 ; 0000 0308 	{
                 ; 0000 0309 	PORTD.4=1;
000cbb 9a5c      	SBI  0xB,4
                 ; 0000 030A 	}
                 ; 0000 030B else if((main_cnt1>(5*TZAS))&&(main_cnt1<(70+(5*TZAS))))
000cbc c01b      	RJMP _0x19F
                 _0x19C:
000cbd 940e 1121 	CALL SUBOPT_0xA
000cbf 940e 1257 	CALL SUBOPT_0x32
000cc1 17ea      	CP   R30,R26
000cc2 07fb      	CPC  R31,R27
000cc3 f014      	BRLT PC+3
000cc4 940c 0cce 	JMP _0x1A1
000cc6 940e 1121 	CALL SUBOPT_0xA
000cc8 940e 12e1 	CALL SUBOPT_0x3F
000cca f014      	BRLT PC+3
000ccb 940c 0cce 	JMP _0x1A1
000ccd c001      	RJMP _0x1A2
                 _0x1A1:
000cce c002      	RJMP _0x1A0
                 _0x1A2:
                 ; 0000 030C 	{
                 ; 0000 030D 	PORTD.4=0;
000ccf 985c      	CBI  0xB,4
                 ; 0000 030E 	}
                 ; 0000 030F else if(bBL)
000cd0 c007      	RJMP _0x1A5
                 _0x1A0:
000cd1 9bf7      	SBIS 0x1E,7
000cd2 c002      	RJMP _0x1A6
                 ; 0000 0310 	{
                 ; 0000 0311 	PORTD.4=1;
000cd3 9a5c      	SBI  0xB,4
                 ; 0000 0312 	}
                 ; 0000 0313 else if(!bBL)
000cd4 c003      	RJMP _0x1A9
                 _0x1A6:
000cd5 99f7      	SBIC 0x1E,7
000cd6 c001      	RJMP _0x1AA
                 ; 0000 0314 	{
                 ; 0000 0315 	PORTD.4=0;
000cd7 985c      	CBI  0xB,4
                 ; 0000 0316 	}
                 ; 0000 0317 
                 ; 0000 0318 DDRB|=0b00000110;
                 _0x1AA:
                 _0x1A9:
                 _0x1A5:
                 _0x19F:
000cd8 b1e4      	IN   R30,0x4
000cd9 60e6      	ORI  R30,LOW(0x6)
000cda b9e4      	OUT  0x4,R30
                 ; 0000 0319 
                 ; 0000 031A gran(&pwm_u,2,1020);
000cdb eae9      	LDI  R30,LOW(_pwm_u)
000cdc e0f2      	LDI  R31,HIGH(_pwm_u)
000cdd 93fa      	ST   -Y,R31
000cde 93ea      	ST   -Y,R30
000cdf e0e2      	LDI  R30,LOW(2)
000ce0 e0f0      	LDI  R31,HIGH(2)
000ce1 940e 12ed 	CALL SUBOPT_0x40
                 ; 0000 031B 
                 ; 0000 031C 
                 ; 0000 031D ///OCR1AL=pwm_u;
                 ; 0000 031E /*PORTB.2=1;
                 ; 0000 031F OCR1A=0;*/
                 ; 0000 0320 *((short*)&OCR1AL)=pwm_u;
000ce3 940e 12f3 	CALL SUBOPT_0x41
                 ; 0000 0321 *((short*)&OCR1AL)=pwm_u;
000ce5 940e 12f3 	CALL SUBOPT_0x41
                 ; 0000 0322 //PORTB.2=0;
                 ; 0000 0323 }
000ce7 9508      	RET
                 ; .FEND
                 ;
                 ;//-----------------------------------------------
                 ;void pwr_hndl(void)
                 ; 0000 0327 {
                 _pwr_hndl:
                 ; .FSTART _pwr_hndl
                 ; 0000 0328 //vol_u_temp=800;
                 ; 0000 0329 if(adr==63)
000ce8 940e 111c 	CALL SUBOPT_0x9
000cea 33ef      	CPI  R30,LOW(0x3F)
000ceb f011      	BREQ PC+3
000cec 940c 0d02 	JMP _0x1AD
                 ; 0000 032A         {
                 ; 0000 032B         if((flags&0b00001010)==0)
000cee 91e0 0294 	LDS  R30,_flags
000cf0 70ea      	ANDI R30,LOW(0xA)
000cf1 f011      	BREQ PC+3
000cf2 940c 0cf9 	JMP _0x1AE
                 ; 0000 032C 		{
                 ; 0000 032D 		pwm_u=950;
000cf4 ebe6      	LDI  R30,LOW(950)
000cf5 e0f3      	LDI  R31,HIGH(950)
000cf6 940e 12fc 	CALL SUBOPT_0x42
                 ; 0000 032E 		bBL=0;
                 ; 0000 032F 		}
                 ; 0000 0330 	else if(flags&0b00001010)
000cf8 c008      	RJMP _0x1B1
                 _0x1AE:
000cf9 91e0 0294 	LDS  R30,_flags
000cfb 70ea      	ANDI R30,LOW(0xA)
000cfc f411      	BRNE PC+3
000cfd 940c 0d01 	JMP _0x1B2
                 ; 0000 0331 		{
                 ; 0000 0332 		pwm_u=0;
000cff 940e 1302 	CALL SUBOPT_0x43
                 ; 0000 0333 		bBL=1;
                 ; 0000 0334 		}
                 ; 0000 0335         }
                 _0x1B2:
                 _0x1B1:
                 ; 0000 0336 else if(adr==62)
000d01 c0ae      	RJMP _0x1B5
                 _0x1AD:
000d02 940e 111c 	CALL SUBOPT_0x9
000d04 33ee      	CPI  R30,LOW(0x3E)
000d05 f011      	BREQ PC+3
000d06 940c 0d20 	JMP _0x1B6
                 ; 0000 0337         {
                 ; 0000 0338         if((flags&0b00001010)==0)
000d08 91e0 0294 	LDS  R30,_flags
000d0a 70ea      	ANDI R30,LOW(0xA)
000d0b f011      	BREQ PC+3
000d0c 940c 0d17 	JMP _0x1B7
                 ; 0000 0339 		{
                 ; 0000 033A 		pwm_u=950+_x_;
000d0e 91e0 02b5 	LDS  R30,__x_
000d10 91f0 02b6 	LDS  R31,__x_+1
000d12 54ea      	SUBI R30,LOW(-950)
000d13 4ffc      	SBCI R31,HIGH(-950)
000d14 940e 12fc 	CALL SUBOPT_0x42
                 ; 0000 033B 		bBL=0;
                 ; 0000 033C 		}
                 ; 0000 033D 	else if(flags&0b00001010)
000d16 c008      	RJMP _0x1BA
                 _0x1B7:
000d17 91e0 0294 	LDS  R30,_flags
000d19 70ea      	ANDI R30,LOW(0xA)
000d1a f411      	BRNE PC+3
000d1b 940c 0d1f 	JMP _0x1BB
                 ; 0000 033E 		{
                 ; 0000 033F 		pwm_u=0;
000d1d 940e 1302 	CALL SUBOPT_0x43
                 ; 0000 0340 		bBL=1;
                 ; 0000 0341 		}
                 ; 0000 0342         }
                 _0x1BB:
                 _0x1BA:
                 ; 0000 0343 else if(jp_mode==jp3)
000d1f c090      	RJMP _0x1BE
                 _0x1B6:
000d20 91a0 02b2 	LDS  R26,_jp_mode
000d22 30a3      	CPI  R26,LOW(0x3)
000d23 f011      	BREQ PC+3
000d24 940c 0d3a 	JMP _0x1BF
                 ; 0000 0344 	{
                 ; 0000 0345 	if((flags&0b00001010)==0)
000d26 91e0 0294 	LDS  R30,_flags
000d28 70ea      	ANDI R30,LOW(0xA)
000d29 f011      	BREQ PC+3
000d2a 940c 0d31 	JMP _0x1C0
                 ; 0000 0346 		{
                 ; 0000 0347 		pwm_u=500;
000d2c efe4      	LDI  R30,LOW(500)
000d2d e0f1      	LDI  R31,HIGH(500)
000d2e 940e 12fc 	CALL SUBOPT_0x42
                 ; 0000 0348 		//pwm_i=0x3ff;
                 ; 0000 0349 		bBL=0;
                 ; 0000 034A 		}
                 ; 0000 034B 	else if(flags&0b00001010)
000d30 c008      	RJMP _0x1C3
                 _0x1C0:
000d31 91e0 0294 	LDS  R30,_flags
000d33 70ea      	ANDI R30,LOW(0xA)
000d34 f411      	BRNE PC+3
000d35 940c 0d39 	JMP _0x1C4
                 ; 0000 034C 		{
                 ; 0000 034D 		pwm_u=0;
000d37 940e 1302 	CALL SUBOPT_0x43
                 ; 0000 034E 		//pwm_i=0;
                 ; 0000 034F 		bBL=1;
                 ; 0000 0350 		}
                 ; 0000 0351 
                 ; 0000 0352 	}
                 _0x1C4:
                 _0x1C3:
                 ; 0000 0353 else if(jp_mode==jp2)
000d39 c076      	RJMP _0x1C7
                 _0x1BF:
000d3a 91a0 02b2 	LDS  R26,_jp_mode
000d3c 30a2      	CPI  R26,LOW(0x2)
000d3d f011      	BREQ PC+3
000d3e 940c 0d47 	JMP _0x1C8
                 ; 0000 0354 	{
                 ; 0000 0355 	pwm_u=0;
000d40 e0e0      	LDI  R30,LOW(0)
000d41 93e0 02a9 	STS  _pwm_u,R30
000d43 93e0 02aa 	STS  _pwm_u+1,R30
                 ; 0000 0356 	//pwm_i=0x3ff;
                 ; 0000 0357 	bBL=0;
000d45 98f7      	CBI  0x1E,7
                 ; 0000 0358 	}
                 ; 0000 0359 else if(jp_mode==jp1)
000d46 c069      	RJMP _0x1CB
                 _0x1C8:
000d47 91a0 02b2 	LDS  R26,_jp_mode
000d49 30a1      	CPI  R26,LOW(0x1)
000d4a f011      	BREQ PC+3
000d4b 940c 0d52 	JMP _0x1CC
                 ; 0000 035A 	{
                 ; 0000 035B 	pwm_u=0x3ff;
000d4d efef      	LDI  R30,LOW(1023)
000d4e e0f3      	LDI  R31,HIGH(1023)
000d4f 940e 12fc 	CALL SUBOPT_0x42
                 ; 0000 035C 	//pwm_i=0x3ff;
                 ; 0000 035D 	bBL=0;
                 ; 0000 035E 	}
                 ; 0000 035F 
                 ; 0000 0360 else if(link==OFF)
000d51 c05e      	RJMP _0x1CF
                 _0x1CC:
000d52 91a0 02a2 	LDS  R26,_link
000d54 3aaa      	CPI  R26,LOW(0xAA)
000d55 f011      	BREQ PC+3
000d56 940c 0d79 	JMP _0x1D0
                 ; 0000 0361 	{
                 ; 0000 0362 	if((flags&0b00011010)==0)
000d58 91e0 0294 	LDS  R30,_flags
000d5a 71ea      	ANDI R30,LOW(0x1A)
000d5b f011      	BREQ PC+3
000d5c 940c 0d70 	JMP _0x1D1
                 ; 0000 0363 		{
                 ; 0000 0364 		pwm_u=U_AVT;
000d5e e1ab      	LDI  R26,LOW(_U_AVT)
000d5f e0b0      	LDI  R27,HIGH(_U_AVT)
000d60 940e 140c 	CALL __EEPROMRDW
000d62 93e0 02a9 	STS  _pwm_u,R30
000d64 93f0 02aa 	STS  _pwm_u+1,R31
                 ; 0000 0365 		gran(&pwm_u,0,1020);
000d66 eae9      	LDI  R30,LOW(_pwm_u)
000d67 e0f2      	LDI  R31,HIGH(_pwm_u)
000d68 93fa      	ST   -Y,R31
000d69 93ea      	ST   -Y,R30
000d6a e0e0      	LDI  R30,LOW(0)
000d6b e0f0      	LDI  R31,HIGH(0)
000d6c 940e 12ed 	CALL SUBOPT_0x40
                 ; 0000 0366 	    //	pwm_i=0x3ff;
                 ; 0000 0367 		bBL=0;
000d6e 98f7      	CBI  0x1E,7
                 ; 0000 0368 		}
                 ; 0000 0369 	else if(flags&0b00011010)
000d6f c008      	RJMP _0x1D4
                 _0x1D1:
000d70 91e0 0294 	LDS  R30,_flags
000d72 71ea      	ANDI R30,LOW(0x1A)
000d73 f411      	BRNE PC+3
000d74 940c 0d78 	JMP _0x1D5
                 ; 0000 036A 		{
                 ; 0000 036B 		pwm_u=0;
000d76 940e 1302 	CALL SUBOPT_0x43
                 ; 0000 036C 		//pwm_i=0;
                 ; 0000 036D 		bBL=1;
                 ; 0000 036E 		}
                 ; 0000 036F 	}
                 _0x1D5:
                 _0x1D4:
                 ; 0000 0370 
                 ; 0000 0371 else	if(link==ON)
000d78 c037      	RJMP _0x1D8
                 _0x1D0:
000d79 91a0 02a2 	LDS  R26,_link
000d7b 35a5      	CPI  R26,LOW(0x55)
000d7c f011      	BREQ PC+3
000d7d 940c 0db0 	JMP _0x1D9
                 ; 0000 0372 	{
                 ; 0000 0373 	if((flags&0b00100000)==0)
000d7f 91e0 0294 	LDS  R30,_flags
000d81 72e0      	ANDI R30,LOW(0x20)
000d82 f011      	BREQ PC+3
000d83 940c 0da8 	JMP _0x1DA
                 ; 0000 0374 		{
                 ; 0000 0375 		if(((flags&0b00011010)==0)||(flags&0b01000000))
000d85 91e0 0294 	LDS  R30,_flags
000d87 71ea      	ANDI R30,LOW(0x1A)
000d88 f411      	BRNE PC+3
000d89 940c 0d92 	JMP _0x1DC
000d8b 91e0 0294 	LDS  R30,_flags
000d8d 74e0      	ANDI R30,LOW(0x40)
000d8e f011      	BREQ PC+3
000d8f 940c 0d92 	JMP _0x1DC
000d91 c00d      	RJMP _0x1DB
                 _0x1DC:
                 ; 0000 0376 			{
                 ; 0000 0377 			pwm_u=vol_u_temp+_x_;
000d92 91e0 02b5 	LDS  R30,__x_
000d94 91f0 02b6 	LDS  R31,__x_+1
000d96 91a0 0296 	LDS  R26,_vol_u_temp
000d98 91b0 0297 	LDS  R27,_vol_u_temp+1
000d9a 0fea      	ADD  R30,R26
000d9b 1ffb      	ADC  R31,R27
000d9c 940e 12fc 	CALL SUBOPT_0x42
                 ; 0000 0378 		    //	pwm_i=0x3ff;
                 ; 0000 0379 			bBL=0;
                 ; 0000 037A 			}
                 ; 0000 037B 		else if(flags&0b00011010)
000d9e c008      	RJMP _0x1E0
                 _0x1DB:
000d9f 91e0 0294 	LDS  R30,_flags
000da1 71ea      	ANDI R30,LOW(0x1A)
000da2 f411      	BRNE PC+3
000da3 940c 0da7 	JMP _0x1E1
                 ; 0000 037C 			{
                 ; 0000 037D 			pwm_u=0;
000da5 940e 1302 	CALL SUBOPT_0x43
                 ; 0000 037E 			//pwm_i=0;
                 ; 0000 037F 			bBL=1;
                 ; 0000 0380 			}
                 ; 0000 0381 		}
                 _0x1E1:
                 _0x1E0:
                 ; 0000 0382 	else if(flags&0b00100000)
000da7 c008      	RJMP _0x1E4
                 _0x1DA:
000da8 91e0 0294 	LDS  R30,_flags
000daa 72e0      	ANDI R30,LOW(0x20)
000dab f411      	BRNE PC+3
000dac 940c 0db0 	JMP _0x1E5
                 ; 0000 0383 		{
                 ; 0000 0384 		pwm_u=0;
000dae 940e 1302 	CALL SUBOPT_0x43
                 ; 0000 0385 	    //	pwm_i=0;
                 ; 0000 0386 		bBL=1;
                 ; 0000 0387 		}
                 ; 0000 0388 	}
                 _0x1E5:
                 _0x1E4:
                 ; 0000 0389 //pwm_u=vol_u_temp;
                 ; 0000 038A //pwm_u=500;
                 ; 0000 038B //pwm_i=500;
                 ; 0000 038C //bBL=1;
                 ; 0000 038D }
                 _0x1D9:
                 _0x1D8:
                 _0x1CF:
                 _0x1CB:
                 _0x1C7:
                 _0x1BE:
                 _0x1B5:
000db0 9508      	RET
                 ; .FEND
                 ;
                 ;//-----------------------------------------------
                 ;void JP_drv(void)
                 ; 0000 0391 {
                 _JP_drv:
                 ; .FSTART _JP_drv
                 ; 0000 0392 
                 ; 0000 0393 DDRB.6=1;
000db1 9a26      	SBI  0x4,6
                 ; 0000 0394 DDRB.7=1;
000db2 9a27      	SBI  0x4,7
                 ; 0000 0395 PORTB.6=1;
000db3 9a2e      	SBI  0x5,6
                 ; 0000 0396 PORTB.7=1;
000db4 9a2f      	SBI  0x5,7
                 ; 0000 0397 
                 ; 0000 0398 if(PINB.6)
000db5 9b1e      	SBIS 0x3,6
000db6 c00c      	RJMP _0x1F0
                 ; 0000 0399 	{
                 ; 0000 039A 	if(cnt_JP0<10)
000db7 91a0 02b0 	LDS  R26,_cnt_JP0
000db9 30aa      	CPI  R26,LOW(0xA)
000dba f010      	BRLO PC+3
000dbb 940c 0dc2 	JMP _0x1F1
                 ; 0000 039B 		{
                 ; 0000 039C 		cnt_JP0++;
000dbd 91e0 02b0 	LDS  R30,_cnt_JP0
000dbf 5fef      	SUBI R30,-LOW(1)
000dc0 93e0 02b0 	STS  _cnt_JP0,R30
                 ; 0000 039D 		}
                 ; 0000 039E 	}
                 _0x1F1:
                 ; 0000 039F else if(!PINB.6)
000dc2 c00b      	RJMP _0x1F2
                 _0x1F0:
000dc3 991e      	SBIC 0x3,6
000dc4 c009      	RJMP _0x1F3
                 ; 0000 03A0 	{
                 ; 0000 03A1 	if(cnt_JP0)
000dc5 91e0 02b0 	LDS  R30,_cnt_JP0
000dc7 30e0      	CPI  R30,0
000dc8 f411      	BRNE PC+3
000dc9 940c 0dce 	JMP _0x1F4
                 ; 0000 03A2 		{
                 ; 0000 03A3 		cnt_JP0--;
000dcb 50e1      	SUBI R30,LOW(1)
000dcc 93e0 02b0 	STS  _cnt_JP0,R30
                 ; 0000 03A4 		}
                 ; 0000 03A5 	}
                 _0x1F4:
                 ; 0000 03A6 
                 ; 0000 03A7 if(PINB.7)
                 _0x1F3:
                 _0x1F2:
000dce 9b1f      	SBIS 0x3,7
000dcf c00c      	RJMP _0x1F5
                 ; 0000 03A8 	{
                 ; 0000 03A9 	if(cnt_JP1<10)
000dd0 91a0 02b1 	LDS  R26,_cnt_JP1
000dd2 30aa      	CPI  R26,LOW(0xA)
000dd3 f010      	BRLO PC+3
000dd4 940c 0ddb 	JMP _0x1F6
                 ; 0000 03AA 		{
                 ; 0000 03AB 		cnt_JP1++;
000dd6 91e0 02b1 	LDS  R30,_cnt_JP1
000dd8 5fef      	SUBI R30,-LOW(1)
000dd9 93e0 02b1 	STS  _cnt_JP1,R30
                 ; 0000 03AC 		}
                 ; 0000 03AD 	}
                 _0x1F6:
                 ; 0000 03AE else if(!PINB.7)
000ddb c00b      	RJMP _0x1F7
                 _0x1F5:
000ddc 991f      	SBIC 0x3,7
000ddd c009      	RJMP _0x1F8
                 ; 0000 03AF 	{
                 ; 0000 03B0 	if(cnt_JP1)
000dde 91e0 02b1 	LDS  R30,_cnt_JP1
000de0 30e0      	CPI  R30,0
000de1 f411      	BRNE PC+3
000de2 940c 0de7 	JMP _0x1F9
                 ; 0000 03B1 		{
                 ; 0000 03B2 		cnt_JP1--;
000de4 50e1      	SUBI R30,LOW(1)
000de5 93e0 02b1 	STS  _cnt_JP1,R30
                 ; 0000 03B3 		}
                 ; 0000 03B4 	}
                 _0x1F9:
                 ; 0000 03B5 
                 ; 0000 03B6 
                 ; 0000 03B7 if((cnt_JP0==10)&&(cnt_JP1==10))
                 _0x1F8:
                 _0x1F7:
000de7 91a0 02b0 	LDS  R26,_cnt_JP0
000de9 30aa      	CPI  R26,LOW(0xA)
000dea f011      	BREQ PC+3
000deb 940c 0df4 	JMP _0x1FB
000ded 91a0 02b1 	LDS  R26,_cnt_JP1
000def 30aa      	CPI  R26,LOW(0xA)
000df0 f011      	BREQ PC+3
000df1 940c 0df4 	JMP _0x1FB
000df3 c001      	RJMP _0x1FC
                 _0x1FB:
000df4 c003      	RJMP _0x1FA
                 _0x1FC:
                 ; 0000 03B8 	{
                 ; 0000 03B9 	jp_mode=jp0;
000df5 e0e0      	LDI  R30,LOW(0)
000df6 93e0 02b2 	STS  _jp_mode,R30
                 ; 0000 03BA 	}
                 ; 0000 03BB if((cnt_JP0==0)&&(cnt_JP1==10))
                 _0x1FA:
000df8 91a0 02b0 	LDS  R26,_cnt_JP0
000dfa 30a0      	CPI  R26,LOW(0x0)
000dfb f011      	BREQ PC+3
000dfc 940c 0e05 	JMP _0x1FE
000dfe 91a0 02b1 	LDS  R26,_cnt_JP1
000e00 30aa      	CPI  R26,LOW(0xA)
000e01 f011      	BREQ PC+3
000e02 940c 0e05 	JMP _0x1FE
000e04 c001      	RJMP _0x1FF
                 _0x1FE:
000e05 c003      	RJMP _0x1FD
                 _0x1FF:
                 ; 0000 03BC 	{
                 ; 0000 03BD 	jp_mode=jp1;
000e06 e0e1      	LDI  R30,LOW(1)
000e07 93e0 02b2 	STS  _jp_mode,R30
                 ; 0000 03BE 	}
                 ; 0000 03BF if((cnt_JP0==10)&&(cnt_JP1==0))
                 _0x1FD:
000e09 91a0 02b0 	LDS  R26,_cnt_JP0
000e0b 30aa      	CPI  R26,LOW(0xA)
000e0c f011      	BREQ PC+3
000e0d 940c 0e16 	JMP _0x201
000e0f 91a0 02b1 	LDS  R26,_cnt_JP1
000e11 30a0      	CPI  R26,LOW(0x0)
000e12 f011      	BREQ PC+3
000e13 940c 0e16 	JMP _0x201
000e15 c001      	RJMP _0x202
                 _0x201:
000e16 c003      	RJMP _0x200
                 _0x202:
                 ; 0000 03C0 	{
                 ; 0000 03C1 	jp_mode=jp2;
000e17 e0e2      	LDI  R30,LOW(2)
000e18 93e0 02b2 	STS  _jp_mode,R30
                 ; 0000 03C2 	}
                 ; 0000 03C3 if((cnt_JP0==0)&&(cnt_JP1==0))
                 _0x200:
000e1a 91a0 02b0 	LDS  R26,_cnt_JP0
000e1c 30a0      	CPI  R26,LOW(0x0)
000e1d f011      	BREQ PC+3
000e1e 940c 0e27 	JMP _0x204
000e20 91a0 02b1 	LDS  R26,_cnt_JP1
000e22 30a0      	CPI  R26,LOW(0x0)
000e23 f011      	BREQ PC+3
000e24 940c 0e27 	JMP _0x204
000e26 c001      	RJMP _0x205
                 _0x204:
000e27 c003      	RJMP _0x203
                 _0x205:
                 ; 0000 03C4 	{
                 ; 0000 03C5 	jp_mode=jp3;
000e28 e0e3      	LDI  R30,LOW(3)
000e29 93e0 02b2 	STS  _jp_mode,R30
                 ; 0000 03C6 	}
                 ; 0000 03C7 
                 ; 0000 03C8 }
                 _0x203:
000e2b 9508      	RET
                 ; .FEND
                 ;
                 ;//-----------------------------------------------
                 ;void adc_hndl(void)
                 ; 0000 03CC {
                 _adc_hndl:
                 ; .FSTART _adc_hndl
                 ; 0000 03CD unsigned tempUI;
                 ; 0000 03CE tempUI=ADCW;
000e2c 931a      	ST   -Y,R17
000e2d 930a      	ST   -Y,R16
                 ;	tempUI -> R16,R17
                +
000e2e 9100 0078+LDS R16 , 0 + ( 120 )
000e30 9110 0079+LDS R17 , 0 + ( 120 ) + 1
                 	__GETWRMN 16,17,0,120
                 ; 0000 03CF adc_buff[adc_ch][adc_cnt]=tempUI;
000e32 940e 1309 	CALL SUBOPT_0x44
000e34 01df      	MOVW R26,R30
000e35 91e0 0288 	LDS  R30,_adc_cnt
000e37 e0f0      	LDI  R31,0
000e38 0fee      	LSL  R30
000e39 1fff      	ROL  R31
000e3a 0fea      	ADD  R30,R26
000e3b 1ffb      	ADC  R31,R27
000e3c 8300      	ST   Z,R16
000e3d 8311      	STD  Z+1,R17
                 ; 0000 03D0 if(adc_ch==2)
000e3e 91a0 0289 	LDS  R26,_adc_ch
000e40 30a2      	CPI  R26,LOW(0x2)
000e41 f011      	BREQ PC+3
000e42 940c 0e5f 	JMP _0x206
                 ; 0000 03D1 	{
                 ; 0000 03D2 	if(tempUI>adc_ch_2_max)adc_ch_2_max=tempUI;
000e44 91e0 02bf 	LDS  R30,_adc_ch_2_max
000e46 91f0 02c0 	LDS  R31,_adc_ch_2_max+1
000e48 17e0      	CP   R30,R16
000e49 07f1      	CPC  R31,R17
000e4a f010      	BRLO PC+3
000e4b 940c 0e52 	JMP _0x207
                +
000e4d 9300 02bf+STS _adc_ch_2_max + ( 0 ) , R16
000e4f 9310 02c0+STS _adc_ch_2_max + ( 0 ) + 1 , R17
                 	__PUTWMRN _adc_ch_2_max,0,16,17
                 ; 0000 03D3 	else if(tempUI<adc_ch_2_min)adc_ch_2_min=tempUI;
000e51 c00d      	RJMP _0x208
                 _0x207:
000e52 91e0 02c1 	LDS  R30,_adc_ch_2_min
000e54 91f0 02c2 	LDS  R31,_adc_ch_2_min+1
000e56 170e      	CP   R16,R30
000e57 071f      	CPC  R17,R31
000e58 f010      	BRLO PC+3
000e59 940c 0e5f 	JMP _0x209
                +
000e5b 9300 02c1+STS _adc_ch_2_min + ( 0 ) , R16
000e5d 9310 02c2+STS _adc_ch_2_min + ( 0 ) + 1 , R17
                 	__PUTWMRN _adc_ch_2_min,0,16,17
                 ; 0000 03D4 	}
                 _0x209:
                 _0x208:
                 ; 0000 03D5 
                 ; 0000 03D6 if((adc_cnt&0x03)==0)
                 _0x206:
000e5f 91e0 0288 	LDS  R30,_adc_cnt
000e61 70e3      	ANDI R30,LOW(0x3)
000e62 f011      	BREQ PC+3
000e63 940c 0e9a 	JMP _0x20A
                 ; 0000 03D7 	{
                 ; 0000 03D8 	char i;
                 ; 0000 03D9 	adc_buff_[adc_ch]=0;
000e65 9721      	SBIW R28,1
                 ;	i -> Y+0
000e66 940e 1313 	CALL SUBOPT_0x45
000e68 0fae      	ADD  R26,R30
000e69 1fbf      	ADC  R27,R31
000e6a e0e0      	LDI  R30,LOW(0)
000e6b e0f0      	LDI  R31,HIGH(0)
000e6c 93ed      	ST   X+,R30
000e6d 93fc      	ST   X,R31
                 ; 0000 03DA 	for(i=0;i<16;i++)
000e6e 83e8      	ST   Y,R30
                 _0x20C:
000e6f 81a8      	LD   R26,Y
000e70 31a0      	CPI  R26,LOW(0x10)
000e71 f010      	BRLO PC+3
000e72 940c 0e8f 	JMP _0x20D
                 ; 0000 03DB 		{
                 ; 0000 03DC 		adc_buff_[adc_ch]+=adc_buff[adc_ch][i];
000e74 940e 1313 	CALL SUBOPT_0x45
000e76 0fea      	ADD  R30,R26
000e77 1ffb      	ADC  R31,R27
000e78 01bf      	MOVW R22,R30
000e79 8000      	LD   R0,Z
000e7a 8011      	LDD  R1,Z+1
000e7b 940e 1309 	CALL SUBOPT_0x44
000e7d 01df      	MOVW R26,R30
000e7e 81e8      	LD   R30,Y
000e7f e0f0      	LDI  R31,0
000e80 0fee      	LSL  R30
000e81 1fff      	ROL  R31
000e82 0fae      	ADD  R26,R30
000e83 1fbf      	ADC  R27,R31
000e84 940e 13ef 	CALL __GETW1P
000e86 0de0      	ADD  R30,R0
000e87 1df1      	ADC  R31,R1
000e88 01db      	MOVW R26,R22
000e89 93ed      	ST   X+,R30
000e8a 93fc      	ST   X,R31
                 ; 0000 03DD 		}
                 _0x20B:
000e8b 81e8      	LD   R30,Y
000e8c 5fef      	SUBI R30,-LOW(1)
000e8d 83e8      	ST   Y,R30
000e8e cfe0      	RJMP _0x20C
                 _0x20D:
                 ; 0000 03DE 	adc_buff_[adc_ch]>>=4;
000e8f 940e 1313 	CALL SUBOPT_0x45
000e91 0fae      	ADD  R26,R30
000e92 1fbf      	ADC  R27,R31
000e93 91ed      	LD   R30,X+
000e94 91fd      	LD   R31,X+
000e95 940e 1364 	CALL __LSRW4
000e97 93fe      	ST   -X,R31
000e98 93ee      	ST   -X,R30
                 ; 0000 03DF 	}
000e99 9621      	ADIW R28,1
                 ; 0000 03E0 
                 ; 0000 03E1 if(++adc_ch>=4)
                 _0x20A:
000e9a 91a0 0289 	LDS  R26,_adc_ch
000e9c 5faf      	SUBI R26,-LOW(1)
000e9d 93a0 0289 	STS  _adc_ch,R26
000e9f 30a4      	CPI  R26,LOW(0x4)
000ea0 f410      	BRSH PC+3
000ea1 940c 0eb1 	JMP _0x20E
                 ; 0000 03E2 	{
                 ; 0000 03E3 	adc_ch=0;
000ea3 e0e0      	LDI  R30,LOW(0)
000ea4 93e0 0289 	STS  _adc_ch,R30
                 ; 0000 03E4 	if(++adc_cnt>=16)
000ea6 91a0 0288 	LDS  R26,_adc_cnt
000ea8 5faf      	SUBI R26,-LOW(1)
000ea9 93a0 0288 	STS  _adc_cnt,R26
000eab 31a0      	CPI  R26,LOW(0x10)
000eac f410      	BRSH PC+3
000ead 940c 0eb1 	JMP _0x20F
                 ; 0000 03E5 		{
                 ; 0000 03E6 		adc_cnt=0;
000eaf 93e0 0288 	STS  _adc_cnt,R30
                 ; 0000 03E7 		}
                 ; 0000 03E8 	}
                 _0x20F:
                 ; 0000 03E9 DDRC&=0b11000000;
                 _0x20E:
000eb1 b1e7      	IN   R30,0x7
000eb2 7ce0      	ANDI R30,LOW(0xC0)
000eb3 b9e7      	OUT  0x7,R30
                 ; 0000 03EA PORTC&=0b11000000;
000eb4 b1e8      	IN   R30,0x8
000eb5 7ce0      	ANDI R30,LOW(0xC0)
000eb6 b9e8      	OUT  0x8,R30
                 ; 0000 03EB 
                 ; 0000 03EC if(adc_ch==0) ADMUX=0b01000001; //ток
000eb7 91e0 0289 	LDS  R30,_adc_ch
000eb9 30e0      	CPI  R30,0
000eba f011      	BREQ PC+3
000ebb 940c 0ec1 	JMP _0x210
000ebd e4e1      	LDI  R30,LOW(65)
000ebe 93e0 007c 	STS  124,R30
                 ; 0000 03ED else if(adc_ch==1) ADMUX=0b01000100; //напр ист
000ec0 c01d      	RJMP _0x211
                 _0x210:
000ec1 91a0 0289 	LDS  R26,_adc_ch
000ec3 30a1      	CPI  R26,LOW(0x1)
000ec4 f011      	BREQ PC+3
000ec5 940c 0ecb 	JMP _0x212
000ec7 e4e4      	LDI  R30,LOW(68)
000ec8 93e0 007c 	STS  124,R30
                 ; 0000 03EE else if(adc_ch==2) ADMUX=0b01000010; //напр нагр
000eca c013      	RJMP _0x213
                 _0x212:
000ecb 91a0 0289 	LDS  R26,_adc_ch
000ecd 30a2      	CPI  R26,LOW(0x2)
000ece f011      	BREQ PC+3
000ecf 940c 0ed5 	JMP _0x214
000ed1 e4e2      	LDI  R30,LOW(66)
000ed2 93e0 007c 	STS  124,R30
                 ; 0000 03EF else if(adc_ch==3) ADMUX=0b01000011; //темпер
000ed4 c009      	RJMP _0x215
                 _0x214:
000ed5 91a0 0289 	LDS  R26,_adc_ch
000ed7 30a3      	CPI  R26,LOW(0x3)
000ed8 f011      	BREQ PC+3
000ed9 940c 0ede 	JMP _0x216
000edb e4e3      	LDI  R30,LOW(67)
000edc 93e0 007c 	STS  124,R30
                 ; 0000 03F0 
                 ; 0000 03F1 ADCSRA=0b10100110;
                 _0x216:
                 _0x215:
                 _0x213:
                 _0x211:
000ede eae6      	LDI  R30,LOW(166)
000edf 93e0 007a 	STS  122,R30
                 ; 0000 03F2 ADCSRA|=0b01000000;
000ee1 91e0 007a 	LDS  R30,122
000ee3 64e0      	ORI  R30,0x40
000ee4 93e0 007a 	STS  122,R30
                 ; 0000 03F3 
                 ; 0000 03F4 }
000ee6 9109      	LD   R16,Y+
000ee7 9119      	LD   R17,Y+
000ee8 9508      	RET
                 ; .FEND
                 ;
                 ;//-----------------------------------------------
                 ;void matemat(void)
                 ; 0000 03F8 {
                 _matemat:
                 ; .FSTART _matemat
                 ; 0000 03F9 signed long temp_SL;
                 ; 0000 03FA /*
                 ; 0000 03FB #ifdef _220_
                 ; 0000 03FC temp_SL=adc_buff_[0];
                 ; 0000 03FD temp_SL-=K[0,0];
                 ; 0000 03FE if(temp_SL<0) temp_SL=0;
                 ; 0000 03FF temp_SL*=K[0,1];
                 ; 0000 0400 temp_SL/=2400;
                 ; 0000 0401 I=(signed int)temp_SL;
                 ; 0000 0402 #else
                 ; 0000 0403 */
                 ; 0000 0404 /*
                 ; 0000 0405 #ifdef _110_
                 ; 0000 0406 temp_SL=adc_buff_[0];
                 ; 0000 0407 temp_SL-=K[0,0];
                 ; 0000 0408 if(temp_SL<0) temp_SL=0;
                 ; 0000 0409 temp_SL*=K[0,1];
                 ; 0000 040A temp_SL/=2400;
                 ; 0000 040B I=(signed int)temp_SL;
                 ; 0000 040C //I=53;
                 ; 0000 040D #else
                 ; 0000 040E */
                 ; 0000 040F 
                 ; 0000 0410 #ifdef _24_
                 ; 0000 0411 temp_SL=adc_buff_[0];
000ee9 9724      	SBIW R28,4
                 ;	temp_SL -> Y+0
000eea 940e 1176 	CALL SUBOPT_0x13
000eec 940e 131b 	CALL SUBOPT_0x46
                 ; 0000 0412 temp_SL-=K[0][0];
000eee e0a0      	LDI  R26,LOW(_K)
000eef e0b0      	LDI  R27,HIGH(_K)
000ef0 940e 140c 	CALL __EEPROMRDW
000ef2 940e 1320 	CALL SUBOPT_0x47
000ef4 940e 1349 	CALL __SUBD21
000ef6 940e 1402 	CALL __PUTD2S0
                 ; 0000 0413 if(temp_SL<0) temp_SL=0;
000ef8 81ab      	LDD  R26,Y+3
000ef9 23aa      	TST  R26
000efa f012      	BRMI PC+3
000efb 940c 0eff 	JMP _0x217
000efd 940e 1325 	CALL SUBOPT_0x48
                 ; 0000 0414 temp_SL*=K[0][1];
                 _0x217:
000eff 940e 1180 	CALL SUBOPT_0x15
000f01 940e 1320 	CALL SUBOPT_0x47
000f03 940e 1329 	CALL SUBOPT_0x49
                 ; 0000 0415 temp_SL/=400;
                +
000f05 e9e0     +LDI R30 , LOW ( 0x190 )
000f06 e0f1     +LDI R31 , HIGH ( 0x190 )
000f07 e060     +LDI R22 , BYTE3 ( 0x190 )
000f08 e070     +LDI R23 , BYTE4 ( 0x190 )
                 	__GETD1N 0x190
000f09 940e 1330 	CALL SUBOPT_0x4A
                 ; 0000 0416 I=(signed int)temp_SL;
000f0b 93e0 028a 	STS  _I,R30
000f0d 93f0 028b 	STS  _I+1,R31
                 ; 0000 0417 //I=234;
                 ; 0000 0418 #endif
                 ; 0000 0419 
                 ; 0000 041A #ifdef _48/60_
                 ; 0000 041B temp_SL=adc_buff_[0];
                 ; 0000 041C temp_SL-=K[0][0];
                 ; 0000 041D if(temp_SL<0) temp_SL=0;
                 ; 0000 041E temp_SL*=K[0][1];
                 ; 0000 041F temp_SL/=250;
                 ; 0000 0420 I=(signed int)temp_SL;
                 ; 0000 0421 #endif
                 ; 0000 0422 
                 ; 0000 0423 #ifdef _220_
                 ; 0000 0424 temp_SL=adc_buff_[0];
                 ; 0000 0425 temp_SL-=K[0][0];
                 ; 0000 0426 if(temp_SL<0) temp_SL=0;
                 ; 0000 0427 temp_SL*=K[0][1];
                 ; 0000 0428 temp_SL/=1200;
                 ; 0000 0429 I=(signed int)temp_SL;
                 ; 0000 042A #endif
                 ; 0000 042B //I=456;
                 ; 0000 042C 
                 ; 0000 042D #ifdef _110_
                 ; 0000 042E temp_SL=adc_buff_[0];
                 ; 0000 042F temp_SL-=K[0][0];
                 ; 0000 0430 if(temp_SL<0) temp_SL=0;
                 ; 0000 0431 temp_SL*=K[0][1];
                 ; 0000 0432 temp_SL/=1200;
                 ; 0000 0433 I=(signed int)temp_SL;
                 ; 0000 0434 #endif
                 ; 0000 0435 
                 ; 0000 0436 
                 ; 0000 0437 
                 ; 0000 0438 #ifdef _24_
                 ; 0000 0439 temp_SL=adc_buff_[1];
                +
000f0f 91e0 0282+LDS R30 , _adc_buff_ + ( 2 )
000f11 91f0 0283+LDS R31 , _adc_buff_ + ( 2 ) + 1
                 	__GETW1MN _adc_buff_,2
000f13 940e 131b 	CALL SUBOPT_0x46
                 ; 0000 043A //temp_SL-=K[1,0];
                 ; 0000 043B if(temp_SL<0) temp_SL=0;
000f15 81ab      	LDD  R26,Y+3
000f16 23aa      	TST  R26
000f17 f012      	BRMI PC+3
000f18 940c 0f1c 	JMP _0x218
000f1a 940e 1325 	CALL SUBOPT_0x48
                 ; 0000 043C temp_SL*=K[2][1];
                 _0x218:
000f1c 940e 1199 	CALL SUBOPT_0x1A
000f1e 940e 1320 	CALL SUBOPT_0x47
000f20 940e 1329 	CALL SUBOPT_0x49
                 ; 0000 043D temp_SL/=1000;
000f22 940e 1337 	CALL SUBOPT_0x4B
                 ; 0000 043E Ui=(unsigned)temp_SL;
000f24 93e0 028e 	STS  _Ui,R30
000f26 93f0 028f 	STS  _Ui+1,R31
                 ; 0000 043F #endif
                 ; 0000 0440 
                 ; 0000 0441 #ifdef _48/60_
                 ; 0000 0442 temp_SL=adc_buff_[1];
                 ; 0000 0443 //temp_SL-=K[1,0];
                 ; 0000 0444 if(temp_SL<0) temp_SL=0;
                 ; 0000 0445 temp_SL*=K[2][1];
                 ; 0000 0446 temp_SL/=2000;
                 ; 0000 0447 Ui=(unsigned)temp_SL;
                 ; 0000 0448 #endif
                 ; 0000 0449 
                 ; 0000 044A #ifdef _110_
                 ; 0000 044B temp_SL=adc_buff_[1];
                 ; 0000 044C //temp_SL-=K[1,0];
                 ; 0000 044D if(temp_SL<0) temp_SL=0;
                 ; 0000 044E temp_SL*=K[2][1];
                 ; 0000 044F temp_SL/=1000;
                 ; 0000 0450 Ui=(unsigned)temp_SL;
                 ; 0000 0451 #endif
                 ; 0000 0452 
                 ; 0000 0453 
                 ; 0000 0454 #ifdef _220_
                 ; 0000 0455 temp_SL=adc_buff_[1];
                 ; 0000 0456 //temp_SL-=K[1,0];
                 ; 0000 0457 if(temp_SL<0) temp_SL=0;
                 ; 0000 0458 temp_SL*=K[2][1];
                 ; 0000 0459 temp_SL/=1000;
                 ; 0000 045A Ui=(unsigned)temp_SL;
                 ; 0000 045B #endif
                 ; 0000 045C 
                 ; 0000 045D #ifdef _24_
                 ; 0000 045E temp_SL=adc_buff_[2];
                +
000f28 91e0 0284+LDS R30 , _adc_buff_ + ( 4 )
000f2a 91f0 0285+LDS R31 , _adc_buff_ + ( 4 ) + 1
                 	__GETW1MN _adc_buff_,4
000f2c 940e 131b 	CALL SUBOPT_0x46
                 ; 0000 045F //temp_SL-=K[2,0];
                 ; 0000 0460 if(temp_SL<0) temp_SL=0;
000f2e 81ab      	LDD  R26,Y+3
000f2f 23aa      	TST  R26
000f30 f012      	BRMI PC+3
000f31 940c 0f35 	JMP _0x219
000f33 940e 1325 	CALL SUBOPT_0x48
                 ; 0000 0461 temp_SL*=K[1][1];
                 _0x219:
000f35 940e 1194 	CALL SUBOPT_0x19
000f37 940e 1320 	CALL SUBOPT_0x47
000f39 940e 1329 	CALL SUBOPT_0x49
                 ; 0000 0462 temp_SL/=1000;
000f3b 940e 1337 	CALL SUBOPT_0x4B
                 ; 0000 0463 Un=(unsigned)temp_SL;
000f3d 93e0 028c 	STS  _Un,R30
000f3f 93f0 028d 	STS  _Un+1,R31
                 ; 0000 0464 #endif
                 ; 0000 0465 
                 ; 0000 0466 #ifdef _48/60_
                 ; 0000 0467 temp_SL=adc_buff_[2];
                 ; 0000 0468 //temp_SL-=K[2,0];
                 ; 0000 0469 if(temp_SL<0) temp_SL=0;
                 ; 0000 046A temp_SL*=K[1][1];
                 ; 0000 046B temp_SL/=2000;
                 ; 0000 046C Un=(unsigned)temp_SL;
                 ; 0000 046D #endif
                 ; 0000 046E 
                 ; 0000 046F #ifdef _110_
                 ; 0000 0470 temp_SL=adc_buff_[2];
                 ; 0000 0471 //temp_SL-=K[2,0];
                 ; 0000 0472 if(temp_SL<0) temp_SL=0;
                 ; 0000 0473 temp_SL*=K[1,1];
                 ; 0000 0474 temp_SL/=1000;
                 ; 0000 0475 Un=(unsigned)temp_SL;
                 ; 0000 0476 #endif
                 ; 0000 0477 
                 ; 0000 0478 #ifdef _220_
                 ; 0000 0479 temp_SL=adc_buff_[2];
                 ; 0000 047A //temp_SL-=K[2,0];
                 ; 0000 047B if(temp_SL<0) temp_SL=0;
                 ; 0000 047C temp_SL*=K[1,1];
                 ; 0000 047D temp_SL/=1000;
                 ; 0000 047E Un=(unsigned)temp_SL;
                 ; 0000 047F #endif
                 ; 0000 0480 
                 ; 0000 0481 
                 ; 0000 0482 temp_SL=adc_buff_[3];
                +
000f41 91e0 0286+LDS R30 , _adc_buff_ + ( 6 )
000f43 91f0 0287+LDS R31 , _adc_buff_ + ( 6 ) + 1
                 	__GETW1MN _adc_buff_,6
000f45 940e 131b 	CALL SUBOPT_0x46
                 ; 0000 0483 temp_SL*=K[3][1];
000f47 940e 119e 	CALL SUBOPT_0x1B
000f49 940e 1320 	CALL SUBOPT_0x47
000f4b 940e 1329 	CALL SUBOPT_0x49
                 ; 0000 0484 temp_SL/=1000;
                +
000f4d eee8     +LDI R30 , LOW ( 0x3E8 )
000f4e e0f3     +LDI R31 , HIGH ( 0x3E8 )
000f4f e060     +LDI R22 , BYTE3 ( 0x3E8 )
000f50 e070     +LDI R23 , BYTE4 ( 0x3E8 )
                 	__GETD1N 0x3E8
000f51 940e 13d7 	CALL __DIVD21
000f53 940e 133c 	CALL SUBOPT_0x4C
                 ; 0000 0485 temp_SL-=273;
000f55 940e 13f3 	CALL __GETD1S0
                +
000f57 51e1     +SUBI R30 , LOW ( 273 )
000f58 40f1     +SBCI R31 , HIGH ( 273 )
000f59 4060     +SBCI R22 , BYTE3 ( 273 )
000f5a 4070     +SBCI R23 , BYTE4 ( 273 )
                 	__SUBD1N 273
000f5b 940e 133c 	CALL SUBOPT_0x4C
                 ; 0000 0486 if(temp_SL<=0L) temp_SL=0L;
000f5d 940e 13f8 	CALL __GETD2S0
000f5f 940e 1435 	CALL __CPD02
000f61 f414      	BRGE PC+3
000f62 940c 0f66 	JMP _0x21A
000f64 940e 1325 	CALL SUBOPT_0x48
                 ; 0000 0487 if(temp_SL>100) temp_SL=100L;
                 _0x21A:
000f66 940e 13f8 	CALL __GETD2S0
                +
000f68 36a5     +CPI R26 , LOW ( 0x65 )
000f69 e0e0     +LDI R30 , HIGH ( 0x65 )
000f6a 07be     +CPC R27 , R30
000f6b e0e0     +LDI R30 , BYTE3 ( 0x65 )
000f6c 078e     +CPC R24 , R30
000f6d e0e0     +LDI R30 , BYTE4 ( 0x65 )
000f6e 079e     +CPC R25 , R30
                 	__CPD2N 0x65
000f6f f414      	BRGE PC+3
000f70 940c 0f78 	JMP _0x21B
                +
000f72 e6e4     +LDI R30 , LOW ( 0x64 )
000f73 e0f0     +LDI R31 , HIGH ( 0x64 )
000f74 e060     +LDI R22 , BYTE3 ( 0x64 )
000f75 e070     +LDI R23 , BYTE4 ( 0x64 )
                 	__GETD1N 0x64
000f76 940e 133c 	CALL SUBOPT_0x4C
                 ; 0000 0488 
                 ; 0000 0489 T=(signed)temp_SL;
                 _0x21B:
000f78 81e8      	LD   R30,Y
000f79 81f9      	LDD  R31,Y+1
000f7a 93e0 0292 	STS  _T,R30
000f7c 93f0 0293 	STS  _T+1,R31
                 ; 0000 048A 
                 ; 0000 048B 
                 ; 0000 048C 
                 ; 0000 048D Udb=flags;
000f7e 91e0 0294 	LDS  R30,_flags
000f80 e0f0      	LDI  R31,0
000f81 93e0 0290 	STS  _Udb,R30
000f83 93f0 0291 	STS  _Udb+1,R31
                 ; 0000 048E 
                 ; 0000 048F 
                 ; 0000 0490 
                 ; 0000 0491 }
000f85 9624      	ADIW R28,4
000f86 9508      	RET
                 ; .FEND
                 ;
                 ;//***********************************************
                 ;//***********************************************
                 ;//***********************************************
                 ;//***********************************************
                 ;interrupt [TIM0_OVF] void timer0_ovf_isr(void)
                 ; 0000 0498 {
                 _timer0_ovf_isr:
                 ; .FSTART _timer0_ovf_isr
000f87 920a      	ST   -Y,R0
000f88 921a      	ST   -Y,R1
000f89 92fa      	ST   -Y,R15
000f8a 936a      	ST   -Y,R22
000f8b 937a      	ST   -Y,R23
000f8c 938a      	ST   -Y,R24
000f8d 939a      	ST   -Y,R25
000f8e 93aa      	ST   -Y,R26
000f8f 93ba      	ST   -Y,R27
000f90 93ea      	ST   -Y,R30
000f91 93fa      	ST   -Y,R31
000f92 b7ef      	IN   R30,SREG
000f93 93ea      	ST   -Y,R30
                 ; 0000 0499 t0_init();
000f94 940e 06ca 	CALL _t0_init
                 ; 0000 049A 
                 ; 0000 049B can_hndl1();
000f96 940e 021a 	CALL _can_hndl1
                 ; 0000 049C 
                 ; 0000 049D if(++t0_cnt4>=10)
000f98 9473      	INC  R7
000f99 e0ea      	LDI  R30,LOW(10)
000f9a 167e      	CP   R7,R30
000f9b f410      	BRSH PC+3
000f9c 940c 0fc3 	JMP _0x21C
                 ; 0000 049E 	{
                 ; 0000 049F 	t0_cnt4=0;
000f9e 2477      	CLR  R7
                 ; 0000 04A0 //	b100Hz=1;
                 ; 0000 04A1 
                 ; 0000 04A2 
                 ; 0000 04A3 if(++t0_cnt0>=10)
000f9f 9433      	INC  R3
000fa0 163e      	CP   R3,R30
000fa1 f410      	BRSH PC+3
000fa2 940c 0fa6 	JMP _0x21D
                 ; 0000 04A4 	{
                 ; 0000 04A5 	t0_cnt0=0;
000fa4 2433      	CLR  R3
                 ; 0000 04A6 	b10Hz=1;
000fa5 9af3      	SBI  0x1E,3
                 ; 0000 04A7 	}
                 ; 0000 04A8 if(++t0_cnt3>=3)
                 _0x21D:
000fa6 9443      	INC  R4
000fa7 e0e3      	LDI  R30,LOW(3)
000fa8 164e      	CP   R4,R30
000fa9 f410      	BRSH PC+3
000faa 940c 0fae 	JMP _0x220
                 ; 0000 04A9 	{
                 ; 0000 04AA 	t0_cnt3=0;
000fac 2444      	CLR  R4
                 ; 0000 04AB 	b33Hz=1;
000fad 9af2      	SBI  0x1E,2
                 ; 0000 04AC 	}
                 ; 0000 04AD if(++t0_cnt1>=20)
                 _0x220:
000fae 9423      	INC  R2
000faf e1e4      	LDI  R30,LOW(20)
000fb0 162e      	CP   R2,R30
000fb1 f410      	BRSH PC+3
000fb2 940c 0fbb 	JMP _0x223
                 ; 0000 04AE 	{
                 ; 0000 04AF 	t0_cnt1=0;
000fb4 2422      	CLR  R2
                 ; 0000 04B0 	b5Hz=1;
000fb5 9af4      	SBI  0x1E,4
                 ; 0000 04B1      bFl_=!bFl_;
000fb6 9bf6      	SBIS 0x1E,6
000fb7 c002      	RJMP _0x226
000fb8 98f6      	CBI  0x1E,6
000fb9 c001      	RJMP _0x227
                 _0x226:
000fba 9af6      	SBI  0x1E,6
                 _0x227:
                 ; 0000 04B2 	}
                 ; 0000 04B3 if(++t0_cnt2>=100)
                 _0x223:
000fbb 9453      	INC  R5
000fbc e6e4      	LDI  R30,LOW(100)
000fbd 165e      	CP   R5,R30
000fbe f410      	BRSH PC+3
000fbf 940c 0fc3 	JMP _0x228
                 ; 0000 04B4 	{
                 ; 0000 04B5 	t0_cnt2=0;
000fc1 2455      	CLR  R5
                 ; 0000 04B6 	b1Hz=1;
000fc2 9af5      	SBI  0x1E,5
                 ; 0000 04B7 	}
                 ; 0000 04B8 }
                 _0x228:
                 ; 0000 04B9 }
                 _0x21C:
000fc3 91e9      	LD   R30,Y+
000fc4 bfef      	OUT  SREG,R30
000fc5 91f9      	LD   R31,Y+
000fc6 91e9      	LD   R30,Y+
000fc7 91b9      	LD   R27,Y+
000fc8 91a9      	LD   R26,Y+
000fc9 9199      	LD   R25,Y+
000fca 9189      	LD   R24,Y+
000fcb 9179      	LD   R23,Y+
000fcc 9169      	LD   R22,Y+
000fcd 90f9      	LD   R15,Y+
000fce 9019      	LD   R1,Y+
000fcf 9009      	LD   R0,Y+
000fd0 9518      	RETI
                 ; .FEND
                 ;
                 ;
                 ;//===============================================
                 ;//===============================================
                 ;//===============================================
                 ;//===============================================
                 ;void main(void)
                 ; 0000 04C1 {
                 _main:
                 ; .FSTART _main
                 ; 0000 04C2 
                 ; 0000 04C3 DDRD.2=1;
000fd1 9a52      	SBI  0xA,2
                 ; 0000 04C4 PORTD.2=1;
000fd2 9a5a      	SBI  0xB,2
                 ; 0000 04C5 
                 ; 0000 04C6 DDRB.0=1;
000fd3 9a20      	SBI  0x4,0
                 ; 0000 04C7 PORTB.0=0;
000fd4 9828      	CBI  0x5,0
                 ; 0000 04C8 
                 ; 0000 04C9 PORTB.2=1;
000fd5 9a2a      	SBI  0x5,2
                 ; 0000 04CA DDRB.2=1;
000fd6 9a22      	SBI  0x4,2
                 ; 0000 04CB 
                 ; 0000 04CC DDRB|=0b00110110;
000fd7 b1e4      	IN   R30,0x4
000fd8 63e6      	ORI  R30,LOW(0x36)
000fd9 b9e4      	OUT  0x4,R30
                 ; 0000 04CD 
                 ; 0000 04CE TCCR1A=0x83;
000fda e8e3      	LDI  R30,LOW(131)
000fdb 93e0 0080 	STS  128,R30
                 ; 0000 04CF TCCR1B=0x09;
000fdd e0e9      	LDI  R30,LOW(9)
000fde 93e0 0081 	STS  129,R30
                 ; 0000 04D0 TCNT1H=0x00;
000fe0 e0e0      	LDI  R30,LOW(0)
000fe1 93e0 0085 	STS  133,R30
                 ; 0000 04D1 TCNT1L=0x00;
000fe3 93e0 0084 	STS  132,R30
                 ; 0000 04D2 OCR1AH=0x00;
000fe5 93e0 0089 	STS  137,R30
                 ; 0000 04D3 OCR1AL=0x00;
000fe7 93e0 0088 	STS  136,R30
                 ; 0000 04D4 OCR1BH=0x00;
000fe9 93e0 008b 	STS  139,R30
                 ; 0000 04D5 OCR1BL=0x00;
000feb 93e0 008a 	STS  138,R30
                 ; 0000 04D6 
                 ; 0000 04D7 SPCR=0x5D;
000fed e5ed      	LDI  R30,LOW(93)
000fee bdec      	OUT  0x2C,R30
                 ; 0000 04D8 SPSR=0x00;
000fef e0e0      	LDI  R30,LOW(0)
000ff0 bded      	OUT  0x2D,R30
                 ; 0000 04D9 
                 ; 0000 04DA 
                 ; 0000 04DB delay_ms(100);
000ff1 940e 1118 	CALL SUBOPT_0x8
                 ; 0000 04DC delay_ms(100);
000ff3 940e 1118 	CALL SUBOPT_0x8
                 ; 0000 04DD delay_ms(100);
000ff5 940e 1118 	CALL SUBOPT_0x8
                 ; 0000 04DE delay_ms(100);
000ff7 940e 1118 	CALL SUBOPT_0x8
                 ; 0000 04DF delay_ms(100);
000ff9 940e 1118 	CALL SUBOPT_0x8
                 ; 0000 04E0 adr_hndl();
000ffb 940e 0811 	CALL _adr_hndl
                 ; 0000 04E1 
                 ; 0000 04E2 if(adr==100)
000ffd 940e 111c 	CALL SUBOPT_0x9
000fff 36e4      	CPI  R30,LOW(0x64)
001000 f011      	BREQ PC+3
001001 940c 1007 	JMP _0x237
                 ; 0000 04E3 	{
                 ; 0000 04E4 	adr_hndl();
001003 940e 0811 	CALL _adr_hndl
                 ; 0000 04E5 	delay_ms(100);
001005 940e 1118 	CALL SUBOPT_0x8
                 ; 0000 04E6 	}
                 ; 0000 04E7 if(adr==100)
                 _0x237:
001007 940e 111c 	CALL SUBOPT_0x9
001009 36e4      	CPI  R30,LOW(0x64)
00100a f011      	BREQ PC+3
00100b 940c 1011 	JMP _0x238
                 ; 0000 04E8 	{
                 ; 0000 04E9 	adr_hndl();
00100d 940e 0811 	CALL _adr_hndl
                 ; 0000 04EA 	delay_ms(100);
00100f 940e 1118 	CALL SUBOPT_0x8
                 ; 0000 04EB 	}
                 ; 0000 04EC 
                 ; 0000 04ED t0_init();
                 _0x238:
001011 940e 06ca 	CALL _t0_init
                 ; 0000 04EE 
                 ; 0000 04EF 
                 ; 0000 04F0 
                 ; 0000 04F1 link_cnt=0;
001013 940e 1161 	CALL SUBOPT_0x10
                 ; 0000 04F2 link=ON;
                 ; 0000 04F3 
                 ; 0000 04F4 main_cnt1=0;
001015 e0e0      	LDI  R30,LOW(0)
001016 93e0 02b3 	STS  _main_cnt1,R30
001018 93e0 02b4 	STS  _main_cnt1+1,R30
                 ; 0000 04F5 //_x_ee_=20;
                 ; 0000 04F6 _x_=_x_ee_;
00101a e1a9      	LDI  R26,LOW(__x_ee_)
00101b e0b0      	LDI  R27,HIGH(__x_ee_)
00101c 940e 140c 	CALL __EEPROMRDW
00101e 93e0 02b5 	STS  __x_,R30
001020 93f0 02b6 	STS  __x_+1,R31
                 ; 0000 04F7 
                 ; 0000 04F8 if((_x_>XMAX)||(_x_<-XMAX))_x_=0;
001022 91a0 02b5 	LDS  R26,__x_
001024 91b0 02b6 	LDS  R27,__x_+1
001026 975a      	SBIW R26,26
001027 f014      	BRLT PC+3
001028 940c 1035 	JMP _0x23A
00102a 91a0 02b5 	LDS  R26,__x_
00102c 91b0 02b6 	LDS  R27,__x_+1
00102e 3ea7      	CPI  R26,LOW(0xFFE7)
00102f efef      	LDI  R30,HIGH(0xFFE7)
001030 07be      	CPC  R27,R30
001031 f414      	BRGE PC+3
001032 940c 1035 	JMP _0x23A
001034 c005      	RJMP _0x239
                 _0x23A:
001035 e0e0      	LDI  R30,LOW(0)
001036 93e0 02b5 	STS  __x_,R30
001038 93e0 02b6 	STS  __x_+1,R30
                 ; 0000 04F9 
                 ; 0000 04FA if(!((TZAS>=0)&&(TZAS<=3))) TZAS=3;
                 _0x239:
00103a 940e 1121 	CALL SUBOPT_0xA
00103c 30e0      	CPI  R30,0
00103d f410      	BRSH PC+3
00103e 940c 1047 	JMP _0x23D
001040 940e 1121 	CALL SUBOPT_0xA
001042 30e4      	CPI  R30,LOW(0x4)
001043 f010      	BRLO PC+3
001044 940c 1047 	JMP _0x23D
001046 c005      	RJMP _0x23C
                 _0x23D:
001047 e1ad      	LDI  R26,LOW(_TZAS)
001048 e0b0      	LDI  R27,HIGH(_TZAS)
001049 e0e3      	LDI  R30,LOW(3)
00104a 940e 1424 	CALL __EEPROMWRB
                 ; 0000 04FB 
                 ; 0000 04FC #asm("sei")
                 _0x23C:
00104c 9478      	sei
                 ; 0000 04FD granee(&K[0][1],420,1100);
                +
00104d e0e2     +LDI R30 , LOW ( _K + ( 2 ) )
00104e e0f0     +LDI R31 , HIGH ( _K + ( 2 ) )
                 	__POINTW1MN _K,2
00104f 93fa      	ST   -Y,R31
001050 93ea      	ST   -Y,R30
001051 eae4      	LDI  R30,LOW(420)
001052 e0f1      	LDI  R31,HIGH(420)
001053 93fa      	ST   -Y,R31
001054 93ea      	ST   -Y,R30
001055 e4ac      	LDI  R26,LOW(1100)
001056 e0b4      	LDI  R27,HIGH(1100)
001057 940e 0723 	CALL _granee
                 ; 0000 04FE 
                 ; 0000 04FF #ifdef _220_
                 ; 0000 0500 granee(&K[1,1],4500,5500);
                 ; 0000 0501 granee(&K[2,1],4500,5500);
                 ; 0000 0502 #else
                 ; 0000 0503 #ifdef _110_
                 ; 0000 0504 granee(&K[1,1],2200,3500);
                 ; 0000 0505 granee(&K[2,1],2200,3500);
                 ; 0000 0506 #ifdef _48/60_
                 ; 0000 0507 granee(&K[1,1],1000,5500);
                 ; 0000 0508 granee(&K[2,1],1000,5500);
                 ; 0000 0509 #else
                 ; 0000 050A granee(&K[1,1],1360,1700);
                 ; 0000 050B granee(&K[2,1],1360,1700);
                 ; 0000 050C #endif
                 ; 0000 050D #endif
                 ; 0000 050E #endif
                 ; 0000 050F //granee(&K[1,1],1510,1850);
                 ; 0000 0510 //granee(&K[2,1],1510,1850);
                 ; 0000 0511 DDRD.2=1;
001059 9a52      	SBI  0xA,2
                 ; 0000 0512 PORTD.2=0;
00105a 985a      	CBI  0xB,2
                 ; 0000 0513 delay_ms(100);
00105b 940e 1118 	CALL SUBOPT_0x8
                 ; 0000 0514 PORTD.2=1;
00105d 9a5a      	SBI  0xB,2
                 ; 0000 0515 can_init1();
00105e 940e 0190 	CALL _can_init1
                 ; 0000 0516 
                 ; 0000 0517 while (1)
                 _0x245:
                 ; 0000 0518 	{
                 ; 0000 0519 	if(bIN1)
001060 91e0 0305 	LDS  R30,_bIN1
001062 30e0      	CPI  R30,0
001063 f411      	BRNE PC+3
001064 940c 106b 	JMP _0x248
                 ; 0000 051A 		{
                 ; 0000 051B 		bIN1=0;
001066 e0e0      	LDI  R30,LOW(0)
001067 93e0 0305 	STS  _bIN1,R30
                 ; 0000 051C 
                 ; 0000 051D 		can_in_an1();
001069 940e 029b 	CALL _can_in_an1
                 ; 0000 051E 		}
                 ; 0000 051F 
                 ; 0000 0520 /*	if(b100Hz)
                 ; 0000 0521 		{
                 ; 0000 0522 		b100Hz=0;
                 ; 0000 0523 		}*/
                 ; 0000 0524 	if(b33Hz)
                 _0x248:
00106b 9bf2      	SBIS 0x1E,2
00106c c003      	RJMP _0x249
                 ; 0000 0525 		{
                 ; 0000 0526 		b33Hz=0;
00106d 98f2      	CBI  0x1E,2
                 ; 0000 0527                 adc_hndl();
00106e 940e 0e2c 	CALL _adc_hndl
                 ; 0000 0528 		}
                 ; 0000 0529 	if(b10Hz)
                 _0x249:
001070 9bf3      	SBIS 0x1E,3
001071 c00d      	RJMP _0x24C
                 ; 0000 052A 		{
                 ; 0000 052B 		b10Hz=0;
001072 98f3      	CBI  0x1E,3
                 ; 0000 052C                 matemat();
001073 940e 0ee9 	CALL _matemat
                 ; 0000 052D 	    	led_drv();
001075 940e 077f 	CALL _led_drv
                 ; 0000 052E 	        link_drv();
001077 940e 094e 	CALL _link_drv
                 ; 0000 052F 	        pwr_hndl();
001079 940e 0ce8 	CALL _pwr_hndl
                 ; 0000 0530 	        JP_drv();
00107b 940e 0db1 	CALL _JP_drv
                 ; 0000 0531 	        flags_drv();
00107d 940e 07cc 	CALL _flags_drv
                 ; 0000 0532 		}
                 ; 0000 0533 	if(b5Hz)
                 _0x24C:
00107f 9bf4      	SBIS 0x1E,4
001080 c005      	RJMP _0x24F
                 ; 0000 0534 		{
                 ; 0000 0535 		b5Hz=0;
001081 98f4      	CBI  0x1E,4
                 ; 0000 0536  	        pwr_drv();
001082 940e 0ca3 	CALL _pwr_drv
                 ; 0000 0537  		led_hndl();
001084 940e 0add 	CALL _led_hndl
                 ; 0000 0538 		}
                 ; 0000 0539     	if(b1Hz)
                 _0x24F:
001086 9bf5      	SBIS 0x1E,5
001087 c05d      	RJMP _0x252
                 ; 0000 053A 		{
                 ; 0000 053B 		b1Hz=0;
001088 98f5      	CBI  0x1E,5
                 ; 0000 053C 		temper_drv();
001089 940e 098e 	CALL _temper_drv
                 ; 0000 053D 		u_drv();
00108b 940e 0a31 	CALL _u_drv
                 ; 0000 053E                 x_drv();
00108d 940e 0747 	CALL _x_drv
                 ; 0000 053F 
                 ; 0000 0540                 if(main_cnt<1000)main_cnt++;
00108f 91a0 02b7 	LDS  R26,_main_cnt
001091 91b0 02b8 	LDS  R27,_main_cnt+1
001093 3ea8      	CPI  R26,LOW(0x3E8)
001094 e0e3      	LDI  R30,HIGH(0x3E8)
001095 07be      	CPC  R27,R30
001096 f014      	BRLT PC+3
001097 940c 109d 	JMP _0x255
001099 eba7      	LDI  R26,LOW(_main_cnt)
00109a e0b2      	LDI  R27,HIGH(_main_cnt)
00109b 940e 11d4 	CALL SUBOPT_0x22
                 ; 0000 0541   		if((link==OFF)||(jp_mode==jp3))apv_hndl();
                 _0x255:
00109d 91a0 02a2 	LDS  R26,_link
00109f 3aaa      	CPI  R26,LOW(0xAA)
0010a0 f411      	BRNE PC+3
0010a1 940c 10aa 	JMP _0x257
0010a3 91a0 02b2 	LDS  R26,_jp_mode
0010a5 30a3      	CPI  R26,LOW(0x3)
0010a6 f411      	BRNE PC+3
0010a7 940c 10aa 	JMP _0x257
0010a9 c002      	RJMP _0x256
                 _0x257:
0010aa 940e 08ca 	CALL _apv_hndl
                 ; 0000 0542 
                 ; 0000 0543   		can_error_cnt++;
                 _0x256:
0010ac 91e0 02cd 	LDS  R30,_can_error_cnt
0010ae 5fef      	SUBI R30,-LOW(1)
0010af 93e0 02cd 	STS  _can_error_cnt,R30
                 ; 0000 0544   		if(can_error_cnt>=10)
0010b1 91a0 02cd 	LDS  R26,_can_error_cnt
0010b3 30aa      	CPI  R26,LOW(0xA)
0010b4 f410      	BRSH PC+3
0010b5 940c 10c1 	JMP _0x259
                 ; 0000 0545   			{
                 ; 0000 0546   			can_error_cnt=0;
0010b7 e0e0      	LDI  R30,LOW(0)
0010b8 93e0 02cd 	STS  _can_error_cnt,R30
                 ; 0000 0547   			DDRD.2=1;
0010ba 9a52      	SBI  0xA,2
                 ; 0000 0548 			PORTD.2=0;
0010bb 985a      	CBI  0xB,2
                 ; 0000 0549 			delay_ms(100);
0010bc 940e 1118 	CALL SUBOPT_0x8
                 ; 0000 054A 			PORTD.2=1;
0010be 9a5a      	SBI  0xB,2
                 ; 0000 054B 
                 ; 0000 054C 			can_init1();
0010bf 940e 0190 	CALL _can_init1
                 ; 0000 054D   			}
                 ; 0000 054E   		//can_transmit1(adr,PUTTM1,*((char*)&I),*(((char*)&I)+1),*((char*)&Un),*(((char*)&Un)+1),*((char*)&/*plazma_int[1]*/ ...
                 ; 0000 054F 		//can_transmit1(adr,PUTTM2,T,0,flags,_x_,*((char*)&plazma_int[2]/*rotor_int*/),*(((char*)&plazma_int[2]/*rotor_int*/)+ ...
                 ; 0000 0550 
                 ; 0000 0551 		if((adr==62)||(adr==63))
                 _0x259:
0010c1 940e 111c 	CALL SUBOPT_0x9
0010c3 33ee      	CPI  R30,LOW(0x3E)
0010c4 f411      	BRNE PC+3
0010c5 940c 10ce 	JMP _0x261
0010c7 940e 111c 	CALL SUBOPT_0x9
0010c9 33ef      	CPI  R30,LOW(0x3F)
0010ca f411      	BRNE PC+3
0010cb 940c 10ce 	JMP _0x261
0010cd c00c      	RJMP _0x260
                 _0x261:
                 ; 0000 0552 		        {
                 ; 0000 0553 		        can_transmit1(adr-62,0x33,*((char*)&I),*(((char*)&I)+1),*((char*)&Un),*(((char*)&Un)+1),*((char*)&/*plazma_int ...
0010ce 940e 111c 	CALL SUBOPT_0x9
0010d0 53ee      	SUBI R30,LOW(62)
0010d1 93ea      	ST   -Y,R30
0010d2 e3e3      	LDI  R30,LOW(51)
0010d3 940e 1134 	CALL SUBOPT_0xD
                 ; 0000 0554 	                can_transmit1(adr-62,0x34,T,0,flags,(char) _x_,*((char*)&plazma_int[2]/*rotor_int*/),*(((char*)&plazma_ ...
0010d5 53ee      	SUBI R30,LOW(62)
0010d6 93ea      	ST   -Y,R30
0010d7 e3e4      	LDI  R30,LOW(52)
0010d8 940e 1149 	CALL SUBOPT_0xE
                 ; 0000 0555 		        }
                 ; 0000 0556 
                 ; 0000 0557 		if(link_cnt63<20)link_cnt63++;
                 _0x260:
0010da 91a0 02ce 	LDS  R26,_link_cnt63
0010dc 31a4      	CPI  R26,LOW(0x14)
0010dd f010      	BRLO PC+3
0010de 940c 10e5 	JMP _0x263
0010e0 91e0 02ce 	LDS  R30,_link_cnt63
0010e2 5fef      	SUBI R30,-LOW(1)
0010e3 93e0 02ce 	STS  _link_cnt63,R30
                 ; 0000 0558 
                 ; 0000 0559  		}
                 _0x263:
                 ; 0000 055A      #asm("wdr")
                 _0x252:
0010e5 95a8      	wdr
                 ; 0000 055B 	}
0010e6 cf79      	RJMP _0x245
                 _0x247:
                 ; 0000 055C }
                 _0x264:
0010e7 cfff      	RJMP _0x264
                 ; .FEND
                 ;#include "curr_version.h"
                 ;
                 ;const short HARDVARE_VERSION = 21;
                 
                 	.DSEG
                 ;const short SOFT_VERSION = 9;
                 ;const short BUILD = 9;
                 ;const short BUILD_YEAR = 2023;
                 ;const short BUILD_MONTH = 9;
                 ;const short BUILD_DAY = 26;
                 	#ifndef __SLEEP_DEFINED__
                 	#endif
                 
                 	.CSEG
                 
                 	.CSEG
                 	#ifndef __SLEEP_DEFINED__
                 	#endif
                 
                 	.CSEG
                 _spi:
                 ; .FSTART _spi
0010e8 93aa      	ST   -Y,R26
0010e9 81e8      	LD   R30,Y
0010ea bdee      	OUT  0x2E,R30
                 _0x2040003:
0010eb b5ed      	IN   R30,0x2D
0010ec fde7      	SBRC R30,7
0010ed c001      	RJMP _0x2040005
0010ee cffc      	RJMP _0x2040003
                 _0x2040005:
0010ef b5ee      	IN   R30,0x2E
0010f0 9621      	ADIW R28,1
0010f1 9508      	RET
                 ; .FEND
                 
                 	.CSEG
                 
                 	.CSEG
                 
                 	.CSEG
                 
                 	.DSEG
                 
                 	.CSEG
                 
                 	.DSEG
                 _adc_buff:
000200           	.BYTE 0x80
                 _adc_buff_:
000280           	.BYTE 0x8
                 _adc_cnt:
000288           	.BYTE 0x1
                 _adc_ch:
000289           	.BYTE 0x1
                 
                 	.ESEG
                 _K:
000000           	.BYTE 0x10
                 
                 	.DSEG
                 _I:
00028a           	.BYTE 0x2
                 _Un:
00028c           	.BYTE 0x2
                 _Ui:
00028e           	.BYTE 0x2
                 _Udb:
000290           	.BYTE 0x2
                 _T:
000292           	.BYTE 0x2
                 _flags:
000294           	.BYTE 0x1
                 _flags_tu:
000295           	.BYTE 0x1
                 _vol_u_temp:
000296           	.BYTE 0x2
                 _vol_i_temp:
000298           	.BYTE 0x2
                 _led_red:
00029a           	.BYTE 0x4
                 _led_green:
00029e           	.BYTE 0x4
                 _link:
0002a2           	.BYTE 0x1
                 _link_cnt:
0002a3           	.BYTE 0x1
                 _led_drv_cnt:
0002a4           	.BYTE 0x1
                 
                 	.ESEG
                 _Umax:
000010           	.BYTE 0x2
                 _dU:
000012           	.BYTE 0x2
                 _tmax:
000014           	.BYTE 0x2
                 _tsign:
000016           	.BYTE 0x2
                 
                 	.DSEG
                 _tsign_cnt:
0002a5           	.BYTE 0x2
                 _tmax_cnt:
0002a7           	.BYTE 0x2
                 _pwm_u:
0002a9           	.BYTE 0x2
                 _umax_cnt:
0002ab           	.BYTE 0x2
                 _umin_cnt:
0002ad           	.BYTE 0x2
                 _flags_tu_cnt_off:
0002af           	.BYTE 0x1
                 
                 	.ESEG
                 _adr:
000018           	.BYTE 0x1
                 
                 	.DSEG
                 _cnt_JP0:
0002b0           	.BYTE 0x1
                 _cnt_JP1:
0002b1           	.BYTE 0x1
                 _jp_mode:
0002b2           	.BYTE 0x1
                 _main_cnt1:
0002b3           	.BYTE 0x2
                 __x_:
0002b5           	.BYTE 0x2
                 
                 	.ESEG
                 __x_ee_:
000019           	.BYTE 0x2
                 _U_AVT:
00001b           	.BYTE 0x2
                 
                 	.DSEG
                 _main_cnt:
0002b7           	.BYTE 0x2
                 
                 	.ESEG
                 _TZAS:
00001d           	.BYTE 0x1
                 
                 	.DSEG
                 _plazma_int:
0002b9           	.BYTE 0x6
                 _adc_ch_2_max:
0002bf           	.BYTE 0x2
                 _adc_ch_2_min:
0002c1           	.BYTE 0x2
                 _adc_ch_2_delta:
0002c3           	.BYTE 0x1
                 _cnt_adc_ch_2_delta:
0002c4           	.BYTE 0x1
                 _apv_cnt:
0002c5           	.BYTE 0x3
                 _apv_cnt_:
0002c8           	.BYTE 0x2
                 _cnt_apv_off:
0002ca           	.BYTE 0x1
                 
                 	.ESEG
                 _res_fl:
00001e           	.BYTE 0x1
                 _res_fl_:
00001f           	.BYTE 0x1
                 
                 	.DSEG
                 _res_fl_cnt:
0002cb           	.BYTE 0x1
                 _off_bp_cnt:
0002cc           	.BYTE 0x1
                 _can_error_cnt:
0002cd           	.BYTE 0x1
                 _link_cnt63:
0002ce           	.BYTE 0x1
                 _HARDVARE_VERSION:
0002cf           	.BYTE 0x2
                 _SOFT_VERSION:
0002d1           	.BYTE 0x2
                 _BUILD:
0002d3           	.BYTE 0x2
                 _BUILD_YEAR:
0002d5           	.BYTE 0x2
                 _BUILD_MONTH:
0002d7           	.BYTE 0x2
                 _BUILD_DAY:
0002d9           	.BYTE 0x2
                 _can_st1:
0002db           	.BYTE 0x1
                 _can_st_old1:
0002dc           	.BYTE 0x1
                 _RXBUFF1:
0002dd           	.BYTE 0x28
                 _bIN1:
000305           	.BYTE 0x1
                 _can_out_buff:
000306           	.BYTE 0x20
                 _can_buff_wr_ptr:
000326           	.BYTE 0x1
                 _can_buff_rd_ptr:
000327           	.BYTE 0x1
                 _rotor_int:
000328           	.BYTE 0x2
                 _led_red_buff_S0000019000:
00032a           	.BYTE 0x4
                 _led_green_buff_S0000019000:
00032e           	.BYTE 0x4
                 _flags_old_S000001A000:
000332           	.BYTE 0x1
                 __seed_G105:
000333           	.BYTE 0x4
                 
                 	.CSEG
                 ;OPTIMIZER ADDED SUBROUTINE, CALLED 6 TIMES, CODE SIZE REDUCTION:17 WORDS
                 SUBOPT_0x0:
0010f2 b1e4      	IN   R30,0x4
0010f3 62ec      	ORI  R30,LOW(0x2C)
0010f4 b9e4      	OUT  0x4,R30
0010f5 9824      	CBI  0x4,4
0010f6 9a20      	SBI  0x4,0
0010f7 9828      	CBI  0x5,0
0010f8 9508      	RET
                 
                 ;OPTIMIZER ADDED SUBROUTINE, CALLED 3 TIMES, CODE SIZE REDUCTION:3 WORDS
                 SUBOPT_0x1:
0010f9 940e 10e8 	CALL _spi
0010fb 81a9      	LDD  R26,Y+1
0010fc 940c 10e8 	JMP  _spi
                 
                 ;OPTIMIZER ADDED SUBROUTINE, CALLED 7 TIMES, CODE SIZE REDUCTION:15 WORDS
                 SUBOPT_0x2:
0010fe 91e0 0326 	LDS  R30,_can_buff_wr_ptr
001100 e0f0      	LDI  R31,0
001101 0fea      	ADD  R30,R26
001102 1ffb      	ADC  R31,R27
001103 9508      	RET
                 
                 ;OPTIMIZER ADDED SUBROUTINE, CALLED 4 TIMES, CODE SIZE REDUCTION:3 WORDS
                 SUBOPT_0x3:
001104 e0aa      	LDI  R26,LOW(10)
001105 e0b0      	LDI  R27,0
001106 940c 133f 	JMP  _delay_ms
                 
                 ;OPTIMIZER ADDED SUBROUTINE, CALLED 7 TIMES, CODE SIZE REDUCTION:9 WORDS
                 SUBOPT_0x4:
001108 93ea      	ST   -Y,R30
001109 efaf      	LDI  R26,LOW(255)
00110a 940c 00f5 	JMP  _spi_write
                 
                 ;OPTIMIZER ADDED SUBROUTINE, CALLED 4 TIMES, CODE SIZE REDUCTION:3 WORDS
                 SUBOPT_0x5:
00110c 93ea      	ST   -Y,R30
00110d eca0      	LDI  R26,LOW(192)
00110e 940c 00f5 	JMP  _spi_write
                 
                 ;OPTIMIZER ADDED SUBROUTINE, CALLED 7 TIMES, CODE SIZE REDUCTION:9 WORDS
                 SUBOPT_0x6:
001110 93ea      	ST   -Y,R30
001111 e0a0      	LDI  R26,LOW(0)
001112 940c 00f5 	JMP  _spi_write
                 
                 ;OPTIMIZER ADDED SUBROUTINE, CALLED 3 TIMES, CODE SIZE REDUCTION:1 WORDS
                 SUBOPT_0x7:
001114 93ea      	ST   -Y,R30
001115 e3a1      	LDI  R26,LOW(49)
001116 940c 00f5 	JMP  _spi_write
                 
                 ;OPTIMIZER ADDED SUBROUTINE, CALLED 11 TIMES, CODE SIZE REDUCTION:17 WORDS
                 SUBOPT_0x8:
001118 e6a4      	LDI  R26,LOW(100)
001119 e0b0      	LDI  R27,0
00111a 940c 133f 	JMP  _delay_ms
                 
                 ;OPTIMIZER ADDED SUBROUTINE, CALLED 28 TIMES, CODE SIZE REDUCTION:51 WORDS
                 SUBOPT_0x9:
00111c e1a8      	LDI  R26,LOW(_adr)
00111d e0b0      	LDI  R27,HIGH(_adr)
00111e 940e 1410 	CALL __EEPROMRDB
001120 9508      	RET
                 
                 ;OPTIMIZER ADDED SUBROUTINE, CALLED 19 TIMES, CODE SIZE REDUCTION:33 WORDS
                 SUBOPT_0xA:
001121 e1ad      	LDI  R26,LOW(_TZAS)
001122 e0b0      	LDI  R27,HIGH(_TZAS)
001123 940e 1410 	CALL __EEPROMRDB
001125 9508      	RET
                 
                 ;OPTIMIZER ADDED SUBROUTINE, CALLED 2 TIMES, CODE SIZE REDUCTION:2 WORDS
                 SUBOPT_0xB:
                +
001126 91a0 02e2+LDS R26 , _RXBUFF1 + ( 5 )
                 	__GETB2MN _RXBUFF1,5
001128 e0b0      	LDI  R27,0
001129 e0e0      	LDI  R30,LOW(256)
00112a e0f1      	LDI  R31,HIGH(256)
00112b 940e 1372 	CALL __MULW12U
00112d 9508      	RET
                 
                 ;OPTIMIZER ADDED SUBROUTINE, CALLED 8 TIMES, CODE SIZE REDUCTION:18 WORDS
                 SUBOPT_0xC:
00112e e0b0      	LDI  R27,0
00112f e0e0      	LDI  R30,LOW(256)
001130 e0f1      	LDI  R31,HIGH(256)
001131 940e 1372 	CALL __MULW12U
001133 9508      	RET
                 
                 ;OPTIMIZER ADDED SUBROUTINE, CALLED 2 TIMES, CODE SIZE REDUCTION:17 WORDS
                 SUBOPT_0xD:
001134 93ea      	ST   -Y,R30
001135 91e0 028a 	LDS  R30,_I
001137 93ea      	ST   -Y,R30
                +
001138 91e0 028b+LDS R30 , _I + ( 1 )
                 	__GETB1MN _I,1
00113a 93ea      	ST   -Y,R30
00113b 91e0 028c 	LDS  R30,_Un
00113d 93ea      	ST   -Y,R30
                +
00113e 91e0 028d+LDS R30 , _Un + ( 1 )
                 	__GETB1MN _Un,1
001140 93ea      	ST   -Y,R30
001141 91e0 028e 	LDS  R30,_Ui
001143 93ea      	ST   -Y,R30
                +
001144 91a0 028f+LDS R26 , _Ui + ( 1 )
                 	__GETB2MN _Ui,1
001146 940e 0140 	CALL _can_transmit1
001148 cfd3      	RJMP SUBOPT_0x9
                 
                 ;OPTIMIZER ADDED SUBROUTINE, CALLED 2 TIMES, CODE SIZE REDUCTION:14 WORDS
                 SUBOPT_0xE:
001149 93ea      	ST   -Y,R30
00114a 91e0 0292 	LDS  R30,_T
00114c 93ea      	ST   -Y,R30
00114d e0e0      	LDI  R30,LOW(0)
00114e 93ea      	ST   -Y,R30
00114f 91e0 0294 	LDS  R30,_flags
001151 93ea      	ST   -Y,R30
001152 91e0 02b5 	LDS  R30,__x_
001154 93ea      	ST   -Y,R30
                +
001155 91e0 02bd+LDS R30 , _plazma_int + ( 4 )
                 	__GETB1MN _plazma_int,4
001157 93ea      	ST   -Y,R30
                +
001158 91a0 02be+LDS R26 , _plazma_int + ( 5 )
                 	__GETB2MN _plazma_int,5
00115a 940c 0140 	JMP  _can_transmit1
                 
                 ;OPTIMIZER ADDED SUBROUTINE, CALLED 3 TIMES, CODE SIZE REDUCTION:3 WORDS
                 SUBOPT_0xF:
00115c 93ea      	ST   -Y,R30
00115d e0e0      	LDI  R30,LOW(0)
00115e 93ea      	ST   -Y,R30
00115f 93ea      	ST   -Y,R30
001160 9508      	RET
                 
                 ;OPTIMIZER ADDED SUBROUTINE, CALLED 3 TIMES, CODE SIZE REDUCTION:5 WORDS
                 SUBOPT_0x10:
001161 e0e0      	LDI  R30,LOW(0)
001162 93e0 02a3 	STS  _link_cnt,R30
001164 e5e5      	LDI  R30,LOW(85)
001165 93e0 02a2 	STS  _link,R30
001167 9508      	RET
                 
                 ;OPTIMIZER ADDED SUBROUTINE, CALLED 3 TIMES, CODE SIZE REDUCTION:3 WORDS
                 SUBOPT_0x11:
001168 e1af      	LDI  R26,LOW(_res_fl_)
001169 e0b0      	LDI  R27,HIGH(_res_fl_)
00116a 940e 1410 	CALL __EEPROMRDB
00116c 30e0      	CPI  R30,0
00116d 9508      	RET
                 
                 ;OPTIMIZER ADDED SUBROUTINE, CALLED 2 TIMES, CODE SIZE REDUCTION:2 WORDS
                 SUBOPT_0x12:
00116e e2a8      	LDI  R26,LOW(_rotor_int)
00116f e0b3      	LDI  R27,HIGH(_rotor_int)
001170 91ed      	LD   R30,X+
001171 91fd      	LD   R31,X+
001172 9631      	ADIW R30,1
001173 93fe      	ST   -X,R31
001174 93ee      	ST   -X,R30
001175 9508      	RET
                 
                 ;OPTIMIZER ADDED SUBROUTINE, CALLED 3 TIMES, CODE SIZE REDUCTION:1 WORDS
                 SUBOPT_0x13:
001176 91e0 0280 	LDS  R30,_adc_buff_
001178 91f0 0281 	LDS  R31,_adc_buff_+1
00117a 9508      	RET
                 
                 ;OPTIMIZER ADDED SUBROUTINE, CALLED 4 TIMES, CODE SIZE REDUCTION:3 WORDS
                 SUBOPT_0x14:
                +
00117b 91e0 02e0+LDS R30 , _RXBUFF1 + ( 3 )
                 	__GETB1MN _RXBUFF1,3
00117d 70ef      	ANDI R30,LOW(0xF)
00117e 30e2      	CPI  R30,LOW(0x2)
00117f 9508      	RET
                 
                 ;OPTIMIZER ADDED SUBROUTINE, CALLED 5 TIMES, CODE SIZE REDUCTION:5 WORDS
                 SUBOPT_0x15:
                +
001180 e0a2     +LDI R26 , LOW ( _K + ( 2 ) )
001181 e0b0     +LDI R27 , HIGH ( _K + ( 2 ) )
                 	__POINTW2MN _K,2
001182 940e 140c 	CALL __EEPROMRDW
001184 9508      	RET
                 
                 ;OPTIMIZER ADDED SUBROUTINE, CALLED 4 TIMES, CODE SIZE REDUCTION:3 WORDS
                 SUBOPT_0x16:
                +
001185 91e0 02e0+LDS R30 , _RXBUFF1 + ( 3 )
                 	__GETB1MN _RXBUFF1,3
001187 70ef      	ANDI R30,LOW(0xF)
001188 30e3      	CPI  R30,LOW(0x3)
001189 9508      	RET
                 
                 ;OPTIMIZER ADDED SUBROUTINE, CALLED 4 TIMES, CODE SIZE REDUCTION:3 WORDS
                 SUBOPT_0x17:
                +
00118a 91e0 02e0+LDS R30 , _RXBUFF1 + ( 3 )
                 	__GETB1MN _RXBUFF1,3
00118c 70ef      	ANDI R30,LOW(0xF)
00118d 30e4      	CPI  R30,LOW(0x4)
00118e 9508      	RET
                 
                 ;OPTIMIZER ADDED SUBROUTINE, CALLED 4 TIMES, CODE SIZE REDUCTION:3 WORDS
                 SUBOPT_0x18:
                +
00118f 91e0 02e0+LDS R30 , _RXBUFF1 + ( 3 )
                 	__GETB1MN _RXBUFF1,3
001191 70ef      	ANDI R30,LOW(0xF)
001192 30e5      	CPI  R30,LOW(0x5)
001193 9508      	RET
                 
                 ;OPTIMIZER ADDED SUBROUTINE, CALLED 5 TIMES, CODE SIZE REDUCTION:5 WORDS
                 SUBOPT_0x19:
                +
001194 e0a6     +LDI R26 , LOW ( _K + ( 6 ) )
001195 e0b0     +LDI R27 , HIGH ( _K + ( 6 ) )
                 	__POINTW2MN _K,6
001196 940e 140c 	CALL __EEPROMRDW
001198 9508      	RET
                 
                 ;OPTIMIZER ADDED SUBROUTINE, CALLED 5 TIMES, CODE SIZE REDUCTION:5 WORDS
                 SUBOPT_0x1A:
                +
001199 e0aa     +LDI R26 , LOW ( _K + ( 10 ) )
00119a e0b0     +LDI R27 , HIGH ( _K + ( 10 ) )
                 	__POINTW2MN _K,10
00119b 940e 140c 	CALL __EEPROMRDW
00119d 9508      	RET
                 
                 ;OPTIMIZER ADDED SUBROUTINE, CALLED 5 TIMES, CODE SIZE REDUCTION:5 WORDS
                 SUBOPT_0x1B:
                +
00119e e0ae     +LDI R26 , LOW ( _K + ( 14 ) )
00119f e0b0     +LDI R27 , HIGH ( _K + ( 14 ) )
                 	__POINTW2MN _K,14
0011a0 940e 140c 	CALL __EEPROMRDW
0011a2 9508      	RET
                 
                 ;OPTIMIZER ADDED SUBROUTINE, CALLED 2 TIMES, CODE SIZE REDUCTION:2 WORDS
                 SUBOPT_0x1C:
0011a3 940e 140c 	CALL __EEPROMRDW
0011a5 01bf      	MOVW R22,R30
                +
0011a6 91a0 02e1+LDS R26 , _RXBUFF1 + ( 4 )
                 	__GETB2MN _RXBUFF1,4
0011a8 cf85      	RJMP SUBOPT_0xC
                 
                 ;OPTIMIZER ADDED SUBROUTINE, CALLED 4 TIMES, CODE SIZE REDUCTION:6 WORDS
                 SUBOPT_0x1D:
                +
0011a9 91a0 02e0+LDS R26 , _RXBUFF1 + ( 3 )
                 	__GETB2MN _RXBUFF1,3
0011ab e0b0      	LDI  R27,0
0011ac 0fea      	ADD  R30,R26
0011ad 1ffb      	ADC  R31,R27
0011ae 9508      	RET
                 
                 ;OPTIMIZER ADDED SUBROUTINE, CALLED 3 TIMES, CODE SIZE REDUCTION:1 WORDS
                 SUBOPT_0x1E:
                +
0011af 91a0 02e3+LDS R26 , _RXBUFF1 + ( 6 )
                 	__GETB2MN _RXBUFF1,6
0011b1 cf7c      	RJMP SUBOPT_0xC
                 
                 ;OPTIMIZER ADDED SUBROUTINE, CALLED 4 TIMES, CODE SIZE REDUCTION:6 WORDS
                 SUBOPT_0x1F:
                +
0011b2 91a0 02e2+LDS R26 , _RXBUFF1 + ( 5 )
                 	__GETB2MN _RXBUFF1,5
0011b4 e0b0      	LDI  R27,0
0011b5 0fea      	ADD  R30,R26
0011b6 1ffb      	ADC  R31,R27
0011b7 9508      	RET
                 
                 ;OPTIMIZER ADDED SUBROUTINE, CALLED 3 TIMES, CODE SIZE REDUCTION:1 WORDS
                 SUBOPT_0x20:
0011b8 e1a6      	LDI  R26,LOW(_tsign)
0011b9 e0b0      	LDI  R27,HIGH(_tsign)
0011ba 940e 140c 	CALL __EEPROMRDW
0011bc 9508      	RET
                 
                 ;OPTIMIZER ADDED SUBROUTINE, CALLED 4 TIMES, CODE SIZE REDUCTION:66 WORDS
                 SUBOPT_0x21:
0011bd 91e0 0294 	LDS  R30,_flags
0011bf 7ee1      	ANDI R30,LOW(0xE1)
0011c0 93e0 0294 	STS  _flags,R30
0011c2 e0e0      	LDI  R30,LOW(0)
0011c3 93e0 02a5 	STS  _tsign_cnt,R30
0011c5 93e0 02a6 	STS  _tsign_cnt+1,R30
0011c7 93e0 02a7 	STS  _tmax_cnt,R30
0011c9 93e0 02a8 	STS  _tmax_cnt+1,R30
0011cb 93e0 02ab 	STS  _umax_cnt,R30
0011cd 93e0 02ac 	STS  _umax_cnt+1,R30
0011cf 93e0 02ad 	STS  _umin_cnt,R30
0011d1 93e0 02ae 	STS  _umin_cnt+1,R30
0011d3 9508      	RET
                 
                 ;OPTIMIZER ADDED SUBROUTINE, CALLED 9 TIMES, CODE SIZE REDUCTION:21 WORDS
                 SUBOPT_0x22:
0011d4 91ed      	LD   R30,X+
0011d5 91fd      	LD   R31,X+
0011d6 9631      	ADIW R30,1
0011d7 93fe      	ST   -X,R31
0011d8 93ee      	ST   -X,R30
0011d9 9508      	RET
                 
                 ;OPTIMIZER ADDED SUBROUTINE, CALLED 4 TIMES, CODE SIZE REDUCTION:6 WORDS
                 SUBOPT_0x23:
0011da 91ed      	LD   R30,X+
0011db 91fd      	LD   R31,X+
0011dc 9731      	SBIW R30,1
0011dd 93fe      	ST   -X,R31
0011de 93ee      	ST   -X,R30
0011df 9508      	RET
                 
                 ;OPTIMIZER ADDED SUBROUTINE, CALLED 2 TIMES, CODE SIZE REDUCTION:3 WORDS
                 SUBOPT_0x24:
0011e0 93e0 032a 	STS  _led_red_buff_S0000019000,R30
0011e2 93f0 032b 	STS  _led_red_buff_S0000019000+1,R31
0011e4 9360 032c 	STS  _led_red_buff_S0000019000+2,R22
0011e6 9370 032d 	STS  _led_red_buff_S0000019000+3,R23
0011e8 9508      	RET
                 
                 ;OPTIMIZER ADDED SUBROUTINE, CALLED 2 TIMES, CODE SIZE REDUCTION:3 WORDS
                 SUBOPT_0x25:
0011e9 93e0 032e 	STS  _led_green_buff_S0000019000,R30
0011eb 93f0 032f 	STS  _led_green_buff_S0000019000+1,R31
0011ed 9360 0330 	STS  _led_green_buff_S0000019000+2,R22
0011ef 9370 0331 	STS  _led_green_buff_S0000019000+3,R23
0011f1 9508      	RET
                 
                 ;OPTIMIZER ADDED SUBROUTINE, CALLED 3 TIMES, CODE SIZE REDUCTION:17 WORDS
                 SUBOPT_0x26:
0011f2 93e0 007c 	STS  124,R30
0011f4 eae6      	LDI  R30,LOW(166)
0011f5 93e0 007a 	STS  122,R30
0011f7 91e0 007a 	LDS  R30,122
0011f9 64e0      	ORI  R30,0x40
0011fa 93e0 007a 	STS  122,R30
0011fc cf07      	RJMP SUBOPT_0x3
                 
                 ;OPTIMIZER ADDED SUBROUTINE, CALLED 6 TIMES, CODE SIZE REDUCTION:7 WORDS
                 SUBOPT_0x27:
0011fd 91a0 0078 	LDS  R26,120
0011ff 91b0 0079 	LDS  R27,120+1
001201 9508      	RET
                 
                 ;OPTIMIZER ADDED SUBROUTINE, CALLED 3 TIMES, CODE SIZE REDUCTION:7 WORDS
                 SUBOPT_0x28:
001202 940e 11fd 	CALL SUBOPT_0x27
001204 ece8      	LDI  R30,LOW(200)
001205 e0f0      	LDI  R31,HIGH(200)
001206 940e 139f 	CALL __DIVW21U
001208 018f      	MOVW R16,R30
001209 9508      	RET
                 
                 ;OPTIMIZER ADDED SUBROUTINE, CALLED 3 TIMES, CODE SIZE REDUCTION:9 WORDS
                 SUBOPT_0x29:
00120a e0e0      	LDI  R30,LOW(0)
00120b e0f0      	LDI  R31,HIGH(0)
00120c 93fa      	ST   -Y,R31
00120d 93ea      	ST   -Y,R30
00120e e0a3      	LDI  R26,LOW(3)
00120f e0b0      	LDI  R27,0
001210 940c 06ff 	JMP  _gran
                 
                 ;OPTIMIZER ADDED SUBROUTINE, CALLED 3 TIMES, CODE SIZE REDUCTION:5 WORDS
                 SUBOPT_0x2A:
001212 e0e0      	LDI  R30,LOW(0)
001213 93e0 02c4 	STS  _cnt_adc_ch_2_delta,R30
001215 e1ee      	LDI  R30,LOW(30)
001216 93e0 02a4 	STS  _led_drv_cnt,R30
001218 9508      	RET
                 
                 ;OPTIMIZER ADDED SUBROUTINE, CALLED 3 TIMES, CODE SIZE REDUCTION:1 WORDS
                 SUBOPT_0x2B:
001219 91a0 02ad 	LDS  R26,_umin_cnt
00121b 91b0 02ae 	LDS  R27,_umin_cnt+1
00121d 9508      	RET
                 
                 ;OPTIMIZER ADDED SUBROUTINE, CALLED 3 TIMES, CODE SIZE REDUCTION:1 WORDS
                 SUBOPT_0x2C:
00121e 91a0 02ab 	LDS  R26,_umax_cnt
001220 91b0 02ac 	LDS  R27,_umax_cnt+1
001222 9508      	RET
                 
                 ;OPTIMIZER ADDED SUBROUTINE, CALLED 4 TIMES, CODE SIZE REDUCTION:3 WORDS
                 SUBOPT_0x2D:
001223 91a0 0292 	LDS  R26,_T
001225 91b0 0293 	LDS  R27,_T+1
001227 9508      	RET
                 
                 ;OPTIMIZER ADDED SUBROUTINE, CALLED 2 TIMES, CODE SIZE REDUCTION:5 WORDS
                 SUBOPT_0x2E:
001228 93fa      	ST   -Y,R31
001229 93ea      	ST   -Y,R30
00122a e0e0      	LDI  R30,LOW(0)
00122b e0f0      	LDI  R31,HIGH(0)
00122c 93fa      	ST   -Y,R31
00122d 93ea      	ST   -Y,R30
00122e e3ac      	LDI  R26,LOW(60)
00122f e0b0      	LDI  R27,0
001230 940c 06ff 	JMP  _gran
                 
                 ;OPTIMIZER ADDED SUBROUTINE, CALLED 5 TIMES, CODE SIZE REDUCTION:5 WORDS
                 SUBOPT_0x2F:
001232 91a0 028e 	LDS  R26,_Ui
001234 91b0 028f 	LDS  R27,_Ui+1
001236 9508      	RET
                 
                 ;OPTIMIZER ADDED SUBROUTINE, CALLED 2 TIMES, CODE SIZE REDUCTION:10 WORDS
                 SUBOPT_0x30:
001237 eaeb      	LDI  R30,LOW(_umax_cnt)
001238 e0f2      	LDI  R31,HIGH(_umax_cnt)
001239 93fa      	ST   -Y,R31
00123a 93ea      	ST   -Y,R30
00123b e0e0      	LDI  R30,LOW(0)
00123c e0f0      	LDI  R31,HIGH(0)
00123d 93fa      	ST   -Y,R31
00123e 93ea      	ST   -Y,R30
00123f e0aa      	LDI  R26,LOW(10)
001240 e0b0      	LDI  R27,0
001241 940e 06ff 	CALL _gran
001243 940e 121e 	CALL SUBOPT_0x2C
001245 971a      	SBIW R26,10
001246 9508      	RET
                 
                 ;OPTIMIZER ADDED SUBROUTINE, CALLED 2 TIMES, CODE SIZE REDUCTION:10 WORDS
                 SUBOPT_0x31:
001247 eaed      	LDI  R30,LOW(_umin_cnt)
001248 e0f2      	LDI  R31,HIGH(_umin_cnt)
001249 93fa      	ST   -Y,R31
00124a 93ea      	ST   -Y,R30
00124b e0e0      	LDI  R30,LOW(0)
00124c e0f0      	LDI  R31,HIGH(0)
00124d 93fa      	ST   -Y,R31
00124e 93ea      	ST   -Y,R30
00124f e0aa      	LDI  R26,LOW(10)
001250 e0b0      	LDI  R27,0
001251 940e 06ff 	CALL _gran
001253 940e 1219 	CALL SUBOPT_0x2B
001255 971a      	SBIW R26,10
001256 9508      	RET
                 
                 ;OPTIMIZER ADDED SUBROUTINE, CALLED 10 TIMES, CODE SIZE REDUCTION:51 WORDS
                 SUBOPT_0x32:
001257 e0a5      	LDI  R26,LOW(5)
001258 9fea      	MUL  R30,R26
001259 01f0      	MOVW R30,R0
00125a 91a0 02b3 	LDS  R26,_main_cnt1
00125c 91b0 02b4 	LDS  R27,_main_cnt1+1
00125e e0f0      	LDI  R31,0
00125f 9508      	RET
                 
                 ;OPTIMIZER ADDED SUBROUTINE, CALLED 14 TIMES, CODE SIZE REDUCTION:88 WORDS
                 SUBOPT_0x33:
001260 e0e0      	LDI  R30,LOW(0)
001261 93e0 029a 	STS  _led_red,R30
001263 93e0 029b 	STS  _led_red+1,R30
001265 93e0 029c 	STS  _led_red+2,R30
001267 93e0 029d 	STS  _led_red+3,R30
001269 9508      	RET
                 
                 ;OPTIMIZER ADDED SUBROUTINE, CALLED 4 TIMES, CODE SIZE REDUCTION:27 WORDS
                 SUBOPT_0x34:
                +
00126a e0e3     +LDI R30 , LOW ( 0x3030303 )
00126b e0f3     +LDI R31 , HIGH ( 0x3030303 )
00126c e063     +LDI R22 , BYTE3 ( 0x3030303 )
00126d e073     +LDI R23 , BYTE4 ( 0x3030303 )
                 	__GETD1N 0x3030303
00126e 93e0 029e 	STS  _led_green,R30
001270 93f0 029f 	STS  _led_green+1,R31
001272 9360 02a0 	STS  _led_green+2,R22
001274 9370 02a1 	STS  _led_green+3,R23
001276 9508      	RET
                 
                 ;OPTIMIZER ADDED SUBROUTINE, CALLED 3 TIMES, CODE SIZE REDUCTION:15 WORDS
                 SUBOPT_0x35:
001277 e0a5      	LDI  R26,LOW(5)
001278 9fea      	MUL  R30,R26
001279 01f0      	MOVW R30,R0
00127a 59ec      	SUBI R30,-LOW(100)
00127b 91a0 02b3 	LDS  R26,_main_cnt1
00127d 91b0 02b4 	LDS  R27,_main_cnt1+1
00127f e0f0      	LDI  R31,0
001280 17ae      	CP   R26,R30
001281 07bf      	CPC  R27,R31
001282 9508      	RET
                 
                 ;OPTIMIZER ADDED SUBROUTINE, CALLED 12 TIMES, CODE SIZE REDUCTION:107 WORDS
                 SUBOPT_0x36:
                +
001283 efef     +LDI R30 , LOW ( 0xFFFFFFFF )
001284 efff     +LDI R31 , HIGH ( 0xFFFFFFFF )
001285 ef6f     +LDI R22 , BYTE3 ( 0xFFFFFFFF )
001286 ef7f     +LDI R23 , BYTE4 ( 0xFFFFFFFF )
                 	__GETD1N 0xFFFFFFFF
001287 93e0 029e 	STS  _led_green,R30
001289 93f0 029f 	STS  _led_green+1,R31
00128b 9360 02a0 	STS  _led_green+2,R22
00128d 9370 02a1 	STS  _led_green+3,R23
00128f 9508      	RET
                 
                 ;OPTIMIZER ADDED SUBROUTINE, CALLED 4 TIMES, CODE SIZE REDUCTION:3 WORDS
                 SUBOPT_0x37:
001290 91e0 0294 	LDS  R30,_flags
001292 73ee      	ANDI R30,LOW(0x3E)
001293 30e4      	CPI  R30,LOW(0x4)
001294 9508      	RET
                 
                 ;OPTIMIZER ADDED SUBROUTINE, CALLED 8 TIMES, CODE SIZE REDUCTION:67 WORDS
                 SUBOPT_0x38:
                +
001295 e0e1     +LDI R30 , LOW ( 0x10001 )
001296 e0f0     +LDI R31 , HIGH ( 0x10001 )
001297 e061     +LDI R22 , BYTE3 ( 0x10001 )
001298 e070     +LDI R23 , BYTE4 ( 0x10001 )
                 	__GETD1N 0x10001
001299 93e0 029a 	STS  _led_red,R30
00129b 93f0 029b 	STS  _led_red+1,R31
00129d 9360 029c 	STS  _led_red+2,R22
00129f 9370 029d 	STS  _led_red+3,R23
0012a1 9508      	RET
                 
                 ;OPTIMIZER ADDED SUBROUTINE, CALLED 10 TIMES, CODE SIZE REDUCTION:60 WORDS
                 SUBOPT_0x39:
0012a2 e0e0      	LDI  R30,LOW(0)
0012a3 93e0 029e 	STS  _led_green,R30
0012a5 93e0 029f 	STS  _led_green+1,R30
0012a7 93e0 02a0 	STS  _led_green+2,R30
0012a9 93e0 02a1 	STS  _led_green+3,R30
0012ab 9508      	RET
                 
                 ;OPTIMIZER ADDED SUBROUTINE, CALLED 4 TIMES, CODE SIZE REDUCTION:33 WORDS
                 SUBOPT_0x3A:
                +
0012ac e0e9     +LDI R30 , LOW ( 0x90009 )
0012ad e0f0     +LDI R31 , HIGH ( 0x90009 )
0012ae e069     +LDI R22 , BYTE3 ( 0x90009 )
0012af e070     +LDI R23 , BYTE4 ( 0x90009 )
                 	__GETD1N 0x90009
0012b0 93e0 029a 	STS  _led_red,R30
0012b2 93f0 029b 	STS  _led_red+1,R31
0012b4 9360 029c 	STS  _led_red+2,R22
0012b6 9370 029d 	STS  _led_red+3,R23
0012b8 cfe9      	RJMP SUBOPT_0x39
                 
                 ;OPTIMIZER ADDED SUBROUTINE, CALLED 3 TIMES, CODE SIZE REDUCTION:17 WORDS
                 SUBOPT_0x3B:
                +
0012b9 efee     +LDI R30 , LOW ( 0xFFFFFFFE )
0012ba efff     +LDI R31 , HIGH ( 0xFFFFFFFE )
0012bb ef6f     +LDI R22 , BYTE3 ( 0xFFFFFFFE )
0012bc ef7f     +LDI R23 , BYTE4 ( 0xFFFFFFFE )
                 	__GETD1N 0xFFFFFFFE
0012bd 93e0 029e 	STS  _led_green,R30
0012bf 93f0 029f 	STS  _led_green+1,R31
0012c1 9360 02a0 	STS  _led_green+2,R22
0012c3 9370 02a1 	STS  _led_green+3,R23
0012c5 9508      	RET
                 
                 ;OPTIMIZER ADDED SUBROUTINE, CALLED 3 TIMES, CODE SIZE REDUCTION:13 WORDS
                 SUBOPT_0x3C:
0012c6 93e0 029a 	STS  _led_red,R30
0012c8 93f0 029b 	STS  _led_red+1,R31
0012ca 9360 029c 	STS  _led_red+2,R22
0012cc 9370 029d 	STS  _led_red+3,R23
0012ce cfb4      	RJMP SUBOPT_0x36
                 
                 ;OPTIMIZER ADDED SUBROUTINE, CALLED 2 TIMES, CODE SIZE REDUCTION:5 WORDS
                 SUBOPT_0x3D:
0012cf 93e0 029a 	STS  _led_red,R30
0012d1 93f0 029b 	STS  _led_red+1,R31
0012d3 9360 029c 	STS  _led_red+2,R22
0012d5 9370 029d 	STS  _led_red+3,R23
0012d7 cfca      	RJMP SUBOPT_0x39
                 
                 ;OPTIMIZER ADDED SUBROUTINE, CALLED 2 TIMES, CODE SIZE REDUCTION:3 WORDS
                 SUBOPT_0x3E:
0012d8 93e0 029e 	STS  _led_green,R30
0012da 93f0 029f 	STS  _led_green+1,R31
0012dc 9360 02a0 	STS  _led_green+2,R22
0012de 9370 02a1 	STS  _led_green+3,R23
0012e0 9508      	RET
                 
                 ;OPTIMIZER ADDED SUBROUTINE, CALLED 2 TIMES, CODE SIZE REDUCTION:6 WORDS
                 SUBOPT_0x3F:
0012e1 e0a5      	LDI  R26,LOW(5)
0012e2 9fea      	MUL  R30,R26
0012e3 01f0      	MOVW R30,R0
0012e4 5bea      	SUBI R30,-LOW(70)
0012e5 91a0 02b3 	LDS  R26,_main_cnt1
0012e7 91b0 02b4 	LDS  R27,_main_cnt1+1
0012e9 e0f0      	LDI  R31,0
0012ea 17ae      	CP   R26,R30
0012eb 07bf      	CPC  R27,R31
0012ec 9508      	RET
                 
                 ;OPTIMIZER ADDED SUBROUTINE, CALLED 2 TIMES, CODE SIZE REDUCTION:1 WORDS
                 SUBOPT_0x40:
0012ed 93fa      	ST   -Y,R31
0012ee 93ea      	ST   -Y,R30
0012ef efac      	LDI  R26,LOW(1020)
0012f0 e0b3      	LDI  R27,HIGH(1020)
0012f1 940c 06ff 	JMP  _gran
                 
                 ;OPTIMIZER ADDED SUBROUTINE, CALLED 2 TIMES, CODE SIZE REDUCTION:3 WORDS
                 SUBOPT_0x41:
0012f3 91e0 02a9 	LDS  R30,_pwm_u
0012f5 91f0 02aa 	LDS  R31,_pwm_u+1
0012f7 93e0 0088 	STS  136,R30
0012f9 93f0 0089 	STS  136+1,R31
0012fb 9508      	RET
                 
                 ;OPTIMIZER ADDED SUBROUTINE, CALLED 5 TIMES, CODE SIZE REDUCTION:9 WORDS
                 SUBOPT_0x42:
0012fc 93e0 02a9 	STS  _pwm_u,R30
0012fe 93f0 02aa 	STS  _pwm_u+1,R31
001300 98f7      	CBI  0x1E,7
001301 9508      	RET
                 
                 ;OPTIMIZER ADDED SUBROUTINE, CALLED 6 TIMES, CODE SIZE REDUCTION:17 WORDS
                 SUBOPT_0x43:
001302 e0e0      	LDI  R30,LOW(0)
001303 93e0 02a9 	STS  _pwm_u,R30
001305 93e0 02aa 	STS  _pwm_u+1,R30
001307 9af7      	SBI  0x1E,7
001308 9508      	RET
                 
                 ;OPTIMIZER ADDED SUBROUTINE, CALLED 2 TIMES, CODE SIZE REDUCTION:4 WORDS
                 SUBOPT_0x44:
001309 91e0 0289 	LDS  R30,_adc_ch
00130b e0f0      	LDI  R31,0
00130c 0fee      	LSL  R30
00130d 1fff      	ROL  R31
00130e 940e 1356 	CALL __LSLW4
001310 50e0      	SUBI R30,LOW(-_adc_buff)
001311 4ffe      	SBCI R31,HIGH(-_adc_buff)
001312 9508      	RET
                 
                 ;OPTIMIZER ADDED SUBROUTINE, CALLED 3 TIMES, CODE SIZE REDUCTION:7 WORDS
                 SUBOPT_0x45:
001313 91e0 0289 	LDS  R30,_adc_ch
001315 e8a0      	LDI  R26,LOW(_adc_buff_)
001316 e0b2      	LDI  R27,HIGH(_adc_buff_)
001317 e0f0      	LDI  R31,0
001318 0fee      	LSL  R30
001319 1fff      	ROL  R31
00131a 9508      	RET
                 
                 ;OPTIMIZER ADDED SUBROUTINE, CALLED 4 TIMES, CODE SIZE REDUCTION:9 WORDS
                 SUBOPT_0x46:
00131b 2766      	CLR  R22
00131c 2777      	CLR  R23
00131d 940e 13fd 	CALL __PUTD1S0
00131f 9508      	RET
                 
                 ;OPTIMIZER ADDED SUBROUTINE, CALLED 5 TIMES, CODE SIZE REDUCTION:13 WORDS
                 SUBOPT_0x47:
001320 940e 13f8 	CALL __GETD2S0
001322 940e 136d 	CALL __CWD1
001324 9508      	RET
                 
                 ;OPTIMIZER ADDED SUBROUTINE, CALLED 4 TIMES, CODE SIZE REDUCTION:6 WORDS
                 SUBOPT_0x48:
001325 e0e0      	LDI  R30,LOW(0)
001326 940e 1407 	CALL __CLRD1S0
001328 9508      	RET
                 
                 ;OPTIMIZER ADDED SUBROUTINE, CALLED 4 TIMES, CODE SIZE REDUCTION:21 WORDS
                 SUBOPT_0x49:
001329 940e 139a 	CALL __MULD12
00132b 940e 13fd 	CALL __PUTD1S0
00132d 940e 13f8 	CALL __GETD2S0
00132f 9508      	RET
                 
                 ;OPTIMIZER ADDED SUBROUTINE, CALLED 3 TIMES, CODE SIZE REDUCTION:9 WORDS
                 SUBOPT_0x4A:
001330 940e 13d7 	CALL __DIVD21
001332 940e 13fd 	CALL __PUTD1S0
001334 81e8      	LD   R30,Y
001335 81f9      	LDD  R31,Y+1
001336 9508      	RET
                 
                 ;OPTIMIZER ADDED SUBROUTINE, CALLED 2 TIMES, CODE SIZE REDUCTION:1 WORDS
                 SUBOPT_0x4B:
                +
001337 eee8     +LDI R30 , LOW ( 0x3E8 )
001338 e0f3     +LDI R31 , HIGH ( 0x3E8 )
001339 e060     +LDI R22 , BYTE3 ( 0x3E8 )
00133a e070     +LDI R23 , BYTE4 ( 0x3E8 )
                 	__GETD1N 0x3E8
00133b cff4      	RJMP SUBOPT_0x4A
                 
                 ;OPTIMIZER ADDED SUBROUTINE, CALLED 3 TIMES, CODE SIZE REDUCTION:1 WORDS
                 SUBOPT_0x4C:
00133c 940e 13fd 	CALL __PUTD1S0
00133e 9508      	RET
                 
                 
                 	.CSEG
                 _delay_ms:
00133f 9610      	adiw r26,0
001340 f039      	breq __delay_ms1
                 __delay_ms0:
                +
001341 ed80     +LDI R24 , LOW ( 0x7D0 )
001342 e097     +LDI R25 , HIGH ( 0x7D0 )
                +__DELAY_USW_LOOP :
001343 9701     +SBIW R24 , 1
001344 f7f1     +BRNE __DELAY_USW_LOOP
                 	__DELAY_USW 0x7D0
001345 95a8      	wdr
001346 9711      	sbiw r26,1
001347 f7c9      	brne __delay_ms0
                 __delay_ms1:
001348 9508      	ret
                 
                 __SUBD21:
001349 1bae      	SUB  R26,R30
00134a 0bbf      	SBC  R27,R31
00134b 0b86      	SBC  R24,R22
00134c 0b97      	SBC  R25,R23
00134d 9508      	RET
                 
                 __ANEGD1:
00134e 95f0      	COM  R31
00134f 9560      	COM  R22
001350 9570      	COM  R23
001351 95e1      	NEG  R30
001352 4fff      	SBCI R31,-1
001353 4f6f      	SBCI R22,-1
001354 4f7f      	SBCI R23,-1
001355 9508      	RET
                 
                 __LSLW4:
001356 0fee      	LSL  R30
001357 1fff      	ROL  R31
                 __LSLW3:
001358 0fee      	LSL  R30
001359 1fff      	ROL  R31
                 __LSLW2:
00135a 0fee      	LSL  R30
00135b 1fff      	ROL  R31
00135c 0fee      	LSL  R30
00135d 1fff      	ROL  R31
00135e 9508      	RET
                 
                 __ASRD1:
00135f 9575      	ASR  R23
001360 9567      	ROR  R22
001361 95f7      	ROR  R31
001362 95e7      	ROR  R30
001363 9508      	RET
                 
                 __LSRW4:
001364 95f6      	LSR  R31
001365 95e7      	ROR  R30
                 __LSRW3:
001366 95f6      	LSR  R31
001367 95e7      	ROR  R30
                 __LSRW2:
001368 95f6      	LSR  R31
001369 95e7      	ROR  R30
00136a 95f6      	LSR  R31
00136b 95e7      	ROR  R30
00136c 9508      	RET
                 
                 __CWD1:
00136d 2f6f      	MOV  R22,R31
00136e 0f66      	ADD  R22,R22
00136f 0b66      	SBC  R22,R22
001370 2f76      	MOV  R23,R22
001371 9508      	RET
                 
                 __MULW12U:
001372 9ffa      	MUL  R31,R26
001373 2df0      	MOV  R31,R0
001374 9feb      	MUL  R30,R27
001375 0df0      	ADD  R31,R0
001376 9fea      	MUL  R30,R26
001377 2de0      	MOV  R30,R0
001378 0df1      	ADD  R31,R1
001379 9508      	RET
                 
                 __MULD12U:
00137a 9f7a      	MUL  R23,R26
00137b 2d70      	MOV  R23,R0
00137c 9f6b      	MUL  R22,R27
00137d 0d70      	ADD  R23,R0
00137e 9ff8      	MUL  R31,R24
00137f 0d70      	ADD  R23,R0
001380 9fe9      	MUL  R30,R25
001381 0d70      	ADD  R23,R0
001382 9f6a      	MUL  R22,R26
001383 2d60      	MOV  R22,R0
001384 0d71      	ADD  R23,R1
001385 9ffb      	MUL  R31,R27
001386 0d60      	ADD  R22,R0
001387 1d71      	ADC  R23,R1
001388 9fe8      	MUL  R30,R24
001389 0d60      	ADD  R22,R0
00138a 1d71      	ADC  R23,R1
00138b 2788      	CLR  R24
00138c 9ffa      	MUL  R31,R26
00138d 2df0      	MOV  R31,R0
00138e 0d61      	ADD  R22,R1
00138f 1f78      	ADC  R23,R24
001390 9feb      	MUL  R30,R27
001391 0df0      	ADD  R31,R0
001392 1d61      	ADC  R22,R1
001393 1f78      	ADC  R23,R24
001394 9fea      	MUL  R30,R26
001395 2de0      	MOV  R30,R0
001396 0df1      	ADD  R31,R1
001397 1f68      	ADC  R22,R24
001398 1f78      	ADC  R23,R24
001399 9508      	RET
                 
                 __MULD12:
00139a d041      	RCALL __CHKSIGND
00139b dfde      	RCALL __MULD12U
00139c f40e      	BRTC __MULD121
00139d dfb0      	RCALL __ANEGD1
                 __MULD121:
00139e 9508      	RET
                 
                 __DIVW21U:
00139f 2400      	CLR  R0
0013a0 2411      	CLR  R1
0013a1 e190      	LDI  R25,16
                 __DIVW21U1:
0013a2 0faa      	LSL  R26
0013a3 1fbb      	ROL  R27
0013a4 1c00      	ROL  R0
0013a5 1c11      	ROL  R1
0013a6 1a0e      	SUB  R0,R30
0013a7 0a1f      	SBC  R1,R31
0013a8 f418      	BRCC __DIVW21U2
0013a9 0e0e      	ADD  R0,R30
0013aa 1e1f      	ADC  R1,R31
0013ab c001      	RJMP __DIVW21U3
                 __DIVW21U2:
0013ac 60a1      	SBR  R26,1
                 __DIVW21U3:
0013ad 959a      	DEC  R25
0013ae f799      	BRNE __DIVW21U1
0013af 01fd      	MOVW R30,R26
0013b0 01d0      	MOVW R26,R0
0013b1 9508      	RET
                 
                 __DIVD21U:
0013b2 933f      	PUSH R19
0013b3 934f      	PUSH R20
0013b4 935f      	PUSH R21
0013b5 2400      	CLR  R0
0013b6 2411      	CLR  R1
0013b7 2744      	CLR  R20
0013b8 2755      	CLR  R21
0013b9 e230      	LDI  R19,32
                 __DIVD21U1:
0013ba 0faa      	LSL  R26
0013bb 1fbb      	ROL  R27
0013bc 1f88      	ROL  R24
0013bd 1f99      	ROL  R25
0013be 1c00      	ROL  R0
0013bf 1c11      	ROL  R1
0013c0 1f44      	ROL  R20
0013c1 1f55      	ROL  R21
0013c2 1a0e      	SUB  R0,R30
0013c3 0a1f      	SBC  R1,R31
0013c4 0b46      	SBC  R20,R22
0013c5 0b57      	SBC  R21,R23
0013c6 f428      	BRCC __DIVD21U2
0013c7 0e0e      	ADD  R0,R30
0013c8 1e1f      	ADC  R1,R31
0013c9 1f46      	ADC  R20,R22
0013ca 1f57      	ADC  R21,R23
0013cb c001      	RJMP __DIVD21U3
                 __DIVD21U2:
0013cc 60a1      	SBR  R26,1
                 __DIVD21U3:
0013cd 953a      	DEC  R19
0013ce f759      	BRNE __DIVD21U1
0013cf 01fd      	MOVW R30,R26
0013d0 01bc      	MOVW R22,R24
0013d1 01d0      	MOVW R26,R0
0013d2 01ca      	MOVW R24,R20
0013d3 915f      	POP  R21
0013d4 914f      	POP  R20
0013d5 913f      	POP  R19
0013d6 9508      	RET
                 
                 __DIVD21:
0013d7 d004      	RCALL __CHKSIGND
0013d8 dfd9      	RCALL __DIVD21U
0013d9 f40e      	BRTC __DIVD211
0013da df73      	RCALL __ANEGD1
                 __DIVD211:
0013db 9508      	RET
                 
                 __CHKSIGND:
0013dc 94e8      	CLT
0013dd ff77      	SBRS R23,7
0013de c002      	RJMP __CHKSD1
0013df df6e      	RCALL __ANEGD1
0013e0 9468      	SET
                 __CHKSD1:
0013e1 ff97      	SBRS R25,7
0013e2 c00b      	RJMP __CHKSD2
0013e3 2400      	CLR  R0
0013e4 95a0      	COM  R26
0013e5 95b0      	COM  R27
0013e6 9580      	COM  R24
0013e7 9590      	COM  R25
0013e8 9611      	ADIW R26,1
0013e9 1d80      	ADC  R24,R0
0013ea 1d90      	ADC  R25,R0
0013eb f800      	BLD  R0,0
0013ec 9403      	INC  R0
0013ed fa00      	BST  R0,0
                 __CHKSD2:
0013ee 9508      	RET
                 
                 __GETW1P:
0013ef 91ed      	LD   R30,X+
0013f0 91fc      	LD   R31,X
0013f1 9711      	SBIW R26,1
0013f2 9508      	RET
                 
                 __GETD1S0:
0013f3 81e8      	LD   R30,Y
0013f4 81f9      	LDD  R31,Y+1
0013f5 816a      	LDD  R22,Y+2
0013f6 817b      	LDD  R23,Y+3
0013f7 9508      	RET
                 
                 __GETD2S0:
0013f8 81a8      	LD   R26,Y
0013f9 81b9      	LDD  R27,Y+1
0013fa 818a      	LDD  R24,Y+2
0013fb 819b      	LDD  R25,Y+3
0013fc 9508      	RET
                 
                 __PUTD1S0:
0013fd 83e8      	ST   Y,R30
0013fe 83f9      	STD  Y+1,R31
0013ff 836a      	STD  Y+2,R22
001400 837b      	STD  Y+3,R23
001401 9508      	RET
                 
                 __PUTD2S0:
001402 83a8      	ST   Y,R26
001403 83b9      	STD  Y+1,R27
001404 838a      	STD  Y+2,R24
001405 839b      	STD  Y+3,R25
001406 9508      	RET
                 
                 __CLRD1S0:
001407 83e8      	ST   Y,R30
001408 83e9      	STD  Y+1,R30
001409 83ea      	STD  Y+2,R30
00140a 83eb      	STD  Y+3,R30
00140b 9508      	RET
                 
                 __EEPROMRDW:
00140c 9611      	ADIW R26,1
00140d d002      	RCALL __EEPROMRDB
00140e 2ffe      	MOV  R31,R30
00140f 9711      	SBIW R26,1
                 
                 __EEPROMRDB:
001410 99f9      	SBIC EECR,EEWE
001411 cffe      	RJMP __EEPROMRDB
001412 93ff      	PUSH R31
001413 b7ff      	IN   R31,SREG
001414 94f8      	CLI
001415 bda1      	OUT  EEARL,R26
001416 bdb2      	OUT  EEARH,R27
001417 9af8      	SBI  EECR,EERE
001418 b5e0      	IN   R30,EEDR
001419 bfff      	OUT  SREG,R31
00141a 91ff      	POP  R31
00141b 9508      	RET
                 
                 __EEPROMWRW:
00141c d007      	RCALL __EEPROMWRB
00141d 9611      	ADIW R26,1
00141e 93ef      	PUSH R30
00141f 2fef      	MOV  R30,R31
001420 d003      	RCALL __EEPROMWRB
001421 91ef      	POP  R30
001422 9711      	SBIW R26,1
001423 9508      	RET
                 
                 __EEPROMWRB:
001424 9bf9      	SBIS EECR,EEWE
001425 c002      	RJMP __EEPROMWRB1
001426 95a8      	WDR
001427 cffc      	RJMP __EEPROMWRB
                 __EEPROMWRB1:
001428 b79f      	IN   R25,SREG
001429 94f8      	CLI
00142a bda1      	OUT  EEARL,R26
00142b bdb2      	OUT  EEARH,R27
00142c 9af8      	SBI  EECR,EERE
00142d b580      	IN   R24,EEDR
00142e 17e8      	CP   R30,R24
00142f f019      	BREQ __EEPROMWRB0
001430 bde0      	OUT  EEDR,R30
001431 9afa      	SBI  EECR,EEMWE
001432 9af9      	SBI  EECR,EEWE
                 __EEPROMWRB0:
001433 bf9f      	OUT  SREG,R25
001434 9508      	RET
                 
                 __CPD02:
001435 2400      	CLR  R0
001436 160a      	CP   R0,R26
001437 060b      	CPC  R0,R27
001438 0608      	CPC  R0,R24
001439 0609      	CPC  R0,R25
00143a 9508      	RET
                 
                 __SAVELOCR6:
00143b 935a      	ST   -Y,R21
                 __SAVELOCR5:
00143c 934a      	ST   -Y,R20
                 __SAVELOCR4:
00143d 933a      	ST   -Y,R19
                 __SAVELOCR3:
00143e 932a      	ST   -Y,R18
                 __SAVELOCR2:
00143f 931a      	ST   -Y,R17
001440 930a      	ST   -Y,R16
001441 9508      	RET
                 
                 __LOADLOCR6:
001442 815d      	LDD  R21,Y+5
                 __LOADLOCR5:
001443 814c      	LDD  R20,Y+4
                 __LOADLOCR4:
001444 813b      	LDD  R19,Y+3
                 __LOADLOCR3:
001445 812a      	LDD  R18,Y+2
                 __LOADLOCR2:
001446 8119      	LDD  R17,Y+1
001447 8108      	LD   R16,Y
001448 9508      	RET
                 
                 ;END OF CODE MARKER
                 __END_OF_CODE:


RESOURCE USE INFORMATION
------------------------

Notice:
The register and instruction counts are symbol table hit counts,
and hence implicitly used resources are not counted, eg, the
'lpm' instruction without operands implicitly uses r0 and z,
none of which are counted.

x,y,z are separate entities in the symbol table and are
counted separately from r26..r31 here.

.dseg memory usage only counts static data declared with .byte

ATmega168 register use summary:
r0 :  49 r1 :  21 r2 :   3 r3 :   3 r4 :   3 r5 :   3 r6 :   0 r7 :   3 
r8 :   0 r9 :   0 r10:   0 r11:   0 r12:   0 r13:   0 r14:   0 r15:   2 
r16:  27 r17:  32 r18:   2 r19:   6 r20:  12 r21:  10 r22:  70 r23:  59 
r24:  34 r25:  19 r26: 550 r27: 189 r28:  25 r29:   1 r30:1021 r31: 241 
x  :  31 y  : 276 z  :  21 
Registers used: 27 out of 35 (77.1%)

ATmega168 instruction use summary:
.lds  :   0 .lds.l:   0 .sts  :   0 .sts.l:   0 adc   :  28 add   :  31 
adiw  :  34 and   :   0 andi  :  67 asr   :   1 bclr  :   0 bld   :   1 
brbc  :   0 brbs  :   0 brcc  :   2 brcs  :   0 break :   0 breq  : 152 
brge  :  12 brhc  :   0 brhs  :   0 brid  :   0 brie  :   0 brlo  :  16 
brlt  :  29 brmi  :   3 brne  :  75 brpl  :   0 brsh  :  17 brtc  :   2 
brts  :   0 brvc  :   0 brvs  :   0 bset  :   0 bst   :   1 call  : 501 
cbi   :  17 cbr   :   3 clc   :   0 clh   :   0 cli   :  10 cln   :   0 
clr   :  18 cls   :   0 clt   :   1 clv   :   0 clz   :   0 com   :   7 
cp    :  49 cpc   :  45 cpi   : 161 cpse  :   0 dec   :   5 des   :   0 
eor   :   0 fmul  :   0 fmuls :   0 fmulsu:   0 icall :   0 ijmp  :   0 
in    :  25 inc   :   6 jmp   : 330 ld    :  50 ldd   :  69 ldi   : 519 
lds   : 331 lpm   :   7 lsl   :  12 lsr   :   4 mov   :  20 movw  :  30 
mul   :  18 muls  :   0 mulsu :   0 neg   :   1 nop   :   8 or    :   1 
ori   :  14 out   :  38 pop   :  13 push  :  13 rcall :  10 ret   : 118 
reti  :   1 rjmp  : 224 rol   :  18 ror   :   7 sbc   :   9 sbci  :  10 
sbi   :  37 sbic  :   7 sbis  :   9 sbiw  :  38 sbr   :   5 sbrc  :   2 
sbrs  :   2 sec   :   0 seh   :   0 sei   :   8 sen   :   0 ser   :   0 
ses   :   0 set   :   1 sev   :   0 sez   :   0 sleep :   0 spm   :   0 
st    : 180 std   :  22 sts   : 196 sub   :   4 subi  :  32 swap  :   0 
tst   :   3 wdr   :   4 
Instructions used: 71 out of 116 (61.2%)

ATmega168 memory use summary [bytes]:
Segment   Begin    End      Code   Data   Used    Size   Use%
---------------------------------------------------------------
[.cseg] 0x000000 0x002892  10204    182  10386   16384  63.4%
[.dseg] 0x000100 0x000337      0    311    311    1024  30.4%
[.eseg] 0x000000 0x000020      0     32     32     512   6.3%

Assembly complete, 0 errors, 24 warnings
